
STM32H750B-DK_Oximeter_5_Click.elf:     file format elf32-littlearm

Sections:
Idx Name          Size      VMA       LMA       File off  Algn
  0 .isr_vector   00000298  08000000  08000000  00010000  2**0
                  CONTENTS, ALLOC, LOAD, READONLY, DATA
  1 .text         000065dc  08000298  08000298  00010298  2**2
                  CONTENTS, ALLOC, LOAD, READONLY, CODE
  2 .rodata       000000e4  08006874  08006874  00016874  2**2
                  CONTENTS, ALLOC, LOAD, READONLY, DATA
  3 .ARM          00000008  08006958  08006958  00016958  2**2
                  CONTENTS, ALLOC, LOAD, READONLY, DATA
  4 .init_array   00000004  08006960  08006960  00016960  2**2
                  CONTENTS, ALLOC, LOAD, DATA
  5 .fini_array   00000004  08006964  08006964  00016964  2**2
                  CONTENTS, ALLOC, LOAD, DATA
  6 .data         00000010  24000000  08006968  00020000  2**2
                  CONTENTS, ALLOC, LOAD, DATA
  7 .RxDecripSection 00000060  24000010  08006978  00020010  2**2
                  CONTENTS, ALLOC, LOAD, DATA
  8 .TxDecripSection 00000060  24000070  080069d8  00020070  2**2
                  CONTENTS, ALLOC, LOAD, DATA
  9 .bss          00000cb4  240000d0  08006a38  000200d0  2**2
                  ALLOC
 10 ._user_heap_stack 00000604  24000d84  08006a38  00020d84  2**0
                  ALLOC
 11 .ARM.attributes 0000002e  00000000  00000000  000200d0  2**0
                  CONTENTS, READONLY
 12 .comment      00000043  00000000  00000000  000200fe  2**0
                  CONTENTS, READONLY
 13 .debug_frame  000000f4  00000000  00000000  00020144  2**2
                  CONTENTS, READONLY, DEBUGGING, OCTETS

Disassembly of section .text:

08000298 <__do_global_dtors_aux>:
 8000298:	b510      	push	{r4, lr}
 800029a:	4c05      	ldr	r4, [pc, #20]	; (80002b0 <__do_global_dtors_aux+0x18>)
 800029c:	7823      	ldrb	r3, [r4, #0]
 800029e:	b933      	cbnz	r3, 80002ae <__do_global_dtors_aux+0x16>
 80002a0:	4b04      	ldr	r3, [pc, #16]	; (80002b4 <__do_global_dtors_aux+0x1c>)
 80002a2:	b113      	cbz	r3, 80002aa <__do_global_dtors_aux+0x12>
 80002a4:	4804      	ldr	r0, [pc, #16]	; (80002b8 <__do_global_dtors_aux+0x20>)
 80002a6:	f3af 8000 	nop.w
 80002aa:	2301      	movs	r3, #1
 80002ac:	7023      	strb	r3, [r4, #0]
 80002ae:	bd10      	pop	{r4, pc}
 80002b0:	240000d0 	.word	0x240000d0
 80002b4:	00000000 	.word	0x00000000
 80002b8:	0800685c 	.word	0x0800685c

080002bc <frame_dummy>:
 80002bc:	b508      	push	{r3, lr}
 80002be:	4b03      	ldr	r3, [pc, #12]	; (80002cc <frame_dummy+0x10>)
 80002c0:	b11b      	cbz	r3, 80002ca <frame_dummy+0xe>
 80002c2:	4903      	ldr	r1, [pc, #12]	; (80002d0 <frame_dummy+0x14>)
 80002c4:	4803      	ldr	r0, [pc, #12]	; (80002d4 <frame_dummy+0x18>)
 80002c6:	f3af 8000 	nop.w
 80002ca:	bd08      	pop	{r3, pc}
 80002cc:	00000000 	.word	0x00000000
 80002d0:	240000d4 	.word	0x240000d4
 80002d4:	0800685c 	.word	0x0800685c

080002d8 <strlen>:
 80002d8:	4603      	mov	r3, r0
 80002da:	f813 2b01 	ldrb.w	r2, [r3], #1
 80002de:	2a00      	cmp	r2, #0
 80002e0:	d1fb      	bne.n	80002da <strlen+0x2>
 80002e2:	1a18      	subs	r0, r3, r0
 80002e4:	3801      	subs	r0, #1
 80002e6:	4770      	bx	lr

080002e8 <__aeabi_uldivmod>:
 80002e8:	b953      	cbnz	r3, 8000300 <__aeabi_uldivmod+0x18>
 80002ea:	b94a      	cbnz	r2, 8000300 <__aeabi_uldivmod+0x18>
 80002ec:	2900      	cmp	r1, #0
 80002ee:	bf08      	it	eq
 80002f0:	2800      	cmpeq	r0, #0
 80002f2:	bf1c      	itt	ne
 80002f4:	f04f 31ff 	movne.w	r1, #4294967295
 80002f8:	f04f 30ff 	movne.w	r0, #4294967295
 80002fc:	f000 b970 	b.w	80005e0 <__aeabi_idiv0>
 8000300:	f1ad 0c08 	sub.w	ip, sp, #8
 8000304:	e96d ce04 	strd	ip, lr, [sp, #-16]!
 8000308:	f000 f806 	bl	8000318 <__udivmoddi4>
 800030c:	f8dd e004 	ldr.w	lr, [sp, #4]
 8000310:	e9dd 2302 	ldrd	r2, r3, [sp, #8]
 8000314:	b004      	add	sp, #16
 8000316:	4770      	bx	lr

08000318 <__udivmoddi4>:
 8000318:	e92d 47f0 	stmdb	sp!, {r4, r5, r6, r7, r8, r9, sl, lr}
 800031c:	9e08      	ldr	r6, [sp, #32]
 800031e:	460d      	mov	r5, r1
 8000320:	4604      	mov	r4, r0
 8000322:	460f      	mov	r7, r1
 8000324:	2b00      	cmp	r3, #0
 8000326:	d14a      	bne.n	80003be <__udivmoddi4+0xa6>
 8000328:	428a      	cmp	r2, r1
 800032a:	4694      	mov	ip, r2
 800032c:	d965      	bls.n	80003fa <__udivmoddi4+0xe2>
 800032e:	fab2 f382 	clz	r3, r2
 8000332:	b143      	cbz	r3, 8000346 <__udivmoddi4+0x2e>
 8000334:	fa02 fc03 	lsl.w	ip, r2, r3
 8000338:	f1c3 0220 	rsb	r2, r3, #32
 800033c:	409f      	lsls	r7, r3
 800033e:	fa20 f202 	lsr.w	r2, r0, r2
 8000342:	4317      	orrs	r7, r2
 8000344:	409c      	lsls	r4, r3
 8000346:	ea4f 4e1c 	mov.w	lr, ip, lsr #16
 800034a:	fa1f f58c 	uxth.w	r5, ip
 800034e:	fbb7 f1fe 	udiv	r1, r7, lr
 8000352:	0c22      	lsrs	r2, r4, #16
 8000354:	fb0e 7711 	mls	r7, lr, r1, r7
 8000358:	ea42 4207 	orr.w	r2, r2, r7, lsl #16
 800035c:	fb01 f005 	mul.w	r0, r1, r5
 8000360:	4290      	cmp	r0, r2
 8000362:	d90a      	bls.n	800037a <__udivmoddi4+0x62>
 8000364:	eb1c 0202 	adds.w	r2, ip, r2
 8000368:	f101 37ff 	add.w	r7, r1, #4294967295
 800036c:	f080 811c 	bcs.w	80005a8 <__udivmoddi4+0x290>
 8000370:	4290      	cmp	r0, r2
 8000372:	f240 8119 	bls.w	80005a8 <__udivmoddi4+0x290>
 8000376:	3902      	subs	r1, #2
 8000378:	4462      	add	r2, ip
 800037a:	1a12      	subs	r2, r2, r0
 800037c:	b2a4      	uxth	r4, r4
 800037e:	fbb2 f0fe 	udiv	r0, r2, lr
 8000382:	fb0e 2210 	mls	r2, lr, r0, r2
 8000386:	ea44 4402 	orr.w	r4, r4, r2, lsl #16
 800038a:	fb00 f505 	mul.w	r5, r0, r5
 800038e:	42a5      	cmp	r5, r4
 8000390:	d90a      	bls.n	80003a8 <__udivmoddi4+0x90>
 8000392:	eb1c 0404 	adds.w	r4, ip, r4
 8000396:	f100 32ff 	add.w	r2, r0, #4294967295
 800039a:	f080 8107 	bcs.w	80005ac <__udivmoddi4+0x294>
 800039e:	42a5      	cmp	r5, r4
 80003a0:	f240 8104 	bls.w	80005ac <__udivmoddi4+0x294>
 80003a4:	4464      	add	r4, ip
 80003a6:	3802      	subs	r0, #2
 80003a8:	ea40 4001 	orr.w	r0, r0, r1, lsl #16
 80003ac:	1b64      	subs	r4, r4, r5
 80003ae:	2100      	movs	r1, #0
 80003b0:	b11e      	cbz	r6, 80003ba <__udivmoddi4+0xa2>
 80003b2:	40dc      	lsrs	r4, r3
 80003b4:	2300      	movs	r3, #0
 80003b6:	e9c6 4300 	strd	r4, r3, [r6]
 80003ba:	e8bd 87f0 	ldmia.w	sp!, {r4, r5, r6, r7, r8, r9, sl, pc}
 80003be:	428b      	cmp	r3, r1
 80003c0:	d908      	bls.n	80003d4 <__udivmoddi4+0xbc>
 80003c2:	2e00      	cmp	r6, #0
 80003c4:	f000 80ed 	beq.w	80005a2 <__udivmoddi4+0x28a>
 80003c8:	2100      	movs	r1, #0
 80003ca:	e9c6 0500 	strd	r0, r5, [r6]
 80003ce:	4608      	mov	r0, r1
 80003d0:	e8bd 87f0 	ldmia.w	sp!, {r4, r5, r6, r7, r8, r9, sl, pc}
 80003d4:	fab3 f183 	clz	r1, r3
 80003d8:	2900      	cmp	r1, #0
 80003da:	d149      	bne.n	8000470 <__udivmoddi4+0x158>
 80003dc:	42ab      	cmp	r3, r5
 80003de:	d302      	bcc.n	80003e6 <__udivmoddi4+0xce>
 80003e0:	4282      	cmp	r2, r0
 80003e2:	f200 80f8 	bhi.w	80005d6 <__udivmoddi4+0x2be>
 80003e6:	1a84      	subs	r4, r0, r2
 80003e8:	eb65 0203 	sbc.w	r2, r5, r3
 80003ec:	2001      	movs	r0, #1
 80003ee:	4617      	mov	r7, r2
 80003f0:	2e00      	cmp	r6, #0
 80003f2:	d0e2      	beq.n	80003ba <__udivmoddi4+0xa2>
 80003f4:	e9c6 4700 	strd	r4, r7, [r6]
 80003f8:	e7df      	b.n	80003ba <__udivmoddi4+0xa2>
 80003fa:	b902      	cbnz	r2, 80003fe <__udivmoddi4+0xe6>
 80003fc:	deff      	udf	#255	; 0xff
 80003fe:	fab2 f382 	clz	r3, r2
 8000402:	2b00      	cmp	r3, #0
 8000404:	f040 8090 	bne.w	8000528 <__udivmoddi4+0x210>
 8000408:	1a8a      	subs	r2, r1, r2
 800040a:	ea4f 471c 	mov.w	r7, ip, lsr #16
 800040e:	fa1f fe8c 	uxth.w	lr, ip
 8000412:	2101      	movs	r1, #1
 8000414:	fbb2 f5f7 	udiv	r5, r2, r7
 8000418:	fb07 2015 	mls	r0, r7, r5, r2
 800041c:	0c22      	lsrs	r2, r4, #16
 800041e:	ea42 4200 	orr.w	r2, r2, r0, lsl #16
 8000422:	fb0e f005 	mul.w	r0, lr, r5
 8000426:	4290      	cmp	r0, r2
 8000428:	d908      	bls.n	800043c <__udivmoddi4+0x124>
 800042a:	eb1c 0202 	adds.w	r2, ip, r2
 800042e:	f105 38ff 	add.w	r8, r5, #4294967295
 8000432:	d202      	bcs.n	800043a <__udivmoddi4+0x122>
 8000434:	4290      	cmp	r0, r2
 8000436:	f200 80cb 	bhi.w	80005d0 <__udivmoddi4+0x2b8>
 800043a:	4645      	mov	r5, r8
 800043c:	1a12      	subs	r2, r2, r0
 800043e:	b2a4      	uxth	r4, r4
 8000440:	fbb2 f0f7 	udiv	r0, r2, r7
 8000444:	fb07 2210 	mls	r2, r7, r0, r2
 8000448:	ea44 4402 	orr.w	r4, r4, r2, lsl #16
 800044c:	fb0e fe00 	mul.w	lr, lr, r0
 8000450:	45a6      	cmp	lr, r4
 8000452:	d908      	bls.n	8000466 <__udivmoddi4+0x14e>
 8000454:	eb1c 0404 	adds.w	r4, ip, r4
 8000458:	f100 32ff 	add.w	r2, r0, #4294967295
 800045c:	d202      	bcs.n	8000464 <__udivmoddi4+0x14c>
 800045e:	45a6      	cmp	lr, r4
 8000460:	f200 80bb 	bhi.w	80005da <__udivmoddi4+0x2c2>
 8000464:	4610      	mov	r0, r2
 8000466:	eba4 040e 	sub.w	r4, r4, lr
 800046a:	ea40 4005 	orr.w	r0, r0, r5, lsl #16
 800046e:	e79f      	b.n	80003b0 <__udivmoddi4+0x98>
 8000470:	f1c1 0720 	rsb	r7, r1, #32
 8000474:	408b      	lsls	r3, r1
 8000476:	fa22 fc07 	lsr.w	ip, r2, r7
 800047a:	ea4c 0c03 	orr.w	ip, ip, r3
 800047e:	fa05 f401 	lsl.w	r4, r5, r1
 8000482:	fa20 f307 	lsr.w	r3, r0, r7
 8000486:	40fd      	lsrs	r5, r7
 8000488:	ea4f 491c 	mov.w	r9, ip, lsr #16
 800048c:	4323      	orrs	r3, r4
 800048e:	fbb5 f8f9 	udiv	r8, r5, r9
 8000492:	fa1f fe8c 	uxth.w	lr, ip
 8000496:	fb09 5518 	mls	r5, r9, r8, r5
 800049a:	0c1c      	lsrs	r4, r3, #16
 800049c:	ea44 4405 	orr.w	r4, r4, r5, lsl #16
 80004a0:	fb08 f50e 	mul.w	r5, r8, lr
 80004a4:	42a5      	cmp	r5, r4
 80004a6:	fa02 f201 	lsl.w	r2, r2, r1
 80004aa:	fa00 f001 	lsl.w	r0, r0, r1
 80004ae:	d90b      	bls.n	80004c8 <__udivmoddi4+0x1b0>
 80004b0:	eb1c 0404 	adds.w	r4, ip, r4
 80004b4:	f108 3aff 	add.w	sl, r8, #4294967295
 80004b8:	f080 8088 	bcs.w	80005cc <__udivmoddi4+0x2b4>
 80004bc:	42a5      	cmp	r5, r4
 80004be:	f240 8085 	bls.w	80005cc <__udivmoddi4+0x2b4>
 80004c2:	f1a8 0802 	sub.w	r8, r8, #2
 80004c6:	4464      	add	r4, ip
 80004c8:	1b64      	subs	r4, r4, r5
 80004ca:	b29d      	uxth	r5, r3
 80004cc:	fbb4 f3f9 	udiv	r3, r4, r9
 80004d0:	fb09 4413 	mls	r4, r9, r3, r4
 80004d4:	ea45 4404 	orr.w	r4, r5, r4, lsl #16
 80004d8:	fb03 fe0e 	mul.w	lr, r3, lr
 80004dc:	45a6      	cmp	lr, r4
 80004de:	d908      	bls.n	80004f2 <__udivmoddi4+0x1da>
 80004e0:	eb1c 0404 	adds.w	r4, ip, r4
 80004e4:	f103 35ff 	add.w	r5, r3, #4294967295
 80004e8:	d26c      	bcs.n	80005c4 <__udivmoddi4+0x2ac>
 80004ea:	45a6      	cmp	lr, r4
 80004ec:	d96a      	bls.n	80005c4 <__udivmoddi4+0x2ac>
 80004ee:	3b02      	subs	r3, #2
 80004f0:	4464      	add	r4, ip
 80004f2:	ea43 4308 	orr.w	r3, r3, r8, lsl #16
 80004f6:	fba3 9502 	umull	r9, r5, r3, r2
 80004fa:	eba4 040e 	sub.w	r4, r4, lr
 80004fe:	42ac      	cmp	r4, r5
 8000500:	46c8      	mov	r8, r9
 8000502:	46ae      	mov	lr, r5
 8000504:	d356      	bcc.n	80005b4 <__udivmoddi4+0x29c>
 8000506:	d053      	beq.n	80005b0 <__udivmoddi4+0x298>
 8000508:	b156      	cbz	r6, 8000520 <__udivmoddi4+0x208>
 800050a:	ebb0 0208 	subs.w	r2, r0, r8
 800050e:	eb64 040e 	sbc.w	r4, r4, lr
 8000512:	fa04 f707 	lsl.w	r7, r4, r7
 8000516:	40ca      	lsrs	r2, r1
 8000518:	40cc      	lsrs	r4, r1
 800051a:	4317      	orrs	r7, r2
 800051c:	e9c6 7400 	strd	r7, r4, [r6]
 8000520:	4618      	mov	r0, r3
 8000522:	2100      	movs	r1, #0
 8000524:	e8bd 87f0 	ldmia.w	sp!, {r4, r5, r6, r7, r8, r9, sl, pc}
 8000528:	f1c3 0120 	rsb	r1, r3, #32
 800052c:	fa02 fc03 	lsl.w	ip, r2, r3
 8000530:	fa20 f201 	lsr.w	r2, r0, r1
 8000534:	fa25 f101 	lsr.w	r1, r5, r1
 8000538:	409d      	lsls	r5, r3
 800053a:	432a      	orrs	r2, r5
 800053c:	ea4f 471c 	mov.w	r7, ip, lsr #16
 8000540:	fa1f fe8c 	uxth.w	lr, ip
 8000544:	fbb1 f0f7 	udiv	r0, r1, r7
 8000548:	fb07 1510 	mls	r5, r7, r0, r1
 800054c:	0c11      	lsrs	r1, r2, #16
 800054e:	ea41 4105 	orr.w	r1, r1, r5, lsl #16
 8000552:	fb00 f50e 	mul.w	r5, r0, lr
 8000556:	428d      	cmp	r5, r1
 8000558:	fa04 f403 	lsl.w	r4, r4, r3
 800055c:	d908      	bls.n	8000570 <__udivmoddi4+0x258>
 800055e:	eb1c 0101 	adds.w	r1, ip, r1
 8000562:	f100 38ff 	add.w	r8, r0, #4294967295
 8000566:	d22f      	bcs.n	80005c8 <__udivmoddi4+0x2b0>
 8000568:	428d      	cmp	r5, r1
 800056a:	d92d      	bls.n	80005c8 <__udivmoddi4+0x2b0>
 800056c:	3802      	subs	r0, #2
 800056e:	4461      	add	r1, ip
 8000570:	1b49      	subs	r1, r1, r5
 8000572:	b292      	uxth	r2, r2
 8000574:	fbb1 f5f7 	udiv	r5, r1, r7
 8000578:	fb07 1115 	mls	r1, r7, r5, r1
 800057c:	ea42 4201 	orr.w	r2, r2, r1, lsl #16
 8000580:	fb05 f10e 	mul.w	r1, r5, lr
 8000584:	4291      	cmp	r1, r2
 8000586:	d908      	bls.n	800059a <__udivmoddi4+0x282>
 8000588:	eb1c 0202 	adds.w	r2, ip, r2
 800058c:	f105 38ff 	add.w	r8, r5, #4294967295
 8000590:	d216      	bcs.n	80005c0 <__udivmoddi4+0x2a8>
 8000592:	4291      	cmp	r1, r2
 8000594:	d914      	bls.n	80005c0 <__udivmoddi4+0x2a8>
 8000596:	3d02      	subs	r5, #2
 8000598:	4462      	add	r2, ip
 800059a:	1a52      	subs	r2, r2, r1
 800059c:	ea45 4100 	orr.w	r1, r5, r0, lsl #16
 80005a0:	e738      	b.n	8000414 <__udivmoddi4+0xfc>
 80005a2:	4631      	mov	r1, r6
 80005a4:	4630      	mov	r0, r6
 80005a6:	e708      	b.n	80003ba <__udivmoddi4+0xa2>
 80005a8:	4639      	mov	r1, r7
 80005aa:	e6e6      	b.n	800037a <__udivmoddi4+0x62>
 80005ac:	4610      	mov	r0, r2
 80005ae:	e6fb      	b.n	80003a8 <__udivmoddi4+0x90>
 80005b0:	4548      	cmp	r0, r9
 80005b2:	d2a9      	bcs.n	8000508 <__udivmoddi4+0x1f0>
 80005b4:	ebb9 0802 	subs.w	r8, r9, r2
 80005b8:	eb65 0e0c 	sbc.w	lr, r5, ip
 80005bc:	3b01      	subs	r3, #1
 80005be:	e7a3      	b.n	8000508 <__udivmoddi4+0x1f0>
 80005c0:	4645      	mov	r5, r8
 80005c2:	e7ea      	b.n	800059a <__udivmoddi4+0x282>
 80005c4:	462b      	mov	r3, r5
 80005c6:	e794      	b.n	80004f2 <__udivmoddi4+0x1da>
 80005c8:	4640      	mov	r0, r8
 80005ca:	e7d1      	b.n	8000570 <__udivmoddi4+0x258>
 80005cc:	46d0      	mov	r8, sl
 80005ce:	e77b      	b.n	80004c8 <__udivmoddi4+0x1b0>
 80005d0:	3d02      	subs	r5, #2
 80005d2:	4462      	add	r2, ip
 80005d4:	e732      	b.n	800043c <__udivmoddi4+0x124>
 80005d6:	4608      	mov	r0, r1
 80005d8:	e70a      	b.n	80003f0 <__udivmoddi4+0xd8>
 80005da:	4464      	add	r4, ip
 80005dc:	3802      	subs	r0, #2
 80005de:	e742      	b.n	8000466 <__udivmoddi4+0x14e>

080005e0 <__aeabi_idiv0>:
 80005e0:	4770      	bx	lr
 80005e2:	bf00      	nop

080005e4 <oximeter5_Init>:
 80005e4:	b510      	push	{r4, lr}
 80005e6:	2364      	movs	r3, #100	; 0x64
 80005e8:	2203      	movs	r2, #3
 80005ea:	21ae      	movs	r1, #174	; 0xae
 80005ec:	480a      	ldr	r0, [pc, #40]	; (8000618 <oximeter5_Init+0x34>)
 80005ee:	f002 fe02 	bl	80031f6 <HAL_I2C_IsDeviceReady>
 80005f2:	b170      	cbz	r0, 8000612 <oximeter5_Init+0x2e>
 80005f4:	4909      	ldr	r1, [pc, #36]	; (800061c <oximeter5_Init+0x38>)
 80005f6:	480a      	ldr	r0, [pc, #40]	; (8000620 <oximeter5_Init+0x3c>)
 80005f8:	f006 f91a 	bl	8006830 <strcpy>
 80005fc:	4808      	ldr	r0, [pc, #32]	; (8000620 <oximeter5_Init+0x3c>)
 80005fe:	f7ff fe6b 	bl	80002d8 <strlen>
 8000602:	2364      	movs	r3, #100	; 0x64
 8000604:	b282      	uxth	r2, r0
 8000606:	4906      	ldr	r1, [pc, #24]	; (8000620 <oximeter5_Init+0x3c>)
 8000608:	4806      	ldr	r0, [pc, #24]	; (8000624 <oximeter5_Init+0x40>)
 800060a:	e8bd 4010 	ldmia.w	sp!, {r4, lr}
 800060e:	f005 bd5a 	b.w	80060c6 <HAL_UART_Transmit>
 8000612:	4905      	ldr	r1, [pc, #20]	; (8000628 <oximeter5_Init+0x44>)
 8000614:	e7ef      	b.n	80005f6 <oximeter5_Init+0x12>
 8000616:	bf00      	nop
 8000618:	24000478 	.word	0x24000478
 800061c:	080068c0 	.word	0x080068c0
 8000620:	240000f2 	.word	0x240000f2
 8000624:	24000cdc 	.word	0x24000cdc
 8000628:	080068d3 	.word	0x080068d3

0800062c <SystemClock_Config>:
 800062c:	b510      	push	{r4, lr}
 800062e:	b09c      	sub	sp, #112	; 0x70
 8000630:	224c      	movs	r2, #76	; 0x4c
 8000632:	2100      	movs	r1, #0
 8000634:	a809      	add	r0, sp, #36	; 0x24
 8000636:	f006 f8cf 	bl	80067d8 <memset>
 800063a:	2220      	movs	r2, #32
 800063c:	2100      	movs	r1, #0
 800063e:	a801      	add	r0, sp, #4
 8000640:	f006 f8ca 	bl	80067d8 <memset>
 8000644:	2002      	movs	r0, #2
 8000646:	f003 f877 	bl	8003738 <HAL_PWREx_ConfigSupply>
 800064a:	2300      	movs	r3, #0
 800064c:	9300      	str	r3, [sp, #0]
 800064e:	4b28      	ldr	r3, [pc, #160]	; (80006f0 <SystemClock_Config+0xc4>)
 8000650:	6ada      	ldr	r2, [r3, #44]	; 0x2c
 8000652:	f022 0201 	bic.w	r2, r2, #1
 8000656:	62da      	str	r2, [r3, #44]	; 0x2c
 8000658:	6adb      	ldr	r3, [r3, #44]	; 0x2c
 800065a:	4a26      	ldr	r2, [pc, #152]	; (80006f4 <SystemClock_Config+0xc8>)
 800065c:	f003 0301 	and.w	r3, r3, #1
 8000660:	9300      	str	r3, [sp, #0]
 8000662:	6993      	ldr	r3, [r2, #24]
 8000664:	f423 4340 	bic.w	r3, r3, #49152	; 0xc000
 8000668:	f443 4300 	orr.w	r3, r3, #32768	; 0x8000
 800066c:	6193      	str	r3, [r2, #24]
 800066e:	6993      	ldr	r3, [r2, #24]
 8000670:	f403 4340 	and.w	r3, r3, #49152	; 0xc000
 8000674:	9300      	str	r3, [sp, #0]
 8000676:	9b00      	ldr	r3, [sp, #0]
 8000678:	6993      	ldr	r3, [r2, #24]
 800067a:	0498      	lsls	r0, r3, #18
 800067c:	d5fc      	bpl.n	8000678 <SystemClock_Config+0x4c>
 800067e:	4a1e      	ldr	r2, [pc, #120]	; (80006f8 <SystemClock_Config+0xcc>)
 8000680:	2401      	movs	r4, #1
 8000682:	2116      	movs	r1, #22
 8000684:	a809      	add	r0, sp, #36	; 0x24
 8000686:	6a93      	ldr	r3, [r2, #40]	; 0x28
 8000688:	f023 0303 	bic.w	r3, r3, #3
 800068c:	f043 0302 	orr.w	r3, r3, #2
 8000690:	6293      	str	r3, [r2, #40]	; 0x28
 8000692:	220b      	movs	r2, #11
 8000694:	f44f 23a0 	mov.w	r3, #327680	; 0x50000
 8000698:	940e      	str	r4, [sp, #56]	; 0x38
 800069a:	e9cd 2309 	strd	r2, r3, [sp, #36]	; 0x24
 800069e:	2340      	movs	r3, #64	; 0x40
 80006a0:	22a9      	movs	r2, #169	; 0xa9
 80006a2:	e9cd 430c 	strd	r4, r3, [sp, #48]	; 0x30
 80006a6:	e9cd 1214 	strd	r1, r2, [sp, #80]	; 0x50
 80006aa:	2302      	movs	r3, #2
 80006ac:	2204      	movs	r2, #4
 80006ae:	e9cd 3312 	strd	r3, r3, [sp, #72]	; 0x48
 80006b2:	9316      	str	r3, [sp, #88]	; 0x58
 80006b4:	e9cd 2317 	strd	r2, r3, [sp, #92]	; 0x5c
 80006b8:	2300      	movs	r3, #0
 80006ba:	e9cd 3319 	strd	r3, r3, [sp, #100]	; 0x64
 80006be:	931b      	str	r3, [sp, #108]	; 0x6c
 80006c0:	f003 f8dc 	bl	800387c <HAL_RCC_OscConfig>
 80006c4:	b108      	cbz	r0, 80006ca <SystemClock_Config+0x9e>
 80006c6:	b672      	cpsid	i
 80006c8:	e7fe      	b.n	80006c8 <SystemClock_Config+0x9c>
 80006ca:	233f      	movs	r3, #63	; 0x3f
 80006cc:	4621      	mov	r1, r4
 80006ce:	e9cd 3001 	strd	r3, r0, [sp, #4]
 80006d2:	e9cd 0003 	strd	r0, r0, [sp, #12]
 80006d6:	e9cd 0005 	strd	r0, r0, [sp, #20]
 80006da:	e9cd 0007 	strd	r0, r0, [sp, #28]
 80006de:	a801      	add	r0, sp, #4
 80006e0:	f003 fc1a 	bl	8003f18 <HAL_RCC_ClockConfig>
 80006e4:	b108      	cbz	r0, 80006ea <SystemClock_Config+0xbe>
 80006e6:	b672      	cpsid	i
 80006e8:	e7fe      	b.n	80006e8 <SystemClock_Config+0xbc>
 80006ea:	b01c      	add	sp, #112	; 0x70
 80006ec:	bd10      	pop	{r4, pc}
 80006ee:	bf00      	nop
 80006f0:	58000400 	.word	0x58000400
 80006f4:	58024800 	.word	0x58024800
 80006f8:	58024400 	.word	0x58024400

080006fc <PeriphCommonClock_Config>:
 80006fc:	b500      	push	{lr}
 80006fe:	b0b1      	sub	sp, #196	; 0xc4
 8000700:	229c      	movs	r2, #156	; 0x9c
 8000702:	2100      	movs	r1, #0
 8000704:	a809      	add	r0, sp, #36	; 0x24
 8000706:	f006 f867 	bl	80067d8 <memset>
 800070a:	f44f 2200 	mov.w	r2, #524288	; 0x80000
 800070e:	2300      	movs	r3, #0
 8000710:	4668      	mov	r0, sp
 8000712:	e9cd 2300 	strd	r2, r3, [sp]
 8000716:	2302      	movs	r3, #2
 8000718:	220c      	movs	r2, #12
 800071a:	e9cd 3202 	strd	r3, r2, [sp, #8]
 800071e:	2205      	movs	r2, #5
 8000720:	9306      	str	r3, [sp, #24]
 8000722:	e9cd 2304 	strd	r2, r3, [sp, #16]
 8000726:	22c0      	movs	r2, #192	; 0xc0
 8000728:	2320      	movs	r3, #32
 800072a:	e9cd 2307 	strd	r2, r3, [sp, #28]
 800072e:	f003 fe4f 	bl	80043d0 <HAL_RCCEx_PeriphCLKConfig>
 8000732:	b108      	cbz	r0, 8000738 <PeriphCommonClock_Config+0x3c>
 8000734:	b672      	cpsid	i
 8000736:	e7fe      	b.n	8000736 <PeriphCommonClock_Config+0x3a>
 8000738:	b031      	add	sp, #196	; 0xc4
 800073a:	f85d fb04 	ldr.w	pc, [sp], #4
	...

08000740 <main>:
 8000740:	e92d 4ff0 	stmdb	sp!, {r4, r5, r6, r7, r8, r9, sl, fp, lr}
 8000744:	b0a9      	sub	sp, #164	; 0xa4
 8000746:	2702      	movs	r7, #2
 8000748:	f001 fae8 	bl	8001d1c <HAL_Init>
 800074c:	2400      	movs	r4, #0
 800074e:	f7ff ff6d 	bl	800062c <SystemClock_Config>
 8000752:	f04f 0a80 	mov.w	sl, #128	; 0x80
 8000756:	f7ff ffd1 	bl	80006fc <PeriphCommonClock_Config>
 800075a:	2214      	movs	r2, #20
 800075c:	2100      	movs	r1, #0
 800075e:	a81b      	add	r0, sp, #108	; 0x6c
 8000760:	f006 f83a 	bl	80067d8 <memset>
 8000764:	4bc8      	ldr	r3, [pc, #800]	; (8000a88 <main+0x348>)
 8000766:	f44f 5100 	mov.w	r1, #8192	; 0x2000
 800076a:	48c8      	ldr	r0, [pc, #800]	; (8000a8c <main+0x34c>)
 800076c:	f8d3 20e0 	ldr.w	r2, [r3, #224]	; 0xe0
 8000770:	f44f 5600 	mov.w	r6, #8192	; 0x2000
 8000774:	2501      	movs	r5, #1
 8000776:	f04f 0906 	mov.w	r9, #6
 800077a:	f442 7280 	orr.w	r2, r2, #256	; 0x100
 800077e:	f44f 1888 	mov.w	r8, #1114112	; 0x110000
 8000782:	f44f 2b80 	mov.w	fp, #262144	; 0x40000
 8000786:	f8c3 20e0 	str.w	r2, [r3, #224]	; 0xe0
 800078a:	f8d3 20e0 	ldr.w	r2, [r3, #224]	; 0xe0
 800078e:	f402 7280 	and.w	r2, r2, #256	; 0x100
 8000792:	9203      	str	r2, [sp, #12]
 8000794:	9a03      	ldr	r2, [sp, #12]
 8000796:	f8d3 20e0 	ldr.w	r2, [r3, #224]	; 0xe0
 800079a:	f042 0202 	orr.w	r2, r2, #2
 800079e:	f8c3 20e0 	str.w	r2, [r3, #224]	; 0xe0
 80007a2:	f8d3 20e0 	ldr.w	r2, [r3, #224]	; 0xe0
 80007a6:	f002 0202 	and.w	r2, r2, #2
 80007aa:	9204      	str	r2, [sp, #16]
 80007ac:	9a04      	ldr	r2, [sp, #16]
 80007ae:	f8d3 20e0 	ldr.w	r2, [r3, #224]	; 0xe0
 80007b2:	f442 6280 	orr.w	r2, r2, #1024	; 0x400
 80007b6:	f8c3 20e0 	str.w	r2, [r3, #224]	; 0xe0
 80007ba:	f8d3 20e0 	ldr.w	r2, [r3, #224]	; 0xe0
 80007be:	f402 6280 	and.w	r2, r2, #1024	; 0x400
 80007c2:	9205      	str	r2, [sp, #20]
 80007c4:	9a05      	ldr	r2, [sp, #20]
 80007c6:	f8d3 20e0 	ldr.w	r2, [r3, #224]	; 0xe0
 80007ca:	f042 0240 	orr.w	r2, r2, #64	; 0x40
 80007ce:	f8c3 20e0 	str.w	r2, [r3, #224]	; 0xe0
 80007d2:	f8d3 20e0 	ldr.w	r2, [r3, #224]	; 0xe0
 80007d6:	f002 0240 	and.w	r2, r2, #64	; 0x40
 80007da:	9206      	str	r2, [sp, #24]
 80007dc:	9a06      	ldr	r2, [sp, #24]
 80007de:	f8d3 20e0 	ldr.w	r2, [r3, #224]	; 0xe0
 80007e2:	f042 0204 	orr.w	r2, r2, #4
 80007e6:	f8c3 20e0 	str.w	r2, [r3, #224]	; 0xe0
 80007ea:	f8d3 20e0 	ldr.w	r2, [r3, #224]	; 0xe0
 80007ee:	f002 0204 	and.w	r2, r2, #4
 80007f2:	9207      	str	r2, [sp, #28]
 80007f4:	9a07      	ldr	r2, [sp, #28]
 80007f6:	f8d3 20e0 	ldr.w	r2, [r3, #224]	; 0xe0
 80007fa:	f042 0201 	orr.w	r2, r2, #1
 80007fe:	f8c3 20e0 	str.w	r2, [r3, #224]	; 0xe0
 8000802:	f8d3 20e0 	ldr.w	r2, [r3, #224]	; 0xe0
 8000806:	f002 0201 	and.w	r2, r2, #1
 800080a:	9208      	str	r2, [sp, #32]
 800080c:	9a08      	ldr	r2, [sp, #32]
 800080e:	f8d3 20e0 	ldr.w	r2, [r3, #224]	; 0xe0
 8000812:	f042 0210 	orr.w	r2, r2, #16
 8000816:	f8c3 20e0 	str.w	r2, [r3, #224]	; 0xe0
 800081a:	f8d3 20e0 	ldr.w	r2, [r3, #224]	; 0xe0
 800081e:	f002 0210 	and.w	r2, r2, #16
 8000822:	9209      	str	r2, [sp, #36]	; 0x24
 8000824:	9a09      	ldr	r2, [sp, #36]	; 0x24
 8000826:	f8d3 20e0 	ldr.w	r2, [r3, #224]	; 0xe0
 800082a:	f442 7200 	orr.w	r2, r2, #512	; 0x200
 800082e:	f8c3 20e0 	str.w	r2, [r3, #224]	; 0xe0
 8000832:	f8d3 20e0 	ldr.w	r2, [r3, #224]	; 0xe0
 8000836:	f402 7200 	and.w	r2, r2, #512	; 0x200
 800083a:	920a      	str	r2, [sp, #40]	; 0x28
 800083c:	9a0a      	ldr	r2, [sp, #40]	; 0x28
 800083e:	f8d3 20e0 	ldr.w	r2, [r3, #224]	; 0xe0
 8000842:	f042 0208 	orr.w	r2, r2, #8
 8000846:	f8c3 20e0 	str.w	r2, [r3, #224]	; 0xe0
 800084a:	f8d3 20e0 	ldr.w	r2, [r3, #224]	; 0xe0
 800084e:	f002 0208 	and.w	r2, r2, #8
 8000852:	920b      	str	r2, [sp, #44]	; 0x2c
 8000854:	9a0b      	ldr	r2, [sp, #44]	; 0x2c
 8000856:	f8d3 20e0 	ldr.w	r2, [r3, #224]	; 0xe0
 800085a:	f042 0280 	orr.w	r2, r2, #128	; 0x80
 800085e:	f8c3 20e0 	str.w	r2, [r3, #224]	; 0xe0
 8000862:	f8d3 20e0 	ldr.w	r2, [r3, #224]	; 0xe0
 8000866:	f002 0280 	and.w	r2, r2, #128	; 0x80
 800086a:	920c      	str	r2, [sp, #48]	; 0x30
 800086c:	9a0c      	ldr	r2, [sp, #48]	; 0x30
 800086e:	f8d3 20e0 	ldr.w	r2, [r3, #224]	; 0xe0
 8000872:	f042 0220 	orr.w	r2, r2, #32
 8000876:	f8c3 20e0 	str.w	r2, [r3, #224]	; 0xe0
 800087a:	2200      	movs	r2, #0
 800087c:	f8d3 30e0 	ldr.w	r3, [r3, #224]	; 0xe0
 8000880:	f003 0320 	and.w	r3, r3, #32
 8000884:	930d      	str	r3, [sp, #52]	; 0x34
 8000886:	9b0d      	ldr	r3, [sp, #52]	; 0x34
 8000888:	f002 fc2c 	bl	80030e4 <HAL_GPIO_WritePin>
 800088c:	2200      	movs	r2, #0
 800088e:	f241 0104 	movw	r1, #4100	; 0x1004
 8000892:	487f      	ldr	r0, [pc, #508]	; (8000a90 <main+0x350>)
 8000894:	f002 fc26 	bl	80030e4 <HAL_GPIO_WritePin>
 8000898:	2200      	movs	r2, #0
 800089a:	2104      	movs	r1, #4
 800089c:	487d      	ldr	r0, [pc, #500]	; (8000a94 <main+0x354>)
 800089e:	f002 fc21 	bl	80030e4 <HAL_GPIO_WritePin>
 80008a2:	f44f 4300 	mov.w	r3, #32768	; 0x8000
 80008a6:	a91b      	add	r1, sp, #108	; 0x6c
 80008a8:	487b      	ldr	r0, [pc, #492]	; (8000a98 <main+0x358>)
 80008aa:	e9cd 371b 	strd	r3, r7, [sp, #108]	; 0x6c
 80008ae:	2303      	movs	r3, #3
 80008b0:	e9cd 441d 	strd	r4, r4, [sp, #116]	; 0x74
 80008b4:	931f      	str	r3, [sp, #124]	; 0x7c
 80008b6:	f002 fb2b 	bl	8002f10 <HAL_GPIO_Init>
 80008ba:	a91b      	add	r1, sp, #108	; 0x6c
 80008bc:	4877      	ldr	r0, [pc, #476]	; (8000a9c <main+0x35c>)
 80008be:	941d      	str	r4, [sp, #116]	; 0x74
 80008c0:	e9cd a41b 	strd	sl, r4, [sp, #108]	; 0x6c
 80008c4:	f002 fb24 	bl	8002f10 <HAL_GPIO_Init>
 80008c8:	2330      	movs	r3, #48	; 0x30
 80008ca:	a91b      	add	r1, sp, #108	; 0x6c
 80008cc:	4874      	ldr	r0, [pc, #464]	; (8000aa0 <main+0x360>)
 80008ce:	e9cd 371b 	strd	r3, r7, [sp, #108]	; 0x6c
 80008d2:	230a      	movs	r3, #10
 80008d4:	e9cd 441d 	strd	r4, r4, [sp, #116]	; 0x74
 80008d8:	931f      	str	r3, [sp, #124]	; 0x7c
 80008da:	f002 fb19 	bl	8002f10 <HAL_GPIO_Init>
 80008de:	f44f 6384 	mov.w	r3, #1056	; 0x420
 80008e2:	a91b      	add	r1, sp, #108	; 0x6c
 80008e4:	486f      	ldr	r0, [pc, #444]	; (8000aa4 <main+0x364>)
 80008e6:	941d      	str	r4, [sp, #116]	; 0x74
 80008e8:	e9cd 341b 	strd	r3, r4, [sp, #108]	; 0x6c
 80008ec:	f002 fb10 	bl	8002f10 <HAL_GPIO_Init>
 80008f0:	a91b      	add	r1, sp, #108	; 0x6c
 80008f2:	486d      	ldr	r0, [pc, #436]	; (8000aa8 <main+0x368>)
 80008f4:	941d      	str	r4, [sp, #116]	; 0x74
 80008f6:	e9cd 641b 	strd	r6, r4, [sp, #108]	; 0x6c
 80008fa:	f002 fb09 	bl	8002f10 <HAL_GPIO_Init>
 80008fe:	f44f 7380 	mov.w	r3, #256	; 0x100
 8000902:	a91b      	add	r1, sp, #108	; 0x6c
 8000904:	4867      	ldr	r0, [pc, #412]	; (8000aa4 <main+0x364>)
 8000906:	951f      	str	r5, [sp, #124]	; 0x7c
 8000908:	e9cd 371b 	strd	r3, r7, [sp, #108]	; 0x6c
 800090c:	e9cd 441d 	strd	r4, r4, [sp, #116]	; 0x74
 8000910:	f002 fafe 	bl	8002f10 <HAL_GPIO_Init>
 8000914:	a91b      	add	r1, sp, #108	; 0x6c
 8000916:	4865      	ldr	r0, [pc, #404]	; (8000aac <main+0x36c>)
 8000918:	f8cd 907c 	str.w	r9, [sp, #124]	; 0x7c
 800091c:	e9cd a71b 	strd	sl, r7, [sp, #108]	; 0x6c
 8000920:	e9cd 441d 	strd	r4, r4, [sp, #116]	; 0x74
 8000924:	f002 faf4 	bl	8002f10 <HAL_GPIO_Init>
 8000928:	a91b      	add	r1, sp, #108	; 0x6c
 800092a:	4858      	ldr	r0, [pc, #352]	; (8000a8c <main+0x34c>)
 800092c:	e9cd 651b 	strd	r6, r5, [sp, #108]	; 0x6c
 8000930:	2604      	movs	r6, #4
 8000932:	e9cd 441d 	strd	r4, r4, [sp, #116]	; 0x74
 8000936:	f002 faeb 	bl	8002f10 <HAL_GPIO_Init>
 800093a:	a91b      	add	r1, sp, #108	; 0x6c
 800093c:	485b      	ldr	r0, [pc, #364]	; (8000aac <main+0x36c>)
 800093e:	941d      	str	r4, [sp, #116]	; 0x74
 8000940:	e9cd 681b 	strd	r6, r8, [sp, #108]	; 0x6c
 8000944:	f002 fae4 	bl	8002f10 <HAL_GPIO_Init>
 8000948:	a91b      	add	r1, sp, #108	; 0x6c
 800094a:	4859      	ldr	r0, [pc, #356]	; (8000ab0 <main+0x370>)
 800094c:	941d      	str	r4, [sp, #116]	; 0x74
 800094e:	e9cd 541b 	strd	r5, r4, [sp, #108]	; 0x6c
 8000952:	f002 fadd 	bl	8002f10 <HAL_GPIO_Init>
 8000956:	f44f 6300 	mov.w	r3, #2048	; 0x800
 800095a:	a91b      	add	r1, sp, #108	; 0x6c
 800095c:	484e      	ldr	r0, [pc, #312]	; (8000a98 <main+0x358>)
 800095e:	941d      	str	r4, [sp, #116]	; 0x74
 8000960:	e9cd 381b 	strd	r3, r8, [sp, #108]	; 0x6c
 8000964:	f002 fad4 	bl	8002f10 <HAL_GPIO_Init>
 8000968:	2340      	movs	r3, #64	; 0x40
 800096a:	a91b      	add	r1, sp, #108	; 0x6c
 800096c:	484d      	ldr	r0, [pc, #308]	; (8000aa4 <main+0x364>)
 800096e:	f8df 814c 	ldr.w	r8, [pc, #332]	; 8000abc <main+0x37c>
 8000972:	e9cd 371b 	strd	r3, r7, [sp, #108]	; 0x6c
 8000976:	2309      	movs	r3, #9
 8000978:	e9cd 441d 	strd	r4, r4, [sp, #116]	; 0x74
 800097c:	931f      	str	r3, [sp, #124]	; 0x7c
 800097e:	f002 fac7 	bl	8002f10 <HAL_GPIO_Init>
 8000982:	f241 0304 	movw	r3, #4100	; 0x1004
 8000986:	a91b      	add	r1, sp, #108	; 0x6c
 8000988:	4841      	ldr	r0, [pc, #260]	; (8000a90 <main+0x350>)
 800098a:	e9cd 351b 	strd	r3, r5, [sp, #108]	; 0x6c
 800098e:	e9cd 441d 	strd	r4, r4, [sp, #116]	; 0x74
 8000992:	f002 fabd 	bl	8002f10 <HAL_GPIO_Init>
 8000996:	a91b      	add	r1, sp, #108	; 0x6c
 8000998:	483e      	ldr	r0, [pc, #248]	; (8000a94 <main+0x354>)
 800099a:	e9cd 651b 	strd	r6, r5, [sp, #108]	; 0x6c
 800099e:	e9cd 441d 	strd	r4, r4, [sp, #116]	; 0x74
 80009a2:	f002 fab5 	bl	8002f10 <HAL_GPIO_Init>
 80009a6:	221c      	movs	r2, #28
 80009a8:	4621      	mov	r1, r4
 80009aa:	a81b      	add	r0, sp, #108	; 0x6c
 80009ac:	9410      	str	r4, [sp, #64]	; 0x40
 80009ae:	e9cd 440e 	strd	r4, r4, [sp, #56]	; 0x38
 80009b2:	f005 ff11 	bl	80067d8 <memset>
 80009b6:	4b3f      	ldr	r3, [pc, #252]	; (8000ab4 <main+0x374>)
 80009b8:	4640      	mov	r0, r8
 80009ba:	f8a8 4014 	strh.w	r4, [r8, #20]
 80009be:	f8c8 6010 	str.w	r6, [r8, #16]
 80009c2:	f8c8 5018 	str.w	r5, [r8, #24]
 80009c6:	f888 401c 	strb.w	r4, [r8, #28]
 80009ca:	f8c8 4034 	str.w	r4, [r8, #52]	; 0x34
 80009ce:	f888 4038 	strb.w	r4, [r8, #56]	; 0x38
 80009d2:	e9c8 3b00 	strd	r3, fp, [r8]
 80009d6:	e9c8 4402 	strd	r4, r4, [r8, #8]
 80009da:	e9c8 4409 	strd	r4, r4, [r8, #36]	; 0x24
 80009de:	e9c8 440b 	strd	r4, r4, [r8, #44]	; 0x2c
 80009e2:	f001 fc87 	bl	80022f4 <HAL_ADC_Init>
 80009e6:	b108      	cbz	r0, 80009ec <main+0x2ac>
 80009e8:	b672      	cpsid	i
 80009ea:	e7fe      	b.n	80009ea <main+0x2aa>
 80009ec:	900e      	str	r0, [sp, #56]	; 0x38
 80009ee:	a90e      	add	r1, sp, #56	; 0x38
 80009f0:	4640      	mov	r0, r8
 80009f2:	f001 fd93 	bl	800251c <HAL_ADCEx_MultiModeConfigChannel>
 80009f6:	b108      	cbz	r0, 80009fc <main+0x2bc>
 80009f8:	b672      	cpsid	i
 80009fa:	e7fe      	b.n	80009fa <main+0x2ba>
 80009fc:	f240 74ff 	movw	r4, #2047	; 0x7ff
 8000a00:	a91b      	add	r1, sp, #108	; 0x6c
 8000a02:	901d      	str	r0, [sp, #116]	; 0x74
 8000a04:	9020      	str	r0, [sp, #128]	; 0x80
 8000a06:	f88d 0085 	strb.w	r0, [sp, #133]	; 0x85
 8000a0a:	4640      	mov	r0, r8
 8000a0c:	e9cd 591b 	strd	r5, r9, [sp, #108]	; 0x6c
 8000a10:	e9cd 461e 	strd	r4, r6, [sp, #120]	; 0x78
 8000a14:	f001 fa06 	bl	8001e24 <HAL_ADC_ConfigChannel>
 8000a18:	4601      	mov	r1, r0
 8000a1a:	b108      	cbz	r0, 8000a20 <main+0x2e0>
 8000a1c:	b672      	cpsid	i
 8000a1e:	e7fe      	b.n	8000a1e <main+0x2de>
 8000a20:	9001      	str	r0, [sp, #4]
 8000a22:	221c      	movs	r2, #28
 8000a24:	a81b      	add	r0, sp, #108	; 0x6c
 8000a26:	f8df 8098 	ldr.w	r8, [pc, #152]	; 8000ac0 <main+0x380>
 8000a2a:	f005 fed5 	bl	80067d8 <memset>
 8000a2e:	9901      	ldr	r1, [sp, #4]
 8000a30:	4b21      	ldr	r3, [pc, #132]	; (8000ab8 <main+0x378>)
 8000a32:	4640      	mov	r0, r8
 8000a34:	f8a8 1014 	strh.w	r1, [r8, #20]
 8000a38:	f8c8 6010 	str.w	r6, [r8, #16]
 8000a3c:	f8c8 5018 	str.w	r5, [r8, #24]
 8000a40:	f888 101c 	strb.w	r1, [r8, #28]
 8000a44:	f8c8 1034 	str.w	r1, [r8, #52]	; 0x34
 8000a48:	f888 1038 	strb.w	r1, [r8, #56]	; 0x38
 8000a4c:	e9c8 3b00 	strd	r3, fp, [r8]
 8000a50:	e9c8 1102 	strd	r1, r1, [r8, #8]
 8000a54:	e9c8 1109 	strd	r1, r1, [r8, #36]	; 0x24
 8000a58:	e9c8 110b 	strd	r1, r1, [r8, #44]	; 0x2c
 8000a5c:	f001 fc4a 	bl	80022f4 <HAL_ADC_Init>
 8000a60:	b108      	cbz	r0, 8000a66 <main+0x326>
 8000a62:	b672      	cpsid	i
 8000a64:	e7fe      	b.n	8000a64 <main+0x324>
 8000a66:	a91b      	add	r1, sp, #108	; 0x6c
 8000a68:	f88d 0085 	strb.w	r0, [sp, #133]	; 0x85
 8000a6c:	e9cd 041d 	strd	r0, r4, [sp, #116]	; 0x74
 8000a70:	e9cd 601f 	strd	r6, r0, [sp, #124]	; 0x7c
 8000a74:	4640      	mov	r0, r8
 8000a76:	e9cd 591b 	strd	r5, r9, [sp, #108]	; 0x6c
 8000a7a:	f001 f9d3 	bl	8001e24 <HAL_ADC_ConfigChannel>
 8000a7e:	4601      	mov	r1, r0
 8000a80:	b300      	cbz	r0, 8000ac4 <main+0x384>
 8000a82:	b672      	cpsid	i
 8000a84:	e7fe      	b.n	8000a84 <main+0x344>
 8000a86:	bf00      	nop
 8000a88:	58024400 	.word	0x58024400
 8000a8c:	58022000 	.word	0x58022000
 8000a90:	58020400 	.word	0x58020400
 8000a94:	58022400 	.word	0x58022400
 8000a98:	58021c00 	.word	0x58021c00
 8000a9c:	58020c00 	.word	0x58020c00
 8000aa0:	58021000 	.word	0x58021000
 8000aa4:	58020000 	.word	0x58020000
 8000aa8:	58020800 	.word	0x58020800
 8000aac:	58021800 	.word	0x58021800
 8000ab0:	58022800 	.word	0x58022800
 8000ab4:	40022000 	.word	0x40022000
 8000ab8:	40022100 	.word	0x40022100
 8000abc:	2400015c 	.word	0x2400015c
 8000ac0:	240001c0 	.word	0x240001c0
 8000ac4:	9001      	str	r0, [sp, #4]
 8000ac6:	221c      	movs	r2, #28
 8000ac8:	a81b      	add	r0, sp, #108	; 0x6c
 8000aca:	f8df 833c 	ldr.w	r8, [pc, #828]	; 8000e08 <main+0x6c8>
 8000ace:	f005 fe83 	bl	80067d8 <memset>
 8000ad2:	9901      	ldr	r1, [sp, #4]
 8000ad4:	4bb6      	ldr	r3, [pc, #728]	; (8000db0 <main+0x670>)
 8000ad6:	4640      	mov	r0, r8
 8000ad8:	f8a8 1014 	strh.w	r1, [r8, #20]
 8000adc:	f8c8 3000 	str.w	r3, [r8]
 8000ae0:	f8c8 6010 	str.w	r6, [r8, #16]
 8000ae4:	f8c8 5018 	str.w	r5, [r8, #24]
 8000ae8:	f888 101c 	strb.w	r1, [r8, #28]
 8000aec:	f8c8 1034 	str.w	r1, [r8, #52]	; 0x34
 8000af0:	f888 1038 	strb.w	r1, [r8, #56]	; 0x38
 8000af4:	e9c8 1102 	strd	r1, r1, [r8, #8]
 8000af8:	e9c8 1109 	strd	r1, r1, [r8, #36]	; 0x24
 8000afc:	e9c8 110b 	strd	r1, r1, [r8, #44]	; 0x2c
 8000b00:	f001 fbf8 	bl	80022f4 <HAL_ADC_Init>
 8000b04:	b108      	cbz	r0, 8000b0a <main+0x3ca>
 8000b06:	b672      	cpsid	i
 8000b08:	e7fe      	b.n	8000b08 <main+0x3c8>
 8000b0a:	4baa      	ldr	r3, [pc, #680]	; (8000db4 <main+0x674>)
 8000b0c:	a91b      	add	r1, sp, #108	; 0x6c
 8000b0e:	f88d 0085 	strb.w	r0, [sp, #133]	; 0x85
 8000b12:	e9cd 041d 	strd	r0, r4, [sp, #116]	; 0x74
 8000b16:	e9cd 601f 	strd	r6, r0, [sp, #124]	; 0x7c
 8000b1a:	4640      	mov	r0, r8
 8000b1c:	e9cd 391b 	strd	r3, r9, [sp, #108]	; 0x6c
 8000b20:	f001 f980 	bl	8001e24 <HAL_ADC_ConfigChannel>
 8000b24:	b108      	cbz	r0, 8000b2a <main+0x3ea>
 8000b26:	b672      	cpsid	i
 8000b28:	e7fe      	b.n	8000b28 <main+0x3e8>
 8000b2a:	4ba3      	ldr	r3, [pc, #652]	; (8000db8 <main+0x678>)
 8000b2c:	21e1      	movs	r1, #225	; 0xe1
 8000b2e:	4aa3      	ldr	r2, [pc, #652]	; (8000dbc <main+0x67c>)
 8000b30:	7218      	strb	r0, [r3, #8]
 8000b32:	601a      	str	r2, [r3, #0]
 8000b34:	4aa2      	ldr	r2, [pc, #648]	; (8000dc0 <main+0x680>)
 8000b36:	7010      	strb	r0, [r2, #0]
 8000b38:	70d0      	strb	r0, [r2, #3]
 8000b3a:	7110      	strb	r0, [r2, #4]
 8000b3c:	7150      	strb	r0, [r2, #5]
 8000b3e:	4618      	mov	r0, r3
 8000b40:	f882 a001 	strb.w	sl, [r2, #1]
 8000b44:	7091      	strb	r1, [r2, #2]
 8000b46:	605a      	str	r2, [r3, #4]
 8000b48:	4a9e      	ldr	r2, [pc, #632]	; (8000dc4 <main+0x684>)
 8000b4a:	60da      	str	r2, [r3, #12]
 8000b4c:	4a9e      	ldr	r2, [pc, #632]	; (8000dc8 <main+0x688>)
 8000b4e:	611a      	str	r2, [r3, #16]
 8000b50:	f240 52f4 	movw	r2, #1524	; 0x5f4
 8000b54:	615a      	str	r2, [r3, #20]
 8000b56:	f001 fee1 	bl	800291c <HAL_ETH_Init>
 8000b5a:	4604      	mov	r4, r0
 8000b5c:	b108      	cbz	r0, 8000b62 <main+0x422>
 8000b5e:	b672      	cpsid	i
 8000b60:	e7fe      	b.n	8000b60 <main+0x420>
 8000b62:	f8df 82a8 	ldr.w	r8, [pc, #680]	; 8000e0c <main+0x6cc>
 8000b66:	4601      	mov	r1, r0
 8000b68:	2234      	movs	r2, #52	; 0x34
 8000b6a:	f108 0004 	add.w	r0, r8, #4
 8000b6e:	f005 fe33 	bl	80067d8 <memset>
 8000b72:	2321      	movs	r3, #33	; 0x21
 8000b74:	4895      	ldr	r0, [pc, #596]	; (8000dcc <main+0x68c>)
 8000b76:	f8c8 3000 	str.w	r3, [r8]
 8000b7a:	f44f 3340 	mov.w	r3, #196608	; 0x30000
 8000b7e:	8204      	strh	r4, [r0, #16]
 8000b80:	f8c8 3014 	str.w	r3, [r8, #20]
 8000b84:	f04f 0810 	mov.w	r8, #16
 8000b88:	4b91      	ldr	r3, [pc, #580]	; (8000dd0 <main+0x690>)
 8000b8a:	7484      	strb	r4, [r0, #18]
 8000b8c:	6003      	str	r3, [r0, #0]
 8000b8e:	e9c0 4402 	strd	r4, r4, [r0, #8]
 8000b92:	e9c0 8505 	strd	r8, r5, [r0, #20]
 8000b96:	e9c0 7707 	strd	r7, r7, [r0, #28]
 8000b9a:	e9c0 5509 	strd	r5, r5, [r0, #36]	; 0x24
 8000b9e:	e9c0 550b 	strd	r5, r5, [r0, #44]	; 0x2c
 8000ba2:	e9c0 440d 	strd	r4, r4, [r0, #52]	; 0x34
 8000ba6:	e9c0 440f 	strd	r4, r4, [r0, #60]	; 0x3c
 8000baa:	e9c0 6411 	strd	r6, r4, [r0, #68]	; 0x44
 8000bae:	e9c0 6413 	strd	r6, r4, [r0, #76]	; 0x4c
 8000bb2:	e9c0 6415 	strd	r6, r4, [r0, #84]	; 0x54
 8000bb6:	e9c0 4417 	strd	r4, r4, [r0, #92]	; 0x5c
 8000bba:	e9c0 4619 	strd	r4, r6, [r0, #100]	; 0x64
 8000bbe:	f001 ffbb 	bl	8002b38 <HAL_FDCAN_Init>
 8000bc2:	b108      	cbz	r0, 8000bc8 <main+0x488>
 8000bc4:	b672      	cpsid	i
 8000bc6:	e7fe      	b.n	8000bc6 <main+0x486>
 8000bc8:	4b82      	ldr	r3, [pc, #520]	; (8000dd4 <main+0x694>)
 8000bca:	4a83      	ldr	r2, [pc, #524]	; (8000dd8 <main+0x698>)
 8000bcc:	8218      	strh	r0, [r3, #16]
 8000bce:	7498      	strb	r0, [r3, #18]
 8000bd0:	601a      	str	r2, [r3, #0]
 8000bd2:	e9c3 0002 	strd	r0, r0, [r3, #8]
 8000bd6:	e9c3 000d 	strd	r0, r0, [r3, #52]	; 0x34
 8000bda:	e9c3 000f 	strd	r0, r0, [r3, #60]	; 0x3c
 8000bde:	e9c3 6011 	strd	r6, r0, [r3, #68]	; 0x44
 8000be2:	e9c3 6013 	strd	r6, r0, [r3, #76]	; 0x4c
 8000be6:	e9c3 6015 	strd	r6, r0, [r3, #84]	; 0x54
 8000bea:	e9c3 0017 	strd	r0, r0, [r3, #92]	; 0x5c
 8000bee:	e9c3 0619 	strd	r0, r6, [r3, #100]	; 0x64
 8000bf2:	4618      	mov	r0, r3
 8000bf4:	e9c3 8505 	strd	r8, r5, [r3, #20]
 8000bf8:	e9c3 7707 	strd	r7, r7, [r3, #28]
 8000bfc:	e9c3 5509 	strd	r5, r5, [r3, #36]	; 0x24
 8000c00:	e9c3 550b 	strd	r5, r5, [r3, #44]	; 0x2c
 8000c04:	f001 ff98 	bl	8002b38 <HAL_FDCAN_Init>
 8000c08:	b108      	cbz	r0, 8000c0e <main+0x4ce>
 8000c0a:	b672      	cpsid	i
 8000c0c:	e7fe      	b.n	8000c0c <main+0x4cc>
 8000c0e:	4873      	ldr	r0, [pc, #460]	; (8000ddc <main+0x69c>)
 8000c10:	2501      	movs	r5, #1
 8000c12:	4b73      	ldr	r3, [pc, #460]	; (8000de0 <main+0x6a0>)
 8000c14:	2200      	movs	r2, #0
 8000c16:	2180      	movs	r1, #128	; 0x80
 8000c18:	2640      	movs	r6, #64	; 0x40
 8000c1a:	6282      	str	r2, [r0, #40]	; 0x28
 8000c1c:	e9c0 3500 	strd	r3, r5, [r0]
 8000c20:	2304      	movs	r3, #4
 8000c22:	e9c0 2302 	strd	r2, r3, [r0, #8]
 8000c26:	2310      	movs	r3, #16
 8000c28:	e9c0 1206 	strd	r1, r2, [r0, #24]
 8000c2c:	a91b      	add	r1, sp, #108	; 0x6c
 8000c2e:	9321      	str	r3, [sp, #132]	; 0x84
 8000c30:	e9c0 3604 	strd	r3, r6, [r0, #16]
 8000c34:	e9c0 2208 	strd	r2, r2, [r0, #32]
 8000c38:	e9cd 331b 	strd	r3, r3, [sp, #108]	; 0x6c
 8000c3c:	e9cd 331d 	strd	r3, r3, [sp, #116]	; 0x74
 8000c40:	e9cd 331f 	strd	r3, r3, [sp, #124]	; 0x7c
 8000c44:	f004 fee8 	bl	8005a18 <HAL_SDRAM_Init>
 8000c48:	4681      	mov	r9, r0
 8000c4a:	b108      	cbz	r0, 8000c50 <main+0x510>
 8000c4c:	b672      	cpsid	i
 8000c4e:	e7fe      	b.n	8000c4e <main+0x50e>
 8000c50:	4601      	mov	r1, r0
 8000c52:	2234      	movs	r2, #52	; 0x34
 8000c54:	a80e      	add	r0, sp, #56	; 0x38
 8000c56:	4f63      	ldr	r7, [pc, #396]	; (8000de4 <main+0x6a4>)
 8000c58:	f005 fdbe 	bl	80067d8 <memset>
 8000c5c:	2234      	movs	r2, #52	; 0x34
 8000c5e:	4649      	mov	r1, r9
 8000c60:	a81b      	add	r0, sp, #108	; 0x6c
 8000c62:	f005 fdb9 	bl	80067d8 <memset>
 8000c66:	4b60      	ldr	r3, [pc, #384]	; (8000de8 <main+0x6a8>)
 8000c68:	2403      	movs	r4, #3
 8000c6a:	f04f 0805 	mov.w	r8, #5
 8000c6e:	f240 2c8e 	movw	ip, #654	; 0x28e
 8000c72:	f44f 7e25 	mov.w	lr, #660	; 0x294
 8000c76:	4638      	mov	r0, r7
 8000c78:	f8a7 9034 	strh.w	r9, [r7, #52]	; 0x34
 8000c7c:	f8c7 9010 	str.w	r9, [r7, #16]
 8000c80:	f887 9036 	strb.w	r9, [r7, #54]	; 0x36
 8000c84:	e9c7 3900 	strd	r3, r9, [r7]
 8000c88:	2307      	movs	r3, #7
 8000c8a:	e9c7 3405 	strd	r3, r4, [r7, #20]
 8000c8e:	230e      	movs	r3, #14
 8000c90:	e9c7 3807 	strd	r3, r8, [r7, #28]
 8000c94:	f240 13e5 	movw	r3, #485	; 0x1e5
 8000c98:	e9c7 c309 	strd	ip, r3, [r7, #36]	; 0x24
 8000c9c:	f240 13e7 	movw	r3, #487	; 0x1e7
 8000ca0:	e9c7 9902 	strd	r9, r9, [r7, #8]
 8000ca4:	e9c7 e30b 	strd	lr, r3, [r7, #44]	; 0x2c
 8000ca8:	f002 fc10 	bl	80034cc <HAL_LTDC_Init>
 8000cac:	4602      	mov	r2, r0
 8000cae:	b108      	cbz	r0, 8000cb4 <main+0x574>
 8000cb0:	b672      	cpsid	i
 8000cb2:	e7fe      	b.n	8000cb2 <main+0x572>
 8000cb4:	f44f 6980 	mov.w	r9, #1024	; 0x400
 8000cb8:	9014      	str	r0, [sp, #80]	; 0x50
 8000cba:	9019      	str	r0, [sp, #100]	; 0x64
 8000cbc:	a90e      	add	r1, sp, #56	; 0x38
 8000cbe:	f8ad 0068 	strh.w	r0, [sp, #104]	; 0x68
 8000cc2:	f88d 006a 	strb.w	r0, [sp, #106]	; 0x6a
 8000cc6:	e9cd 000e 	strd	r0, r0, [sp, #56]	; 0x38
 8000cca:	e9cd 0010 	strd	r0, r0, [sp, #64]	; 0x40
 8000cce:	e9cd 0012 	strd	r0, r0, [sp, #72]	; 0x48
 8000cd2:	e9cd 0017 	strd	r0, r0, [sp, #92]	; 0x5c
 8000cd6:	4638      	mov	r0, r7
 8000cd8:	e9cd 9815 	strd	r9, r8, [sp, #84]	; 0x54
 8000cdc:	f002 fc62 	bl	80035a4 <HAL_LTDC_ConfigLayer>
 8000ce0:	b108      	cbz	r0, 8000ce6 <main+0x5a6>
 8000ce2:	b672      	cpsid	i
 8000ce4:	e7fe      	b.n	8000ce4 <main+0x5a4>
 8000ce6:	e9cd 001b 	strd	r0, r0, [sp, #108]	; 0x6c
 8000cea:	e9cd 001d 	strd	r0, r0, [sp, #116]	; 0x74
 8000cee:	e9cd 001f 	strd	r0, r0, [sp, #124]	; 0x7c
 8000cf2:	e9cd 0921 	strd	r0, r9, [sp, #132]	; 0x84
 8000cf6:	e9cd 8023 	strd	r8, r0, [sp, #140]	; 0x8c
 8000cfa:	e9cd 0025 	strd	r0, r0, [sp, #148]	; 0x94
 8000cfe:	f8ad 009c 	strh.w	r0, [sp, #156]	; 0x9c
 8000d02:	462a      	mov	r2, r5
 8000d04:	f88d 009e 	strb.w	r0, [sp, #158]	; 0x9e
 8000d08:	a91b      	add	r1, sp, #108	; 0x6c
 8000d0a:	4638      	mov	r0, r7
 8000d0c:	f002 fc4a 	bl	80035a4 <HAL_LTDC_ConfigLayer>
 8000d10:	b108      	cbz	r0, 8000d16 <main+0x5d6>
 8000d12:	b672      	cpsid	i
 8000d14:	e7fe      	b.n	8000d14 <main+0x5d4>
 8000d16:	4b35      	ldr	r3, [pc, #212]	; (8000dec <main+0x6ac>)
 8000d18:	27ff      	movs	r7, #255	; 0xff
 8000d1a:	4a35      	ldr	r2, [pc, #212]	; (8000df0 <main+0x6b0>)
 8000d1c:	6218      	str	r0, [r3, #32]
 8000d1e:	e9c3 5002 	strd	r5, r0, [r3, #8]
 8000d22:	e9c3 5004 	strd	r5, r0, [r3, #16]
 8000d26:	e9c3 0006 	strd	r0, r0, [r3, #24]
 8000d2a:	4618      	mov	r0, r3
 8000d2c:	e9c3 2700 	strd	r2, r7, [r3]
 8000d30:	f002 fd56 	bl	80037e0 <HAL_QSPI_Init>
 8000d34:	b108      	cbz	r0, 8000d3a <main+0x5fa>
 8000d36:	b672      	cpsid	i
 8000d38:	e7fe      	b.n	8000d38 <main+0x5f8>
 8000d3a:	4b2e      	ldr	r3, [pc, #184]	; (8000df4 <main+0x6b4>)
 8000d3c:	4a2e      	ldr	r2, [pc, #184]	; (8000df8 <main+0x6b8>)
 8000d3e:	6118      	str	r0, [r3, #16]
 8000d40:	6158      	str	r0, [r3, #20]
 8000d42:	e9c3 2000 	strd	r2, r0, [r3]
 8000d46:	227f      	movs	r2, #127	; 0x7f
 8000d48:	e9c3 0006 	strd	r0, r0, [r3, #24]
 8000d4c:	4618      	mov	r0, r3
 8000d4e:	e9c3 2702 	strd	r2, r7, [r3, #8]
 8000d52:	f004 fc39 	bl	80055c8 <HAL_RTC_Init>
 8000d56:	b108      	cbz	r0, 8000d5c <main+0x61c>
 8000d58:	b672      	cpsid	i
 8000d5a:	e7fe      	b.n	8000d5a <main+0x61a>
 8000d5c:	4b27      	ldr	r3, [pc, #156]	; (8000dfc <main+0x6bc>)
 8000d5e:	f44f 7880 	mov.w	r8, #256	; 0x100
 8000d62:	4a27      	ldr	r2, [pc, #156]	; (8000e00 <main+0x6c0>)
 8000d64:	2708      	movs	r7, #8
 8000d66:	6458      	str	r0, [r3, #68]	; 0x44
 8000d68:	601a      	str	r2, [r3, #0]
 8000d6a:	4a26      	ldr	r2, [pc, #152]	; (8000e04 <main+0x6c4>)
 8000d6c:	6058      	str	r0, [r3, #4]
 8000d6e:	6518      	str	r0, [r3, #80]	; 0x50
 8000d70:	6098      	str	r0, [r3, #8]
 8000d72:	61d8      	str	r0, [r3, #28]
 8000d74:	60d8      	str	r0, [r3, #12]
 8000d76:	6358      	str	r0, [r3, #52]	; 0x34
 8000d78:	f883 0038 	strb.w	r0, [r3, #56]	; 0x38
 8000d7c:	6758      	str	r0, [r3, #116]	; 0x74
 8000d7e:	621a      	str	r2, [r3, #32]
 8000d80:	63dd      	str	r5, [r3, #60]	; 0x3c
 8000d82:	f8c3 8040 	str.w	r8, [r3, #64]	; 0x40
 8000d86:	e9c3 6012 	strd	r6, r0, [r3, #72]	; 0x48
 8000d8a:	e9c3 0005 	strd	r0, r0, [r3, #20]
 8000d8e:	e9c3 000b 	strd	r0, r0, [r3, #44]	; 0x2c
 8000d92:	e9c3 0017 	strd	r0, r0, [r3, #92]	; 0x5c
 8000d96:	e9c3 0019 	strd	r0, r0, [r3, #100]	; 0x64
 8000d9a:	e9c3 051b 	strd	r0, r5, [r3, #108]	; 0x6c
 8000d9e:	4618      	mov	r0, r3
 8000da0:	e9c3 7515 	strd	r7, r5, [r3, #84]	; 0x54
 8000da4:	f004 fc7a 	bl	800569c <HAL_SAI_Init>
 8000da8:	b390      	cbz	r0, 8000e10 <main+0x6d0>
 8000daa:	b672      	cpsid	i
 8000dac:	e7fe      	b.n	8000dac <main+0x66c>
 8000dae:	bf00      	nop
 8000db0:	58026000 	.word	0x58026000
 8000db4:	1d500080 	.word	0x1d500080
 8000db8:	24000288 	.word	0x24000288
 8000dbc:	40028000 	.word	0x40028000
 8000dc0:	240000ec 	.word	0x240000ec
 8000dc4:	24000070 	.word	0x24000070
 8000dc8:	24000010 	.word	0x24000010
 8000dcc:	24000338 	.word	0x24000338
 8000dd0:	4000a000 	.word	0x4000a000
 8000dd4:	240003d8 	.word	0x240003d8
 8000dd8:	4000a400 	.word	0x4000a400
 8000ddc:	24000c20 	.word	0x24000c20
 8000de0:	52004140 	.word	0x52004140
 8000de4:	240004cc 	.word	0x240004cc
 8000de8:	50001000 	.word	0x50001000
 8000dec:	24000a80 	.word	0x24000a80
 8000df0:	52005000 	.word	0x52005000
 8000df4:	24000acc 	.word	0x24000acc
 8000df8:	58004000 	.word	0x58004000
 8000dfc:	24000af0 	.word	0x24000af0
 8000e00:	40015c04 	.word	0x40015c04
 8000e04:	0002ee00 	.word	0x0002ee00
 8000e08:	24000224 	.word	0x24000224
 8000e0c:	24000124 	.word	0x24000124
 8000e10:	4b57      	ldr	r3, [pc, #348]	; (8000f70 <main+0x830>)
 8000e12:	4a58      	ldr	r2, [pc, #352]	; (8000f74 <main+0x834>)
 8000e14:	6458      	str	r0, [r3, #68]	; 0x44
 8000e16:	6518      	str	r0, [r3, #80]	; 0x50
 8000e18:	6158      	str	r0, [r3, #20]
 8000e1a:	61d8      	str	r0, [r3, #28]
 8000e1c:	60d8      	str	r0, [r3, #12]
 8000e1e:	6358      	str	r0, [r3, #52]	; 0x34
 8000e20:	f883 0038 	strb.w	r0, [r3, #56]	; 0x38
 8000e24:	6758      	str	r0, [r3, #116]	; 0x74
 8000e26:	601a      	str	r2, [r3, #0]
 8000e28:	605c      	str	r4, [r3, #4]
 8000e2a:	609d      	str	r5, [r3, #8]
 8000e2c:	e9c3 6012 	strd	r6, r0, [r3, #72]	; 0x48
 8000e30:	e9c3 000b 	strd	r0, r0, [r3, #44]	; 0x2c
 8000e34:	e9c3 0017 	strd	r0, r0, [r3, #92]	; 0x5c
 8000e38:	e9c3 0019 	strd	r0, r0, [r3, #100]	; 0x64
 8000e3c:	e9c3 051b 	strd	r0, r5, [r3, #108]	; 0x6c
 8000e40:	4618      	mov	r0, r3
 8000e42:	e9c3 580f 	strd	r5, r8, [r3, #60]	; 0x3c
 8000e46:	e9c3 7515 	strd	r7, r5, [r3, #84]	; 0x54
 8000e4a:	f004 fc27 	bl	800569c <HAL_SAI_Init>
 8000e4e:	b108      	cbz	r0, 8000e54 <main+0x714>
 8000e50:	b672      	cpsid	i
 8000e52:	e7fe      	b.n	8000e52 <main+0x712>
 8000e54:	4b48      	ldr	r3, [pc, #288]	; (8000f78 <main+0x838>)
 8000e56:	f44f 0280 	mov.w	r2, #4194304	; 0x400000
 8000e5a:	4d48      	ldr	r5, [pc, #288]	; (8000f7c <main+0x83c>)
 8000e5c:	e9c3 5200 	strd	r5, r2, [r3]
 8000e60:	f04f 4280 	mov.w	r2, #1073741824	; 0x40000000
 8000e64:	e9c3 0402 	strd	r0, r4, [r3, #8]
 8000e68:	e9c3 0004 	strd	r0, r0, [r3, #16]
 8000e6c:	e9c3 0006 	strd	r0, r0, [r3, #24]
 8000e70:	e9c3 0008 	strd	r0, r0, [r3, #32]
 8000e74:	e9c3 000a 	strd	r0, r0, [r3, #40]	; 0x28
 8000e78:	e9c3 200d 	strd	r2, r0, [r3, #52]	; 0x34
 8000e7c:	e9c3 000f 	strd	r0, r0, [r3, #60]	; 0x3c
 8000e80:	e9c3 0011 	strd	r0, r0, [r3, #68]	; 0x44
 8000e84:	e9c3 0013 	strd	r0, r0, [r3, #76]	; 0x4c
 8000e88:	e9c3 0015 	strd	r0, r0, [r3, #84]	; 0x54
 8000e8c:	4618      	mov	r0, r3
 8000e8e:	f004 fdeb 	bl	8005a68 <HAL_SPI_Init>
 8000e92:	b108      	cbz	r0, 8000e98 <main+0x758>
 8000e94:	b672      	cpsid	i
 8000e96:	e7fe      	b.n	8000e96 <main+0x756>
 8000e98:	4b39      	ldr	r3, [pc, #228]	; (8000f80 <main+0x840>)
 8000e9a:	f44f 32e1 	mov.w	r2, #115200	; 0x1c200
 8000e9e:	4c39      	ldr	r4, [pc, #228]	; (8000f84 <main+0x844>)
 8000ea0:	6118      	str	r0, [r3, #16]
 8000ea2:	e9c3 4200 	strd	r4, r2, [r3]
 8000ea6:	220c      	movs	r2, #12
 8000ea8:	e9c3 0002 	strd	r0, r0, [r3, #8]
 8000eac:	e9c3 2005 	strd	r2, r0, [r3, #20]
 8000eb0:	e9c3 0007 	strd	r0, r0, [r3, #28]
 8000eb4:	e9c3 0009 	strd	r0, r0, [r3, #36]	; 0x24
 8000eb8:	4618      	mov	r0, r3
 8000eba:	f005 f9b6 	bl	800622a <HAL_UART_Init>
 8000ebe:	b108      	cbz	r0, 8000ec4 <main+0x784>
 8000ec0:	b672      	cpsid	i
 8000ec2:	e7fe      	b.n	8000ec2 <main+0x782>
 8000ec4:	2100      	movs	r1, #0
 8000ec6:	482e      	ldr	r0, [pc, #184]	; (8000f80 <main+0x840>)
 8000ec8:	f005 fa1d 	bl	8006306 <HAL_UARTEx_SetTxFifoThreshold>
 8000ecc:	4601      	mov	r1, r0
 8000ece:	b108      	cbz	r0, 8000ed4 <main+0x794>
 8000ed0:	b672      	cpsid	i
 8000ed2:	e7fe      	b.n	8000ed2 <main+0x792>
 8000ed4:	482a      	ldr	r0, [pc, #168]	; (8000f80 <main+0x840>)
 8000ed6:	f005 fa36 	bl	8006346 <HAL_UARTEx_SetRxFifoThreshold>
 8000eda:	b108      	cbz	r0, 8000ee0 <main+0x7a0>
 8000edc:	b672      	cpsid	i
 8000ede:	e7fe      	b.n	8000ede <main+0x79e>
 8000ee0:	4827      	ldr	r0, [pc, #156]	; (8000f80 <main+0x840>)
 8000ee2:	f005 f9f5 	bl	80062d0 <HAL_UARTEx_DisableFifoMode>
 8000ee6:	b108      	cbz	r0, 8000eec <main+0x7ac>
 8000ee8:	b672      	cpsid	i
 8000eea:	e7fe      	b.n	8000eea <main+0x7aa>
 8000eec:	4b26      	ldr	r3, [pc, #152]	; (8000f88 <main+0x848>)
 8000eee:	2209      	movs	r2, #9
 8000ef0:	4926      	ldr	r1, [pc, #152]	; (8000f8c <main+0x84c>)
 8000ef2:	2501      	movs	r5, #1
 8000ef4:	6318      	str	r0, [r3, #48]	; 0x30
 8000ef6:	e9c3 1200 	strd	r1, r2, [r3]
 8000efa:	2202      	movs	r2, #2
 8000efc:	e9c3 0008 	strd	r0, r0, [r3, #32]
 8000f00:	e9c3 0203 	strd	r0, r2, [r3, #12]
 8000f04:	e9c3 2006 	strd	r2, r0, [r3, #24]
 8000f08:	4618      	mov	r0, r3
 8000f0a:	e9c3 550a 	strd	r5, r5, [r3, #40]	; 0x28
 8000f0e:	f002 fb76 	bl	80035fe <HAL_PCD_Init>
 8000f12:	b108      	cbz	r0, 8000f18 <main+0x7d8>
 8000f14:	b672      	cpsid	i
 8000f16:	e7fe      	b.n	8000f16 <main+0x7d6>
 8000f18:	4c1d      	ldr	r4, [pc, #116]	; (8000f90 <main+0x850>)
 8000f1a:	4b1e      	ldr	r3, [pc, #120]	; (8000f94 <main+0x854>)
 8000f1c:	6023      	str	r3, [r4, #0]
 8000f1e:	f1a3 438f 	sub.w	r3, r3, #1199570944	; 0x47800000
 8000f22:	f5a3 2379 	sub.w	r3, r3, #1019904	; 0xf9000
 8000f26:	f6a3 6344 	subw	r3, r3, #3652	; 0xe44
 8000f2a:	e9c4 5003 	strd	r5, r0, [r4, #12]
 8000f2e:	e9c4 3001 	strd	r3, r0, [r4, #4]
 8000f32:	e9c4 0005 	strd	r0, r0, [r4, #20]
 8000f36:	e9c4 0007 	strd	r0, r0, [r4, #28]
 8000f3a:	4620      	mov	r0, r4
 8000f3c:	f002 f90a 	bl	8003154 <HAL_I2C_Init>
 8000f40:	4601      	mov	r1, r0
 8000f42:	b108      	cbz	r0, 8000f48 <main+0x808>
 8000f44:	b672      	cpsid	i
 8000f46:	e7fe      	b.n	8000f46 <main+0x806>
 8000f48:	4620      	mov	r0, r4
 8000f4a:	f002 f9f1 	bl	8003330 <HAL_I2CEx_ConfigAnalogFilter>
 8000f4e:	4601      	mov	r1, r0
 8000f50:	b108      	cbz	r0, 8000f56 <main+0x816>
 8000f52:	b672      	cpsid	i
 8000f54:	e7fe      	b.n	8000f54 <main+0x814>
 8000f56:	4620      	mov	r0, r4
 8000f58:	f002 fa10 	bl	800337c <HAL_I2CEx_ConfigDigitalFilter>
 8000f5c:	4604      	mov	r4, r0
 8000f5e:	b108      	cbz	r0, 8000f64 <main+0x824>
 8000f60:	b672      	cpsid	i
 8000f62:	e7fe      	b.n	8000f62 <main+0x822>
 8000f64:	f7ff fb3e 	bl	80005e4 <oximeter5_Init>
 8000f68:	4620      	mov	r0, r4
 8000f6a:	b029      	add	sp, #164	; 0xa4
 8000f6c:	e8bd 8ff0 	ldmia.w	sp!, {r4, r5, r6, r7, r8, r9, sl, fp, pc}
 8000f70:	24000b88 	.word	0x24000b88
 8000f74:	40015c24 	.word	0x40015c24
 8000f78:	24000c54 	.word	0x24000c54
 8000f7c:	40003800 	.word	0x40003800
 8000f80:	24000cdc 	.word	0x24000cdc
 8000f84:	40004800 	.word	0x40004800
 8000f88:	24000574 	.word	0x24000574
 8000f8c:	40080000 	.word	0x40080000
 8000f90:	24000478 	.word	0x24000478
 8000f94:	58001c00 	.word	0x58001c00

08000f98 <Error_Handler>:
 8000f98:	b672      	cpsid	i
 8000f9a:	e7fe      	b.n	8000f9a <Error_Handler+0x2>

08000f9c <HAL_MspInit>:
 8000f9c:	4b07      	ldr	r3, [pc, #28]	; (8000fbc <HAL_MspInit+0x20>)
 8000f9e:	b082      	sub	sp, #8
 8000fa0:	f8d3 20f4 	ldr.w	r2, [r3, #244]	; 0xf4
 8000fa4:	f042 0202 	orr.w	r2, r2, #2
 8000fa8:	f8c3 20f4 	str.w	r2, [r3, #244]	; 0xf4
 8000fac:	f8d3 30f4 	ldr.w	r3, [r3, #244]	; 0xf4
 8000fb0:	f003 0302 	and.w	r3, r3, #2
 8000fb4:	9301      	str	r3, [sp, #4]
 8000fb6:	9b01      	ldr	r3, [sp, #4]
 8000fb8:	b002      	add	sp, #8
 8000fba:	4770      	bx	lr
 8000fbc:	58024400 	.word	0x58024400

08000fc0 <HAL_ADC_MspInit>:
 8000fc0:	b510      	push	{r4, lr}
 8000fc2:	b08e      	sub	sp, #56	; 0x38
 8000fc4:	4604      	mov	r4, r0
 8000fc6:	2214      	movs	r2, #20
 8000fc8:	2100      	movs	r1, #0
 8000fca:	a809      	add	r0, sp, #36	; 0x24
 8000fcc:	f005 fc04 	bl	80067d8 <memset>
 8000fd0:	6823      	ldr	r3, [r4, #0]
 8000fd2:	4a54      	ldr	r2, [pc, #336]	; (8001124 <HAL_ADC_MspInit+0x164>)
 8000fd4:	4293      	cmp	r3, r2
 8000fd6:	d13f      	bne.n	8001058 <HAL_ADC_MspInit+0x98>
 8000fd8:	4a53      	ldr	r2, [pc, #332]	; (8001128 <HAL_ADC_MspInit+0x168>)
 8000fda:	6813      	ldr	r3, [r2, #0]
 8000fdc:	3301      	adds	r3, #1
 8000fde:	2b01      	cmp	r3, #1
 8000fe0:	6013      	str	r3, [r2, #0]
 8000fe2:	d10c      	bne.n	8000ffe <HAL_ADC_MspInit+0x3e>
 8000fe4:	4b51      	ldr	r3, [pc, #324]	; (800112c <HAL_ADC_MspInit+0x16c>)
 8000fe6:	f8d3 20d8 	ldr.w	r2, [r3, #216]	; 0xd8
 8000fea:	f042 0220 	orr.w	r2, r2, #32
 8000fee:	f8c3 20d8 	str.w	r2, [r3, #216]	; 0xd8
 8000ff2:	f8d3 30d8 	ldr.w	r3, [r3, #216]	; 0xd8
 8000ff6:	f003 0320 	and.w	r3, r3, #32
 8000ffa:	9301      	str	r3, [sp, #4]
 8000ffc:	9b01      	ldr	r3, [sp, #4]
 8000ffe:	4b4b      	ldr	r3, [pc, #300]	; (800112c <HAL_ADC_MspInit+0x16c>)
 8001000:	a909      	add	r1, sp, #36	; 0x24
 8001002:	484b      	ldr	r0, [pc, #300]	; (8001130 <HAL_ADC_MspInit+0x170>)
 8001004:	f8d3 20e0 	ldr.w	r2, [r3, #224]	; 0xe0
 8001008:	f042 0204 	orr.w	r2, r2, #4
 800100c:	f8c3 20e0 	str.w	r2, [r3, #224]	; 0xe0
 8001010:	f8d3 20e0 	ldr.w	r2, [r3, #224]	; 0xe0
 8001014:	f002 0204 	and.w	r2, r2, #4
 8001018:	9202      	str	r2, [sp, #8]
 800101a:	9a02      	ldr	r2, [sp, #8]
 800101c:	f8d3 20e0 	ldr.w	r2, [r3, #224]	; 0xe0
 8001020:	f042 0201 	orr.w	r2, r2, #1
 8001024:	f8c3 20e0 	str.w	r2, [r3, #224]	; 0xe0
 8001028:	2201      	movs	r2, #1
 800102a:	f8d3 30e0 	ldr.w	r3, [r3, #224]	; 0xe0
 800102e:	f003 0301 	and.w	r3, r3, #1
 8001032:	9303      	str	r3, [sp, #12]
 8001034:	9b03      	ldr	r3, [sp, #12]
 8001036:	2303      	movs	r3, #3
 8001038:	e9cd 2309 	strd	r2, r3, [sp, #36]	; 0x24
 800103c:	f001 ff68 	bl	8002f10 <HAL_GPIO_Init>
 8001040:	f04f 7180 	mov.w	r1, #16777216	; 0x1000000
 8001044:	4608      	mov	r0, r1
 8001046:	f000 fecb 	bl	8001de0 <HAL_SYSCFG_AnalogSwitchConfig>
 800104a:	f04f 7100 	mov.w	r1, #33554432	; 0x2000000
 800104e:	4608      	mov	r0, r1
 8001050:	f000 fec6 	bl	8001de0 <HAL_SYSCFG_AnalogSwitchConfig>
 8001054:	b00e      	add	sp, #56	; 0x38
 8001056:	bd10      	pop	{r4, pc}
 8001058:	4a36      	ldr	r2, [pc, #216]	; (8001134 <HAL_ADC_MspInit+0x174>)
 800105a:	4293      	cmp	r3, r2
 800105c:	d120      	bne.n	80010a0 <HAL_ADC_MspInit+0xe0>
 800105e:	4a32      	ldr	r2, [pc, #200]	; (8001128 <HAL_ADC_MspInit+0x168>)
 8001060:	6813      	ldr	r3, [r2, #0]
 8001062:	3301      	adds	r3, #1
 8001064:	2b01      	cmp	r3, #1
 8001066:	6013      	str	r3, [r2, #0]
 8001068:	d10c      	bne.n	8001084 <HAL_ADC_MspInit+0xc4>
 800106a:	4b30      	ldr	r3, [pc, #192]	; (800112c <HAL_ADC_MspInit+0x16c>)
 800106c:	f8d3 20d8 	ldr.w	r2, [r3, #216]	; 0xd8
 8001070:	f042 0220 	orr.w	r2, r2, #32
 8001074:	f8c3 20d8 	str.w	r2, [r3, #216]	; 0xd8
 8001078:	f8d3 30d8 	ldr.w	r3, [r3, #216]	; 0xd8
 800107c:	f003 0320 	and.w	r3, r3, #32
 8001080:	9304      	str	r3, [sp, #16]
 8001082:	9b04      	ldr	r3, [sp, #16]
 8001084:	4b29      	ldr	r3, [pc, #164]	; (800112c <HAL_ADC_MspInit+0x16c>)
 8001086:	f8d3 20e0 	ldr.w	r2, [r3, #224]	; 0xe0
 800108a:	f042 0201 	orr.w	r2, r2, #1
 800108e:	f8c3 20e0 	str.w	r2, [r3, #224]	; 0xe0
 8001092:	f8d3 30e0 	ldr.w	r3, [r3, #224]	; 0xe0
 8001096:	f003 0301 	and.w	r3, r3, #1
 800109a:	9305      	str	r3, [sp, #20]
 800109c:	9b05      	ldr	r3, [sp, #20]
 800109e:	e7cf      	b.n	8001040 <HAL_ADC_MspInit+0x80>
 80010a0:	4a25      	ldr	r2, [pc, #148]	; (8001138 <HAL_ADC_MspInit+0x178>)
 80010a2:	4293      	cmp	r3, r2
 80010a4:	d1d6      	bne.n	8001054 <HAL_ADC_MspInit+0x94>
 80010a6:	4b21      	ldr	r3, [pc, #132]	; (800112c <HAL_ADC_MspInit+0x16c>)
 80010a8:	2403      	movs	r4, #3
 80010aa:	a909      	add	r1, sp, #36	; 0x24
 80010ac:	4823      	ldr	r0, [pc, #140]	; (800113c <HAL_ADC_MspInit+0x17c>)
 80010ae:	f8d3 20e0 	ldr.w	r2, [r3, #224]	; 0xe0
 80010b2:	f042 7280 	orr.w	r2, r2, #16777216	; 0x1000000
 80010b6:	f8c3 20e0 	str.w	r2, [r3, #224]	; 0xe0
 80010ba:	f8d3 20e0 	ldr.w	r2, [r3, #224]	; 0xe0
 80010be:	f002 7280 	and.w	r2, r2, #16777216	; 0x1000000
 80010c2:	9206      	str	r2, [sp, #24]
 80010c4:	9a06      	ldr	r2, [sp, #24]
 80010c6:	f8d3 20e0 	ldr.w	r2, [r3, #224]	; 0xe0
 80010ca:	f042 0220 	orr.w	r2, r2, #32
 80010ce:	f8c3 20e0 	str.w	r2, [r3, #224]	; 0xe0
 80010d2:	f8d3 20e0 	ldr.w	r2, [r3, #224]	; 0xe0
 80010d6:	f002 0220 	and.w	r2, r2, #32
 80010da:	9207      	str	r2, [sp, #28]
 80010dc:	9a07      	ldr	r2, [sp, #28]
 80010de:	f8d3 20e0 	ldr.w	r2, [r3, #224]	; 0xe0
 80010e2:	f042 0204 	orr.w	r2, r2, #4
 80010e6:	f8c3 20e0 	str.w	r2, [r3, #224]	; 0xe0
 80010ea:	f8d3 30e0 	ldr.w	r3, [r3, #224]	; 0xe0
 80010ee:	f003 0304 	and.w	r3, r3, #4
 80010f2:	9308      	str	r3, [sp, #32]
 80010f4:	9b08      	ldr	r3, [sp, #32]
 80010f6:	f44f 7380 	mov.w	r3, #256	; 0x100
 80010fa:	e9cd 3409 	strd	r3, r4, [sp, #36]	; 0x24
 80010fe:	f001 ff07 	bl	8002f10 <HAL_GPIO_Init>
 8001102:	2301      	movs	r3, #1
 8001104:	a909      	add	r1, sp, #36	; 0x24
 8001106:	480a      	ldr	r0, [pc, #40]	; (8001130 <HAL_ADC_MspInit+0x170>)
 8001108:	e9cd 3409 	strd	r3, r4, [sp, #36]	; 0x24
 800110c:	2300      	movs	r3, #0
 800110e:	930b      	str	r3, [sp, #44]	; 0x2c
 8001110:	f001 fefe 	bl	8002f10 <HAL_GPIO_Init>
 8001114:	f04f 6180 	mov.w	r1, #67108864	; 0x4000000
 8001118:	4608      	mov	r0, r1
 800111a:	f000 fe61 	bl	8001de0 <HAL_SYSCFG_AnalogSwitchConfig>
 800111e:	f04f 6100 	mov.w	r1, #134217728	; 0x8000000
 8001122:	e794      	b.n	800104e <HAL_ADC_MspInit+0x8e>
 8001124:	40022000 	.word	0x40022000
 8001128:	24000d74 	.word	0x24000d74
 800112c:	58024400 	.word	0x58024400
 8001130:	58020800 	.word	0x58020800
 8001134:	40022100 	.word	0x40022100
 8001138:	58026000 	.word	0x58026000
 800113c:	58021400 	.word	0x58021400

08001140 <HAL_ETH_MspInit>:
 8001140:	b570      	push	{r4, r5, r6, lr}
 8001142:	b090      	sub	sp, #64	; 0x40
 8001144:	4604      	mov	r4, r0
 8001146:	2214      	movs	r2, #20
 8001148:	2100      	movs	r1, #0
 800114a:	a80b      	add	r0, sp, #44	; 0x2c
 800114c:	f005 fb44 	bl	80067d8 <memset>
 8001150:	6822      	ldr	r2, [r4, #0]
 8001152:	4b64      	ldr	r3, [pc, #400]	; (80012e4 <HAL_ETH_MspInit+0x1a4>)
 8001154:	429a      	cmp	r2, r3
 8001156:	f040 80c2 	bne.w	80012de <HAL_ETH_MspInit+0x19e>
 800115a:	4b63      	ldr	r3, [pc, #396]	; (80012e8 <HAL_ETH_MspInit+0x1a8>)
 800115c:	2602      	movs	r6, #2
 800115e:	250b      	movs	r5, #11
 8001160:	a90b      	add	r1, sp, #44	; 0x2c
 8001162:	f8d3 20d8 	ldr.w	r2, [r3, #216]	; 0xd8
 8001166:	2400      	movs	r4, #0
 8001168:	4860      	ldr	r0, [pc, #384]	; (80012ec <HAL_ETH_MspInit+0x1ac>)
 800116a:	f442 4200 	orr.w	r2, r2, #32768	; 0x8000
 800116e:	f8c3 20d8 	str.w	r2, [r3, #216]	; 0xd8
 8001172:	f8d3 20d8 	ldr.w	r2, [r3, #216]	; 0xd8
 8001176:	f402 4200 	and.w	r2, r2, #32768	; 0x8000
 800117a:	9201      	str	r2, [sp, #4]
 800117c:	9a01      	ldr	r2, [sp, #4]
 800117e:	f8d3 20d8 	ldr.w	r2, [r3, #216]	; 0xd8
 8001182:	f442 3280 	orr.w	r2, r2, #65536	; 0x10000
 8001186:	f8c3 20d8 	str.w	r2, [r3, #216]	; 0xd8
 800118a:	f8d3 20d8 	ldr.w	r2, [r3, #216]	; 0xd8
 800118e:	f402 3280 	and.w	r2, r2, #65536	; 0x10000
 8001192:	9202      	str	r2, [sp, #8]
 8001194:	9a02      	ldr	r2, [sp, #8]
 8001196:	f8d3 20d8 	ldr.w	r2, [r3, #216]	; 0xd8
 800119a:	f442 3200 	orr.w	r2, r2, #131072	; 0x20000
 800119e:	f8c3 20d8 	str.w	r2, [r3, #216]	; 0xd8
 80011a2:	f8d3 20d8 	ldr.w	r2, [r3, #216]	; 0xd8
 80011a6:	f402 3200 	and.w	r2, r2, #131072	; 0x20000
 80011aa:	9203      	str	r2, [sp, #12]
 80011ac:	9a03      	ldr	r2, [sp, #12]
 80011ae:	f8d3 20e0 	ldr.w	r2, [r3, #224]	; 0xe0
 80011b2:	f042 0240 	orr.w	r2, r2, #64	; 0x40
 80011b6:	f8c3 20e0 	str.w	r2, [r3, #224]	; 0xe0
 80011ba:	f8d3 20e0 	ldr.w	r2, [r3, #224]	; 0xe0
 80011be:	f002 0240 	and.w	r2, r2, #64	; 0x40
 80011c2:	9204      	str	r2, [sp, #16]
 80011c4:	9a04      	ldr	r2, [sp, #16]
 80011c6:	f8d3 20e0 	ldr.w	r2, [r3, #224]	; 0xe0
 80011ca:	f042 0210 	orr.w	r2, r2, #16
 80011ce:	f8c3 20e0 	str.w	r2, [r3, #224]	; 0xe0
 80011d2:	f8d3 20e0 	ldr.w	r2, [r3, #224]	; 0xe0
 80011d6:	f002 0210 	and.w	r2, r2, #16
 80011da:	9205      	str	r2, [sp, #20]
 80011dc:	9a05      	ldr	r2, [sp, #20]
 80011de:	f8d3 20e0 	ldr.w	r2, [r3, #224]	; 0xe0
 80011e2:	f442 7280 	orr.w	r2, r2, #256	; 0x100
 80011e6:	f8c3 20e0 	str.w	r2, [r3, #224]	; 0xe0
 80011ea:	f8d3 20e0 	ldr.w	r2, [r3, #224]	; 0xe0
 80011ee:	f402 7280 	and.w	r2, r2, #256	; 0x100
 80011f2:	9206      	str	r2, [sp, #24]
 80011f4:	9a06      	ldr	r2, [sp, #24]
 80011f6:	f8d3 20e0 	ldr.w	r2, [r3, #224]	; 0xe0
 80011fa:	f042 0204 	orr.w	r2, r2, #4
 80011fe:	f8c3 20e0 	str.w	r2, [r3, #224]	; 0xe0
 8001202:	f8d3 20e0 	ldr.w	r2, [r3, #224]	; 0xe0
 8001206:	f002 0204 	and.w	r2, r2, #4
 800120a:	9207      	str	r2, [sp, #28]
 800120c:	9a07      	ldr	r2, [sp, #28]
 800120e:	f8d3 20e0 	ldr.w	r2, [r3, #224]	; 0xe0
 8001212:	f042 0280 	orr.w	r2, r2, #128	; 0x80
 8001216:	f8c3 20e0 	str.w	r2, [r3, #224]	; 0xe0
 800121a:	f8d3 20e0 	ldr.w	r2, [r3, #224]	; 0xe0
 800121e:	f002 0280 	and.w	r2, r2, #128	; 0x80
 8001222:	9208      	str	r2, [sp, #32]
 8001224:	9a08      	ldr	r2, [sp, #32]
 8001226:	f8d3 20e0 	ldr.w	r2, [r3, #224]	; 0xe0
 800122a:	f042 0201 	orr.w	r2, r2, #1
 800122e:	f8c3 20e0 	str.w	r2, [r3, #224]	; 0xe0
 8001232:	f8d3 20e0 	ldr.w	r2, [r3, #224]	; 0xe0
 8001236:	f002 0201 	and.w	r2, r2, #1
 800123a:	9209      	str	r2, [sp, #36]	; 0x24
 800123c:	9a09      	ldr	r2, [sp, #36]	; 0x24
 800123e:	f8d3 20e0 	ldr.w	r2, [r3, #224]	; 0xe0
 8001242:	f042 0202 	orr.w	r2, r2, #2
 8001246:	f8c3 20e0 	str.w	r2, [r3, #224]	; 0xe0
 800124a:	f8d3 30e0 	ldr.w	r3, [r3, #224]	; 0xe0
 800124e:	950f      	str	r5, [sp, #60]	; 0x3c
 8001250:	f003 0302 	and.w	r3, r3, #2
 8001254:	930a      	str	r3, [sp, #40]	; 0x28
 8001256:	9b0a      	ldr	r3, [sp, #40]	; 0x28
 8001258:	f44f 5360 	mov.w	r3, #14336	; 0x3800
 800125c:	e9cd 360b 	strd	r3, r6, [sp, #44]	; 0x2c
 8001260:	f001 fe56 	bl	8002f10 <HAL_GPIO_Init>
 8001264:	2304      	movs	r3, #4
 8001266:	a90b      	add	r1, sp, #44	; 0x2c
 8001268:	4821      	ldr	r0, [pc, #132]	; (80012f0 <HAL_ETH_MspInit+0x1b0>)
 800126a:	950f      	str	r5, [sp, #60]	; 0x3c
 800126c:	e9cd 360b 	strd	r3, r6, [sp, #44]	; 0x2c
 8001270:	e9cd 440d 	strd	r4, r4, [sp, #52]	; 0x34
 8001274:	f001 fe4c 	bl	8002f10 <HAL_GPIO_Init>
 8001278:	f44f 6380 	mov.w	r3, #1024	; 0x400
 800127c:	a90b      	add	r1, sp, #44	; 0x2c
 800127e:	481d      	ldr	r0, [pc, #116]	; (80012f4 <HAL_ETH_MspInit+0x1b4>)
 8001280:	950f      	str	r5, [sp, #60]	; 0x3c
 8001282:	e9cd 360b 	strd	r3, r6, [sp, #44]	; 0x2c
 8001286:	e9cd 440d 	strd	r4, r4, [sp, #52]	; 0x34
 800128a:	f001 fe41 	bl	8002f10 <HAL_GPIO_Init>
 800128e:	233e      	movs	r3, #62	; 0x3e
 8001290:	a90b      	add	r1, sp, #44	; 0x2c
 8001292:	4819      	ldr	r0, [pc, #100]	; (80012f8 <HAL_ETH_MspInit+0x1b8>)
 8001294:	950f      	str	r5, [sp, #60]	; 0x3c
 8001296:	e9cd 360b 	strd	r3, r6, [sp, #44]	; 0x2c
 800129a:	e9cd 440d 	strd	r4, r4, [sp, #52]	; 0x34
 800129e:	f001 fe37 	bl	8002f10 <HAL_GPIO_Init>
 80012a2:	230c      	movs	r3, #12
 80012a4:	a90b      	add	r1, sp, #44	; 0x2c
 80012a6:	4815      	ldr	r0, [pc, #84]	; (80012fc <HAL_ETH_MspInit+0x1bc>)
 80012a8:	950f      	str	r5, [sp, #60]	; 0x3c
 80012aa:	e9cd 360b 	strd	r3, r6, [sp, #44]	; 0x2c
 80012ae:	e9cd 440d 	strd	r4, r4, [sp, #52]	; 0x34
 80012b2:	f001 fe2d 	bl	8002f10 <HAL_GPIO_Init>
 80012b6:	2386      	movs	r3, #134	; 0x86
 80012b8:	a90b      	add	r1, sp, #44	; 0x2c
 80012ba:	4811      	ldr	r0, [pc, #68]	; (8001300 <HAL_ETH_MspInit+0x1c0>)
 80012bc:	950f      	str	r5, [sp, #60]	; 0x3c
 80012be:	e9cd 360b 	strd	r3, r6, [sp, #44]	; 0x2c
 80012c2:	e9cd 440d 	strd	r4, r4, [sp, #52]	; 0x34
 80012c6:	f001 fe23 	bl	8002f10 <HAL_GPIO_Init>
 80012ca:	2303      	movs	r3, #3
 80012cc:	a90b      	add	r1, sp, #44	; 0x2c
 80012ce:	480d      	ldr	r0, [pc, #52]	; (8001304 <HAL_ETH_MspInit+0x1c4>)
 80012d0:	950f      	str	r5, [sp, #60]	; 0x3c
 80012d2:	e9cd 360b 	strd	r3, r6, [sp, #44]	; 0x2c
 80012d6:	e9cd 440d 	strd	r4, r4, [sp, #52]	; 0x34
 80012da:	f001 fe19 	bl	8002f10 <HAL_GPIO_Init>
 80012de:	b010      	add	sp, #64	; 0x40
 80012e0:	bd70      	pop	{r4, r5, r6, pc}
 80012e2:	bf00      	nop
 80012e4:	40028000 	.word	0x40028000
 80012e8:	58024400 	.word	0x58024400
 80012ec:	58021800 	.word	0x58021800
 80012f0:	58021000 	.word	0x58021000
 80012f4:	58022000 	.word	0x58022000
 80012f8:	58020800 	.word	0x58020800
 80012fc:	58021c00 	.word	0x58021c00
 8001300:	58020000 	.word	0x58020000
 8001304:	58020400 	.word	0x58020400

08001308 <HAL_FDCAN_MspInit>:
 8001308:	b510      	push	{r4, lr}
 800130a:	2214      	movs	r2, #20
 800130c:	b0ba      	sub	sp, #232	; 0xe8
 800130e:	4604      	mov	r4, r0
 8001310:	2100      	movs	r1, #0
 8001312:	eb0d 0002 	add.w	r0, sp, r2
 8001316:	f005 fa5f 	bl	80067d8 <memset>
 800131a:	22c0      	movs	r2, #192	; 0xc0
 800131c:	2100      	movs	r1, #0
 800131e:	a80a      	add	r0, sp, #40	; 0x28
 8001320:	f005 fa5a 	bl	80067d8 <memset>
 8001324:	6823      	ldr	r3, [r4, #0]
 8001326:	4a3f      	ldr	r2, [pc, #252]	; (8001424 <HAL_FDCAN_MspInit+0x11c>)
 8001328:	4293      	cmp	r3, r2
 800132a:	d13d      	bne.n	80013a8 <HAL_FDCAN_MspInit+0xa0>
 800132c:	2300      	movs	r3, #0
 800132e:	f44f 4200 	mov.w	r2, #32768	; 0x8000
 8001332:	a80a      	add	r0, sp, #40	; 0x28
 8001334:	e9cd 230a 	strd	r2, r3, [sp, #40]	; 0x28
 8001338:	f04f 5380 	mov.w	r3, #268435456	; 0x10000000
 800133c:	9326      	str	r3, [sp, #152]	; 0x98
 800133e:	f003 f847 	bl	80043d0 <HAL_RCCEx_PeriphCLKConfig>
 8001342:	b108      	cbz	r0, 8001348 <HAL_FDCAN_MspInit+0x40>
 8001344:	f7ff fe28 	bl	8000f98 <Error_Handler>
 8001348:	4a37      	ldr	r2, [pc, #220]	; (8001428 <HAL_FDCAN_MspInit+0x120>)
 800134a:	6813      	ldr	r3, [r2, #0]
 800134c:	3301      	adds	r3, #1
 800134e:	2b01      	cmp	r3, #1
 8001350:	6013      	str	r3, [r2, #0]
 8001352:	d10c      	bne.n	800136e <HAL_FDCAN_MspInit+0x66>
 8001354:	4b35      	ldr	r3, [pc, #212]	; (800142c <HAL_FDCAN_MspInit+0x124>)
 8001356:	f8d3 20ec 	ldr.w	r2, [r3, #236]	; 0xec
 800135a:	f442 7280 	orr.w	r2, r2, #256	; 0x100
 800135e:	f8c3 20ec 	str.w	r2, [r3, #236]	; 0xec
 8001362:	f8d3 30ec 	ldr.w	r3, [r3, #236]	; 0xec
 8001366:	f403 7380 	and.w	r3, r3, #256	; 0x100
 800136a:	9301      	str	r3, [sp, #4]
 800136c:	9b01      	ldr	r3, [sp, #4]
 800136e:	4b2f      	ldr	r3, [pc, #188]	; (800142c <HAL_FDCAN_MspInit+0x124>)
 8001370:	f44f 41c0 	mov.w	r1, #24576	; 0x6000
 8001374:	482e      	ldr	r0, [pc, #184]	; (8001430 <HAL_FDCAN_MspInit+0x128>)
 8001376:	f8d3 20e0 	ldr.w	r2, [r3, #224]	; 0xe0
 800137a:	f042 0280 	orr.w	r2, r2, #128	; 0x80
 800137e:	f8c3 20e0 	str.w	r2, [r3, #224]	; 0xe0
 8001382:	f8d3 30e0 	ldr.w	r3, [r3, #224]	; 0xe0
 8001386:	f003 0380 	and.w	r3, r3, #128	; 0x80
 800138a:	9302      	str	r3, [sp, #8]
 800138c:	9b02      	ldr	r3, [sp, #8]
 800138e:	2302      	movs	r3, #2
 8001390:	e9cd 1305 	strd	r1, r3, [sp, #20]
 8001394:	2300      	movs	r3, #0
 8001396:	a905      	add	r1, sp, #20
 8001398:	e9cd 3307 	strd	r3, r3, [sp, #28]
 800139c:	2309      	movs	r3, #9
 800139e:	9309      	str	r3, [sp, #36]	; 0x24
 80013a0:	f001 fdb6 	bl	8002f10 <HAL_GPIO_Init>
 80013a4:	b03a      	add	sp, #232	; 0xe8
 80013a6:	bd10      	pop	{r4, pc}
 80013a8:	4a22      	ldr	r2, [pc, #136]	; (8001434 <HAL_FDCAN_MspInit+0x12c>)
 80013aa:	4293      	cmp	r3, r2
 80013ac:	d1fa      	bne.n	80013a4 <HAL_FDCAN_MspInit+0x9c>
 80013ae:	2300      	movs	r3, #0
 80013b0:	f44f 4200 	mov.w	r2, #32768	; 0x8000
 80013b4:	a80a      	add	r0, sp, #40	; 0x28
 80013b6:	e9cd 230a 	strd	r2, r3, [sp, #40]	; 0x28
 80013ba:	f04f 5380 	mov.w	r3, #268435456	; 0x10000000
 80013be:	9326      	str	r3, [sp, #152]	; 0x98
 80013c0:	f003 f806 	bl	80043d0 <HAL_RCCEx_PeriphCLKConfig>
 80013c4:	b108      	cbz	r0, 80013ca <HAL_FDCAN_MspInit+0xc2>
 80013c6:	f7ff fde7 	bl	8000f98 <Error_Handler>
 80013ca:	4a17      	ldr	r2, [pc, #92]	; (8001428 <HAL_FDCAN_MspInit+0x120>)
 80013cc:	6813      	ldr	r3, [r2, #0]
 80013ce:	3301      	adds	r3, #1
 80013d0:	2b01      	cmp	r3, #1
 80013d2:	6013      	str	r3, [r2, #0]
 80013d4:	d10c      	bne.n	80013f0 <HAL_FDCAN_MspInit+0xe8>
 80013d6:	4b15      	ldr	r3, [pc, #84]	; (800142c <HAL_FDCAN_MspInit+0x124>)
 80013d8:	f8d3 20ec 	ldr.w	r2, [r3, #236]	; 0xec
 80013dc:	f442 7280 	orr.w	r2, r2, #256	; 0x100
 80013e0:	f8c3 20ec 	str.w	r2, [r3, #236]	; 0xec
 80013e4:	f8d3 30ec 	ldr.w	r3, [r3, #236]	; 0xec
 80013e8:	f403 7380 	and.w	r3, r3, #256	; 0x100
 80013ec:	9303      	str	r3, [sp, #12]
 80013ee:	9b03      	ldr	r3, [sp, #12]
 80013f0:	4b0e      	ldr	r3, [pc, #56]	; (800142c <HAL_FDCAN_MspInit+0x124>)
 80013f2:	a905      	add	r1, sp, #20
 80013f4:	4810      	ldr	r0, [pc, #64]	; (8001438 <HAL_FDCAN_MspInit+0x130>)
 80013f6:	f8d3 20e0 	ldr.w	r2, [r3, #224]	; 0xe0
 80013fa:	f042 0202 	orr.w	r2, r2, #2
 80013fe:	f8c3 20e0 	str.w	r2, [r3, #224]	; 0xe0
 8001402:	f242 0220 	movw	r2, #8224	; 0x2020
 8001406:	f8d3 30e0 	ldr.w	r3, [r3, #224]	; 0xe0
 800140a:	f003 0302 	and.w	r3, r3, #2
 800140e:	9304      	str	r3, [sp, #16]
 8001410:	9b04      	ldr	r3, [sp, #16]
 8001412:	2302      	movs	r3, #2
 8001414:	e9cd 2305 	strd	r2, r3, [sp, #20]
 8001418:	2300      	movs	r3, #0
 800141a:	e9cd 3307 	strd	r3, r3, [sp, #28]
 800141e:	2309      	movs	r3, #9
 8001420:	9309      	str	r3, [sp, #36]	; 0x24
 8001422:	e7bd      	b.n	80013a0 <HAL_FDCAN_MspInit+0x98>
 8001424:	4000a000 	.word	0x4000a000
 8001428:	24000d78 	.word	0x24000d78
 800142c:	58024400 	.word	0x58024400
 8001430:	58021c00 	.word	0x58021c00
 8001434:	4000a400 	.word	0x4000a400
 8001438:	58020400 	.word	0x58020400

0800143c <HAL_I2C_MspInit>:
 800143c:	b510      	push	{r4, lr}
 800143e:	b0b8      	sub	sp, #224	; 0xe0
 8001440:	4604      	mov	r4, r0
 8001442:	2214      	movs	r2, #20
 8001444:	2100      	movs	r1, #0
 8001446:	a803      	add	r0, sp, #12
 8001448:	f005 f9c6 	bl	80067d8 <memset>
 800144c:	22c0      	movs	r2, #192	; 0xc0
 800144e:	2100      	movs	r1, #0
 8001450:	a808      	add	r0, sp, #32
 8001452:	f005 f9c1 	bl	80067d8 <memset>
 8001456:	6822      	ldr	r2, [r4, #0]
 8001458:	4b1a      	ldr	r3, [pc, #104]	; (80014c4 <HAL_I2C_MspInit+0x88>)
 800145a:	429a      	cmp	r2, r3
 800145c:	d130      	bne.n	80014c0 <HAL_I2C_MspInit+0x84>
 800145e:	2210      	movs	r2, #16
 8001460:	2300      	movs	r3, #0
 8001462:	a808      	add	r0, sp, #32
 8001464:	e9cd 2308 	strd	r2, r3, [sp, #32]
 8001468:	f002 ffb2 	bl	80043d0 <HAL_RCCEx_PeriphCLKConfig>
 800146c:	b108      	cbz	r0, 8001472 <HAL_I2C_MspInit+0x36>
 800146e:	f7ff fd93 	bl	8000f98 <Error_Handler>
 8001472:	4c15      	ldr	r4, [pc, #84]	; (80014c8 <HAL_I2C_MspInit+0x8c>)
 8001474:	f44f 5240 	mov.w	r2, #12288	; 0x3000
 8001478:	a903      	add	r1, sp, #12
 800147a:	4814      	ldr	r0, [pc, #80]	; (80014cc <HAL_I2C_MspInit+0x90>)
 800147c:	f8d4 30e0 	ldr.w	r3, [r4, #224]	; 0xe0
 8001480:	f043 0308 	orr.w	r3, r3, #8
 8001484:	f8c4 30e0 	str.w	r3, [r4, #224]	; 0xe0
 8001488:	f8d4 30e0 	ldr.w	r3, [r4, #224]	; 0xe0
 800148c:	f003 0308 	and.w	r3, r3, #8
 8001490:	9301      	str	r3, [sp, #4]
 8001492:	9b01      	ldr	r3, [sp, #4]
 8001494:	2312      	movs	r3, #18
 8001496:	e9cd 2303 	strd	r2, r3, [sp, #12]
 800149a:	2300      	movs	r3, #0
 800149c:	e9cd 3305 	strd	r3, r3, [sp, #20]
 80014a0:	2304      	movs	r3, #4
 80014a2:	9307      	str	r3, [sp, #28]
 80014a4:	f001 fd34 	bl	8002f10 <HAL_GPIO_Init>
 80014a8:	f8d4 30f4 	ldr.w	r3, [r4, #244]	; 0xf4
 80014ac:	f043 0380 	orr.w	r3, r3, #128	; 0x80
 80014b0:	f8c4 30f4 	str.w	r3, [r4, #244]	; 0xf4
 80014b4:	f8d4 30f4 	ldr.w	r3, [r4, #244]	; 0xf4
 80014b8:	f003 0380 	and.w	r3, r3, #128	; 0x80
 80014bc:	9302      	str	r3, [sp, #8]
 80014be:	9b02      	ldr	r3, [sp, #8]
 80014c0:	b038      	add	sp, #224	; 0xe0
 80014c2:	bd10      	pop	{r4, pc}
 80014c4:	58001c00 	.word	0x58001c00
 80014c8:	58024400 	.word	0x58024400
 80014cc:	58020c00 	.word	0x58020c00

080014d0 <HAL_LTDC_MspInit>:
 80014d0:	b570      	push	{r4, r5, r6, lr}
 80014d2:	2214      	movs	r2, #20
 80014d4:	b0ba      	sub	sp, #232	; 0xe8
 80014d6:	25c0      	movs	r5, #192	; 0xc0
 80014d8:	4604      	mov	r4, r0
 80014da:	2100      	movs	r1, #0
 80014dc:	eb0d 0002 	add.w	r0, sp, r2
 80014e0:	f005 f97a 	bl	80067d8 <memset>
 80014e4:	462a      	mov	r2, r5
 80014e6:	2100      	movs	r1, #0
 80014e8:	a80a      	add	r0, sp, #40	; 0x28
 80014ea:	f005 f975 	bl	80067d8 <memset>
 80014ee:	6822      	ldr	r2, [r4, #0]
 80014f0:	4b44      	ldr	r3, [pc, #272]	; (8001604 <HAL_LTDC_MspInit+0x134>)
 80014f2:	429a      	cmp	r2, r3
 80014f4:	f040 8083 	bne.w	80015fe <HAL_LTDC_MspInit+0x12e>
 80014f8:	f04f 5200 	mov.w	r2, #536870912	; 0x20000000
 80014fc:	2300      	movs	r3, #0
 80014fe:	a80a      	add	r0, sp, #40	; 0x28
 8001500:	e9cd 230a 	strd	r2, r3, [sp, #40]	; 0x28
 8001504:	2320      	movs	r3, #32
 8001506:	f44f 6240 	mov.w	r2, #3072	; 0xc00
 800150a:	e9cd 3514 	strd	r3, r5, [sp, #80]	; 0x50
 800150e:	2302      	movs	r3, #2
 8001510:	e9cd 3316 	strd	r3, r3, [sp, #88]	; 0x58
 8001514:	9318      	str	r3, [sp, #96]	; 0x60
 8001516:	f44f 7300 	mov.w	r3, #512	; 0x200
 800151a:	e9cd 2319 	strd	r2, r3, [sp, #100]	; 0x64
 800151e:	f002 ff57 	bl	80043d0 <HAL_RCCEx_PeriphCLKConfig>
 8001522:	b108      	cbz	r0, 8001528 <HAL_LTDC_MspInit+0x58>
 8001524:	f7ff fd38 	bl	8000f98 <Error_Handler>
 8001528:	4b37      	ldr	r3, [pc, #220]	; (8001608 <HAL_LTDC_MspInit+0x138>)
 800152a:	2602      	movs	r6, #2
 800152c:	2400      	movs	r4, #0
 800152e:	250e      	movs	r5, #14
 8001530:	f8d3 20e4 	ldr.w	r2, [r3, #228]	; 0xe4
 8001534:	a905      	add	r1, sp, #20
 8001536:	4835      	ldr	r0, [pc, #212]	; (800160c <HAL_LTDC_MspInit+0x13c>)
 8001538:	f042 0208 	orr.w	r2, r2, #8
 800153c:	f8c3 20e4 	str.w	r2, [r3, #228]	; 0xe4
 8001540:	f8d3 20e4 	ldr.w	r2, [r3, #228]	; 0xe4
 8001544:	f002 0208 	and.w	r2, r2, #8
 8001548:	9200      	str	r2, [sp, #0]
 800154a:	9a00      	ldr	r2, [sp, #0]
 800154c:	f8d3 20e0 	ldr.w	r2, [r3, #224]	; 0xe0
 8001550:	f442 6280 	orr.w	r2, r2, #1024	; 0x400
 8001554:	f8c3 20e0 	str.w	r2, [r3, #224]	; 0xe0
 8001558:	f8d3 20e0 	ldr.w	r2, [r3, #224]	; 0xe0
 800155c:	f402 6280 	and.w	r2, r2, #1024	; 0x400
 8001560:	9201      	str	r2, [sp, #4]
 8001562:	9a01      	ldr	r2, [sp, #4]
 8001564:	f8d3 20e0 	ldr.w	r2, [r3, #224]	; 0xe0
 8001568:	f442 7280 	orr.w	r2, r2, #256	; 0x100
 800156c:	f8c3 20e0 	str.w	r2, [r3, #224]	; 0xe0
 8001570:	f8d3 20e0 	ldr.w	r2, [r3, #224]	; 0xe0
 8001574:	f402 7280 	and.w	r2, r2, #256	; 0x100
 8001578:	9202      	str	r2, [sp, #8]
 800157a:	9a02      	ldr	r2, [sp, #8]
 800157c:	f8d3 20e0 	ldr.w	r2, [r3, #224]	; 0xe0
 8001580:	f442 7200 	orr.w	r2, r2, #512	; 0x200
 8001584:	f8c3 20e0 	str.w	r2, [r3, #224]	; 0xe0
 8001588:	f8d3 20e0 	ldr.w	r2, [r3, #224]	; 0xe0
 800158c:	f402 7200 	and.w	r2, r2, #512	; 0x200
 8001590:	9203      	str	r2, [sp, #12]
 8001592:	9a03      	ldr	r2, [sp, #12]
 8001594:	f8d3 20e0 	ldr.w	r2, [r3, #224]	; 0xe0
 8001598:	f042 0280 	orr.w	r2, r2, #128	; 0x80
 800159c:	f8c3 20e0 	str.w	r2, [r3, #224]	; 0xe0
 80015a0:	f8d3 30e0 	ldr.w	r3, [r3, #224]	; 0xe0
 80015a4:	9509      	str	r5, [sp, #36]	; 0x24
 80015a6:	f003 0380 	and.w	r3, r3, #128	; 0x80
 80015aa:	9304      	str	r3, [sp, #16]
 80015ac:	9b04      	ldr	r3, [sp, #16]
 80015ae:	23fc      	movs	r3, #252	; 0xfc
 80015b0:	e9cd 4407 	strd	r4, r4, [sp, #28]
 80015b4:	e9cd 3605 	strd	r3, r6, [sp, #20]
 80015b8:	f001 fcaa 	bl	8002f10 <HAL_GPIO_Init>
 80015bc:	f24d 2303 	movw	r3, #53763	; 0xd203
 80015c0:	a905      	add	r1, sp, #20
 80015c2:	4813      	ldr	r0, [pc, #76]	; (8001610 <HAL_LTDC_MspInit+0x140>)
 80015c4:	9509      	str	r5, [sp, #36]	; 0x24
 80015c6:	e9cd 3605 	strd	r3, r6, [sp, #20]
 80015ca:	e9cd 4407 	strd	r4, r4, [sp, #28]
 80015ce:	f001 fc9f 	bl	8002f10 <HAL_GPIO_Init>
 80015d2:	f64f 73fb 	movw	r3, #65531	; 0xfffb
 80015d6:	a905      	add	r1, sp, #20
 80015d8:	480e      	ldr	r0, [pc, #56]	; (8001614 <HAL_LTDC_MspInit+0x144>)
 80015da:	9509      	str	r5, [sp, #36]	; 0x24
 80015dc:	e9cd 3605 	strd	r3, r6, [sp, #20]
 80015e0:	e9cd 4407 	strd	r4, r4, [sp, #28]
 80015e4:	f001 fc94 	bl	8002f10 <HAL_GPIO_Init>
 80015e8:	f44f 7300 	mov.w	r3, #512	; 0x200
 80015ec:	a905      	add	r1, sp, #20
 80015ee:	480a      	ldr	r0, [pc, #40]	; (8001618 <HAL_LTDC_MspInit+0x148>)
 80015f0:	9509      	str	r5, [sp, #36]	; 0x24
 80015f2:	e9cd 3605 	strd	r3, r6, [sp, #20]
 80015f6:	e9cd 4407 	strd	r4, r4, [sp, #28]
 80015fa:	f001 fc89 	bl	8002f10 <HAL_GPIO_Init>
 80015fe:	b03a      	add	sp, #232	; 0xe8
 8001600:	bd70      	pop	{r4, r5, r6, pc}
 8001602:	bf00      	nop
 8001604:	50001000 	.word	0x50001000
 8001608:	58024400 	.word	0x58024400
 800160c:	58022800 	.word	0x58022800
 8001610:	58022000 	.word	0x58022000
 8001614:	58022400 	.word	0x58022400
 8001618:	58021c00 	.word	0x58021c00

0800161c <HAL_QSPI_MspInit>:
 800161c:	b5f0      	push	{r4, r5, r6, r7, lr}
 800161e:	2214      	movs	r2, #20
 8001620:	b0bb      	sub	sp, #236	; 0xec
 8001622:	4604      	mov	r4, r0
 8001624:	2100      	movs	r1, #0
 8001626:	eb0d 0002 	add.w	r0, sp, r2
 800162a:	f005 f8d5 	bl	80067d8 <memset>
 800162e:	22c0      	movs	r2, #192	; 0xc0
 8001630:	2100      	movs	r1, #0
 8001632:	a80a      	add	r0, sp, #40	; 0x28
 8001634:	f005 f8d0 	bl	80067d8 <memset>
 8001638:	6822      	ldr	r2, [r4, #0]
 800163a:	4b38      	ldr	r3, [pc, #224]	; (800171c <HAL_QSPI_MspInit+0x100>)
 800163c:	429a      	cmp	r2, r3
 800163e:	d16a      	bne.n	8001716 <HAL_QSPI_MspInit+0xfa>
 8001640:	f04f 7200 	mov.w	r2, #33554432	; 0x2000000
 8001644:	2300      	movs	r3, #0
 8001646:	a80a      	add	r0, sp, #40	; 0x28
 8001648:	e9cd 230a 	strd	r2, r3, [sp, #40]	; 0x28
 800164c:	f002 fec0 	bl	80043d0 <HAL_RCCEx_PeriphCLKConfig>
 8001650:	b108      	cbz	r0, 8001656 <HAL_QSPI_MspInit+0x3a>
 8001652:	f7ff fca1 	bl	8000f98 <Error_Handler>
 8001656:	4b32      	ldr	r3, [pc, #200]	; (8001720 <HAL_QSPI_MspInit+0x104>)
 8001658:	2502      	movs	r5, #2
 800165a:	2400      	movs	r4, #0
 800165c:	270a      	movs	r7, #10
 800165e:	f8d3 20d4 	ldr.w	r2, [r3, #212]	; 0xd4
 8001662:	a905      	add	r1, sp, #20
 8001664:	482f      	ldr	r0, [pc, #188]	; (8001724 <HAL_QSPI_MspInit+0x108>)
 8001666:	2609      	movs	r6, #9
 8001668:	f442 4280 	orr.w	r2, r2, #16384	; 0x4000
 800166c:	f8c3 20d4 	str.w	r2, [r3, #212]	; 0xd4
 8001670:	f8d3 20d4 	ldr.w	r2, [r3, #212]	; 0xd4
 8001674:	f402 4280 	and.w	r2, r2, #16384	; 0x4000
 8001678:	9201      	str	r2, [sp, #4]
 800167a:	9a01      	ldr	r2, [sp, #4]
 800167c:	f8d3 20e0 	ldr.w	r2, [r3, #224]	; 0xe0
 8001680:	f042 0202 	orr.w	r2, r2, #2
 8001684:	f8c3 20e0 	str.w	r2, [r3, #224]	; 0xe0
 8001688:	f8d3 20e0 	ldr.w	r2, [r3, #224]	; 0xe0
 800168c:	f002 0202 	and.w	r2, r2, #2
 8001690:	9202      	str	r2, [sp, #8]
 8001692:	9a02      	ldr	r2, [sp, #8]
 8001694:	f8d3 20e0 	ldr.w	r2, [r3, #224]	; 0xe0
 8001698:	f042 0220 	orr.w	r2, r2, #32
 800169c:	f8c3 20e0 	str.w	r2, [r3, #224]	; 0xe0
 80016a0:	f8d3 20e0 	ldr.w	r2, [r3, #224]	; 0xe0
 80016a4:	f002 0220 	and.w	r2, r2, #32
 80016a8:	9203      	str	r2, [sp, #12]
 80016aa:	9a03      	ldr	r2, [sp, #12]
 80016ac:	f8d3 20e0 	ldr.w	r2, [r3, #224]	; 0xe0
 80016b0:	f042 0208 	orr.w	r2, r2, #8
 80016b4:	f8c3 20e0 	str.w	r2, [r3, #224]	; 0xe0
 80016b8:	f8d3 30e0 	ldr.w	r3, [r3, #224]	; 0xe0
 80016bc:	9709      	str	r7, [sp, #36]	; 0x24
 80016be:	f003 0308 	and.w	r3, r3, #8
 80016c2:	9304      	str	r3, [sp, #16]
 80016c4:	9b04      	ldr	r3, [sp, #16]
 80016c6:	2340      	movs	r3, #64	; 0x40
 80016c8:	e9cd 4407 	strd	r4, r4, [sp, #28]
 80016cc:	e9cd 3505 	strd	r3, r5, [sp, #20]
 80016d0:	f001 fc1e 	bl	8002f10 <HAL_GPIO_Init>
 80016d4:	f44f 6398 	mov.w	r3, #1216	; 0x4c0
 80016d8:	a905      	add	r1, sp, #20
 80016da:	4813      	ldr	r0, [pc, #76]	; (8001728 <HAL_QSPI_MspInit+0x10c>)
 80016dc:	9609      	str	r6, [sp, #36]	; 0x24
 80016de:	e9cd 3505 	strd	r3, r5, [sp, #20]
 80016e2:	e9cd 4407 	strd	r4, r4, [sp, #28]
 80016e6:	f001 fc13 	bl	8002f10 <HAL_GPIO_Init>
 80016ea:	f44f 7300 	mov.w	r3, #512	; 0x200
 80016ee:	a905      	add	r1, sp, #20
 80016f0:	480d      	ldr	r0, [pc, #52]	; (8001728 <HAL_QSPI_MspInit+0x10c>)
 80016f2:	9709      	str	r7, [sp, #36]	; 0x24
 80016f4:	e9cd 3505 	strd	r3, r5, [sp, #20]
 80016f8:	e9cd 4407 	strd	r4, r4, [sp, #28]
 80016fc:	f001 fc08 	bl	8002f10 <HAL_GPIO_Init>
 8001700:	f44f 6300 	mov.w	r3, #2048	; 0x800
 8001704:	a905      	add	r1, sp, #20
 8001706:	4809      	ldr	r0, [pc, #36]	; (800172c <HAL_QSPI_MspInit+0x110>)
 8001708:	9609      	str	r6, [sp, #36]	; 0x24
 800170a:	e9cd 3505 	strd	r3, r5, [sp, #20]
 800170e:	e9cd 4407 	strd	r4, r4, [sp, #28]
 8001712:	f001 fbfd 	bl	8002f10 <HAL_GPIO_Init>
 8001716:	b03b      	add	sp, #236	; 0xec
 8001718:	bdf0      	pop	{r4, r5, r6, r7, pc}
 800171a:	bf00      	nop
 800171c:	52005000 	.word	0x52005000
 8001720:	58024400 	.word	0x58024400
 8001724:	58020400 	.word	0x58020400
 8001728:	58021400 	.word	0x58021400
 800172c:	58020c00 	.word	0x58020c00

08001730 <HAL_RTC_MspInit>:
 8001730:	b510      	push	{r4, lr}
 8001732:	b0b0      	sub	sp, #192	; 0xc0
 8001734:	4604      	mov	r4, r0
 8001736:	22c0      	movs	r2, #192	; 0xc0
 8001738:	2100      	movs	r1, #0
 800173a:	4668      	mov	r0, sp
 800173c:	f005 f84c 	bl	80067d8 <memset>
 8001740:	6822      	ldr	r2, [r4, #0]
 8001742:	4b0c      	ldr	r3, [pc, #48]	; (8001774 <HAL_RTC_MspInit+0x44>)
 8001744:	429a      	cmp	r2, r3
 8001746:	d112      	bne.n	800176e <HAL_RTC_MspInit+0x3e>
 8001748:	2300      	movs	r3, #0
 800174a:	f44f 0280 	mov.w	r2, #4194304	; 0x400000
 800174e:	4668      	mov	r0, sp
 8001750:	e9cd 2300 	strd	r2, r3, [sp]
 8001754:	f44f 7300 	mov.w	r3, #512	; 0x200
 8001758:	932d      	str	r3, [sp, #180]	; 0xb4
 800175a:	f002 fe39 	bl	80043d0 <HAL_RCCEx_PeriphCLKConfig>
 800175e:	b108      	cbz	r0, 8001764 <HAL_RTC_MspInit+0x34>
 8001760:	f7ff fc1a 	bl	8000f98 <Error_Handler>
 8001764:	4a04      	ldr	r2, [pc, #16]	; (8001778 <HAL_RTC_MspInit+0x48>)
 8001766:	6f13      	ldr	r3, [r2, #112]	; 0x70
 8001768:	f443 4300 	orr.w	r3, r3, #32768	; 0x8000
 800176c:	6713      	str	r3, [r2, #112]	; 0x70
 800176e:	b030      	add	sp, #192	; 0xc0
 8001770:	bd10      	pop	{r4, pc}
 8001772:	bf00      	nop
 8001774:	58004000 	.word	0x58004000
 8001778:	58024400 	.word	0x58024400

0800177c <HAL_SPI_MspInit>:
 800177c:	b570      	push	{r4, r5, r6, lr}
 800177e:	2214      	movs	r2, #20
 8001780:	b0ba      	sub	sp, #232	; 0xe8
 8001782:	4604      	mov	r4, r0
 8001784:	2100      	movs	r1, #0
 8001786:	eb0d 0002 	add.w	r0, sp, r2
 800178a:	f005 f825 	bl	80067d8 <memset>
 800178e:	22c0      	movs	r2, #192	; 0xc0
 8001790:	2100      	movs	r1, #0
 8001792:	a80a      	add	r0, sp, #40	; 0x28
 8001794:	f005 f820 	bl	80067d8 <memset>
 8001798:	6822      	ldr	r2, [r4, #0]
 800179a:	4b37      	ldr	r3, [pc, #220]	; (8001878 <HAL_SPI_MspInit+0xfc>)
 800179c:	429a      	cmp	r2, r3
 800179e:	d168      	bne.n	8001872 <HAL_SPI_MspInit+0xf6>
 80017a0:	f44f 5280 	mov.w	r2, #4096	; 0x1000
 80017a4:	2300      	movs	r3, #0
 80017a6:	a80a      	add	r0, sp, #40	; 0x28
 80017a8:	e9cd 230a 	strd	r2, r3, [sp, #40]	; 0x28
 80017ac:	f002 fe10 	bl	80043d0 <HAL_RCCEx_PeriphCLKConfig>
 80017b0:	b108      	cbz	r0, 80017b6 <HAL_SPI_MspInit+0x3a>
 80017b2:	f7ff fbf1 	bl	8000f98 <Error_Handler>
 80017b6:	4b31      	ldr	r3, [pc, #196]	; (800187c <HAL_SPI_MspInit+0x100>)
 80017b8:	2502      	movs	r5, #2
 80017ba:	2400      	movs	r4, #0
 80017bc:	a905      	add	r1, sp, #20
 80017be:	f8d3 20e8 	ldr.w	r2, [r3, #232]	; 0xe8
 80017c2:	2605      	movs	r6, #5
 80017c4:	482e      	ldr	r0, [pc, #184]	; (8001880 <HAL_SPI_MspInit+0x104>)
 80017c6:	f442 4280 	orr.w	r2, r2, #16384	; 0x4000
 80017ca:	f8c3 20e8 	str.w	r2, [r3, #232]	; 0xe8
 80017ce:	f8d3 20e8 	ldr.w	r2, [r3, #232]	; 0xe8
 80017d2:	f402 4280 	and.w	r2, r2, #16384	; 0x4000
 80017d6:	9201      	str	r2, [sp, #4]
 80017d8:	9a01      	ldr	r2, [sp, #4]
 80017da:	f8d3 20e0 	ldr.w	r2, [r3, #224]	; 0xe0
 80017de:	f042 0202 	orr.w	r2, r2, #2
 80017e2:	f8c3 20e0 	str.w	r2, [r3, #224]	; 0xe0
 80017e6:	f8d3 20e0 	ldr.w	r2, [r3, #224]	; 0xe0
 80017ea:	f002 0202 	and.w	r2, r2, #2
 80017ee:	9202      	str	r2, [sp, #8]
 80017f0:	9a02      	ldr	r2, [sp, #8]
 80017f2:	f8d3 20e0 	ldr.w	r2, [r3, #224]	; 0xe0
 80017f6:	f042 0208 	orr.w	r2, r2, #8
 80017fa:	f8c3 20e0 	str.w	r2, [r3, #224]	; 0xe0
 80017fe:	f8d3 20e0 	ldr.w	r2, [r3, #224]	; 0xe0
 8001802:	f002 0208 	and.w	r2, r2, #8
 8001806:	9203      	str	r2, [sp, #12]
 8001808:	9a03      	ldr	r2, [sp, #12]
 800180a:	f8d3 20e0 	ldr.w	r2, [r3, #224]	; 0xe0
 800180e:	f442 7280 	orr.w	r2, r2, #256	; 0x100
 8001812:	f8c3 20e0 	str.w	r2, [r3, #224]	; 0xe0
 8001816:	f8d3 30e0 	ldr.w	r3, [r3, #224]	; 0xe0
 800181a:	f403 7380 	and.w	r3, r3, #256	; 0x100
 800181e:	9304      	str	r3, [sp, #16]
 8001820:	9b04      	ldr	r3, [sp, #16]
 8001822:	2310      	movs	r3, #16
 8001824:	e9cd 3505 	strd	r3, r5, [sp, #20]
 8001828:	2307      	movs	r3, #7
 800182a:	e9cd 4407 	strd	r4, r4, [sp, #28]
 800182e:	9309      	str	r3, [sp, #36]	; 0x24
 8001830:	f001 fb6e 	bl	8002f10 <HAL_GPIO_Init>
 8001834:	2308      	movs	r3, #8
 8001836:	a905      	add	r1, sp, #20
 8001838:	4812      	ldr	r0, [pc, #72]	; (8001884 <HAL_SPI_MspInit+0x108>)
 800183a:	9609      	str	r6, [sp, #36]	; 0x24
 800183c:	e9cd 3505 	strd	r3, r5, [sp, #20]
 8001840:	e9cd 4407 	strd	r4, r4, [sp, #28]
 8001844:	f001 fb64 	bl	8002f10 <HAL_GPIO_Init>
 8001848:	2304      	movs	r3, #4
 800184a:	a905      	add	r1, sp, #20
 800184c:	480e      	ldr	r0, [pc, #56]	; (8001888 <HAL_SPI_MspInit+0x10c>)
 800184e:	9609      	str	r6, [sp, #36]	; 0x24
 8001850:	e9cd 3505 	strd	r3, r5, [sp, #20]
 8001854:	e9cd 4407 	strd	r4, r4, [sp, #28]
 8001858:	f001 fb5a 	bl	8002f10 <HAL_GPIO_Init>
 800185c:	f44f 4300 	mov.w	r3, #32768	; 0x8000
 8001860:	a905      	add	r1, sp, #20
 8001862:	4807      	ldr	r0, [pc, #28]	; (8001880 <HAL_SPI_MspInit+0x104>)
 8001864:	9609      	str	r6, [sp, #36]	; 0x24
 8001866:	e9cd 3505 	strd	r3, r5, [sp, #20]
 800186a:	e9cd 4407 	strd	r4, r4, [sp, #28]
 800186e:	f001 fb4f 	bl	8002f10 <HAL_GPIO_Init>
 8001872:	b03a      	add	sp, #232	; 0xe8
 8001874:	bd70      	pop	{r4, r5, r6, pc}
 8001876:	bf00      	nop
 8001878:	40003800 	.word	0x40003800
 800187c:	58024400 	.word	0x58024400
 8001880:	58020400 	.word	0x58020400
 8001884:	58020c00 	.word	0x58020c00
 8001888:	58022000 	.word	0x58022000

0800188c <HAL_UART_MspInit>:
 800188c:	b510      	push	{r4, lr}
 800188e:	b0b8      	sub	sp, #224	; 0xe0
 8001890:	4604      	mov	r4, r0
 8001892:	2214      	movs	r2, #20
 8001894:	2100      	movs	r1, #0
 8001896:	a803      	add	r0, sp, #12
 8001898:	f004 ff9e 	bl	80067d8 <memset>
 800189c:	22c0      	movs	r2, #192	; 0xc0
 800189e:	2100      	movs	r1, #0
 80018a0:	a808      	add	r0, sp, #32
 80018a2:	f004 ff99 	bl	80067d8 <memset>
 80018a6:	6822      	ldr	r2, [r4, #0]
 80018a8:	4b1a      	ldr	r3, [pc, #104]	; (8001914 <HAL_UART_MspInit+0x88>)
 80018aa:	429a      	cmp	r2, r3
 80018ac:	d130      	bne.n	8001910 <HAL_UART_MspInit+0x84>
 80018ae:	2202      	movs	r2, #2
 80018b0:	2300      	movs	r3, #0
 80018b2:	a808      	add	r0, sp, #32
 80018b4:	e9cd 2308 	strd	r2, r3, [sp, #32]
 80018b8:	f002 fd8a 	bl	80043d0 <HAL_RCCEx_PeriphCLKConfig>
 80018bc:	b108      	cbz	r0, 80018c2 <HAL_UART_MspInit+0x36>
 80018be:	f7ff fb6b 	bl	8000f98 <Error_Handler>
 80018c2:	4b15      	ldr	r3, [pc, #84]	; (8001918 <HAL_UART_MspInit+0x8c>)
 80018c4:	a903      	add	r1, sp, #12
 80018c6:	4815      	ldr	r0, [pc, #84]	; (800191c <HAL_UART_MspInit+0x90>)
 80018c8:	f8d3 20e8 	ldr.w	r2, [r3, #232]	; 0xe8
 80018cc:	f442 2280 	orr.w	r2, r2, #262144	; 0x40000
 80018d0:	f8c3 20e8 	str.w	r2, [r3, #232]	; 0xe8
 80018d4:	f8d3 20e8 	ldr.w	r2, [r3, #232]	; 0xe8
 80018d8:	f402 2280 	and.w	r2, r2, #262144	; 0x40000
 80018dc:	9201      	str	r2, [sp, #4]
 80018de:	9a01      	ldr	r2, [sp, #4]
 80018e0:	f8d3 20e0 	ldr.w	r2, [r3, #224]	; 0xe0
 80018e4:	f042 0202 	orr.w	r2, r2, #2
 80018e8:	f8c3 20e0 	str.w	r2, [r3, #224]	; 0xe0
 80018ec:	f44f 6240 	mov.w	r2, #3072	; 0xc00
 80018f0:	f8d3 30e0 	ldr.w	r3, [r3, #224]	; 0xe0
 80018f4:	f003 0302 	and.w	r3, r3, #2
 80018f8:	9302      	str	r3, [sp, #8]
 80018fa:	9b02      	ldr	r3, [sp, #8]
 80018fc:	2302      	movs	r3, #2
 80018fe:	e9cd 2303 	strd	r2, r3, [sp, #12]
 8001902:	2300      	movs	r3, #0
 8001904:	e9cd 3305 	strd	r3, r3, [sp, #20]
 8001908:	2307      	movs	r3, #7
 800190a:	9307      	str	r3, [sp, #28]
 800190c:	f001 fb00 	bl	8002f10 <HAL_GPIO_Init>
 8001910:	b038      	add	sp, #224	; 0xe0
 8001912:	bd10      	pop	{r4, pc}
 8001914:	40004800 	.word	0x40004800
 8001918:	58024400 	.word	0x58024400
 800191c:	58020400 	.word	0x58020400

08001920 <HAL_PCD_MspInit>:
 8001920:	b530      	push	{r4, r5, lr}
 8001922:	b0b9      	sub	sp, #228	; 0xe4
 8001924:	4604      	mov	r4, r0
 8001926:	2214      	movs	r2, #20
 8001928:	2100      	movs	r1, #0
 800192a:	a803      	add	r0, sp, #12
 800192c:	f004 ff54 	bl	80067d8 <memset>
 8001930:	22c0      	movs	r2, #192	; 0xc0
 8001932:	2100      	movs	r1, #0
 8001934:	a808      	add	r0, sp, #32
 8001936:	f004 ff4f 	bl	80067d8 <memset>
 800193a:	6822      	ldr	r2, [r4, #0]
 800193c:	4b22      	ldr	r3, [pc, #136]	; (80019c8 <HAL_PCD_MspInit+0xa8>)
 800193e:	429a      	cmp	r2, r3
 8001940:	d13f      	bne.n	80019c2 <HAL_PCD_MspInit+0xa2>
 8001942:	2300      	movs	r3, #0
 8001944:	f44f 2280 	mov.w	r2, #262144	; 0x40000
 8001948:	a808      	add	r0, sp, #32
 800194a:	e9cd 2308 	strd	r2, r3, [sp, #32]
 800194e:	f44f 1380 	mov.w	r3, #1048576	; 0x100000
 8001952:	932a      	str	r3, [sp, #168]	; 0xa8
 8001954:	f002 fd3c 	bl	80043d0 <HAL_RCCEx_PeriphCLKConfig>
 8001958:	b108      	cbz	r0, 800195e <HAL_PCD_MspInit+0x3e>
 800195a:	f7ff fb1d 	bl	8000f98 <Error_Handler>
 800195e:	4c1b      	ldr	r4, [pc, #108]	; (80019cc <HAL_PCD_MspInit+0xac>)
 8001960:	f001 ff0e 	bl	8003780 <HAL_PWREx_EnableUSBVoltageDetector>
 8001964:	2500      	movs	r5, #0
 8001966:	a903      	add	r1, sp, #12
 8001968:	f8d4 30e0 	ldr.w	r3, [r4, #224]	; 0xe0
 800196c:	4818      	ldr	r0, [pc, #96]	; (80019d0 <HAL_PCD_MspInit+0xb0>)
 800196e:	f043 0301 	orr.w	r3, r3, #1
 8001972:	f8c4 30e0 	str.w	r3, [r4, #224]	; 0xe0
 8001976:	f8d4 30e0 	ldr.w	r3, [r4, #224]	; 0xe0
 800197a:	9505      	str	r5, [sp, #20]
 800197c:	f003 0301 	and.w	r3, r3, #1
 8001980:	9301      	str	r3, [sp, #4]
 8001982:	9b01      	ldr	r3, [sp, #4]
 8001984:	f44f 7300 	mov.w	r3, #512	; 0x200
 8001988:	e9cd 3503 	strd	r3, r5, [sp, #12]
 800198c:	f001 fac0 	bl	8002f10 <HAL_GPIO_Init>
 8001990:	f44f 52c0 	mov.w	r2, #6144	; 0x1800
 8001994:	2302      	movs	r3, #2
 8001996:	a903      	add	r1, sp, #12
 8001998:	480d      	ldr	r0, [pc, #52]	; (80019d0 <HAL_PCD_MspInit+0xb0>)
 800199a:	e9cd 2303 	strd	r2, r3, [sp, #12]
 800199e:	230a      	movs	r3, #10
 80019a0:	e9cd 5505 	strd	r5, r5, [sp, #20]
 80019a4:	9307      	str	r3, [sp, #28]
 80019a6:	f001 fab3 	bl	8002f10 <HAL_GPIO_Init>
 80019aa:	f8d4 30d8 	ldr.w	r3, [r4, #216]	; 0xd8
 80019ae:	f043 6300 	orr.w	r3, r3, #134217728	; 0x8000000
 80019b2:	f8c4 30d8 	str.w	r3, [r4, #216]	; 0xd8
 80019b6:	f8d4 30d8 	ldr.w	r3, [r4, #216]	; 0xd8
 80019ba:	f003 6300 	and.w	r3, r3, #134217728	; 0x8000000
 80019be:	9302      	str	r3, [sp, #8]
 80019c0:	9b02      	ldr	r3, [sp, #8]
 80019c2:	b039      	add	sp, #228	; 0xe4
 80019c4:	bd30      	pop	{r4, r5, pc}
 80019c6:	bf00      	nop
 80019c8:	40080000 	.word	0x40080000
 80019cc:	58024400 	.word	0x58024400
 80019d0:	58020000 	.word	0x58020000

080019d4 <HAL_SDRAM_MspInit>:
 80019d4:	b5f0      	push	{r4, r5, r6, r7, lr}
 80019d6:	b0b7      	sub	sp, #220	; 0xdc
 80019d8:	2100      	movs	r1, #0
 80019da:	2214      	movs	r2, #20
 80019dc:	a801      	add	r0, sp, #4
 80019de:	f004 fefb 	bl	80067d8 <memset>
 80019e2:	4b2f      	ldr	r3, [pc, #188]	; (8001aa0 <HAL_SDRAM_MspInit+0xcc>)
 80019e4:	6819      	ldr	r1, [r3, #0]
 80019e6:	2900      	cmp	r1, #0
 80019e8:	d157      	bne.n	8001a9a <HAL_SDRAM_MspInit+0xc6>
 80019ea:	2201      	movs	r2, #1
 80019ec:	a808      	add	r0, sp, #32
 80019ee:	601a      	str	r2, [r3, #0]
 80019f0:	22b8      	movs	r2, #184	; 0xb8
 80019f2:	f004 fef1 	bl	80067d8 <memset>
 80019f6:	f04f 7280 	mov.w	r2, #16777216	; 0x1000000
 80019fa:	2300      	movs	r3, #0
 80019fc:	a806      	add	r0, sp, #24
 80019fe:	e9cd 2306 	strd	r2, r3, [sp, #24]
 8001a02:	f002 fce5 	bl	80043d0 <HAL_RCCEx_PeriphCLKConfig>
 8001a06:	b108      	cbz	r0, 8001a0c <HAL_SDRAM_MspInit+0x38>
 8001a08:	f7ff fac6 	bl	8000f98 <Error_Handler>
 8001a0c:	4b25      	ldr	r3, [pc, #148]	; (8001aa4 <HAL_SDRAM_MspInit+0xd0>)
 8001a0e:	2702      	movs	r7, #2
 8001a10:	2600      	movs	r6, #0
 8001a12:	2503      	movs	r5, #3
 8001a14:	f8d3 20d4 	ldr.w	r2, [r3, #212]	; 0xd4
 8001a18:	240c      	movs	r4, #12
 8001a1a:	a901      	add	r1, sp, #4
 8001a1c:	4822      	ldr	r0, [pc, #136]	; (8001aa8 <HAL_SDRAM_MspInit+0xd4>)
 8001a1e:	f442 5280 	orr.w	r2, r2, #4096	; 0x1000
 8001a22:	f8c3 20d4 	str.w	r2, [r3, #212]	; 0xd4
 8001a26:	f8d3 30d4 	ldr.w	r3, [r3, #212]	; 0xd4
 8001a2a:	9405      	str	r4, [sp, #20]
 8001a2c:	f403 5380 	and.w	r3, r3, #4096	; 0x1000
 8001a30:	9300      	str	r3, [sp, #0]
 8001a32:	9b00      	ldr	r3, [sp, #0]
 8001a34:	f64f 7383 	movw	r3, #65411	; 0xff83
 8001a38:	e9cd 6503 	strd	r6, r5, [sp, #12]
 8001a3c:	e9cd 3701 	strd	r3, r7, [sp, #4]
 8001a40:	f001 fa66 	bl	8002f10 <HAL_GPIO_Init>
 8001a44:	f248 1333 	movw	r3, #33075	; 0x8133
 8001a48:	a901      	add	r1, sp, #4
 8001a4a:	4818      	ldr	r0, [pc, #96]	; (8001aac <HAL_SDRAM_MspInit+0xd8>)
 8001a4c:	9405      	str	r4, [sp, #20]
 8001a4e:	e9cd 3701 	strd	r3, r7, [sp, #4]
 8001a52:	e9cd 6503 	strd	r6, r5, [sp, #12]
 8001a56:	f001 fa5b 	bl	8002f10 <HAL_GPIO_Init>
 8001a5a:	f24c 7303 	movw	r3, #50947	; 0xc703
 8001a5e:	a901      	add	r1, sp, #4
 8001a60:	4813      	ldr	r0, [pc, #76]	; (8001ab0 <HAL_SDRAM_MspInit+0xdc>)
 8001a62:	9405      	str	r4, [sp, #20]
 8001a64:	e9cd 3701 	strd	r3, r7, [sp, #4]
 8001a68:	e9cd 6503 	strd	r6, r5, [sp, #12]
 8001a6c:	f001 fa50 	bl	8002f10 <HAL_GPIO_Init>
 8001a70:	f64f 033f 	movw	r3, #63551	; 0xf83f
 8001a74:	a901      	add	r1, sp, #4
 8001a76:	480f      	ldr	r0, [pc, #60]	; (8001ab4 <HAL_SDRAM_MspInit+0xe0>)
 8001a78:	9405      	str	r4, [sp, #20]
 8001a7a:	e9cd 3701 	strd	r3, r7, [sp, #4]
 8001a7e:	e9cd 6503 	strd	r6, r5, [sp, #12]
 8001a82:	f001 fa45 	bl	8002f10 <HAL_GPIO_Init>
 8001a86:	23e0      	movs	r3, #224	; 0xe0
 8001a88:	a901      	add	r1, sp, #4
 8001a8a:	480b      	ldr	r0, [pc, #44]	; (8001ab8 <HAL_SDRAM_MspInit+0xe4>)
 8001a8c:	9405      	str	r4, [sp, #20]
 8001a8e:	e9cd 3701 	strd	r3, r7, [sp, #4]
 8001a92:	e9cd 6503 	strd	r6, r5, [sp, #12]
 8001a96:	f001 fa3b 	bl	8002f10 <HAL_GPIO_Init>
 8001a9a:	b037      	add	sp, #220	; 0xdc
 8001a9c:	bdf0      	pop	{r4, r5, r6, r7, pc}
 8001a9e:	bf00      	nop
 8001aa0:	24000d70 	.word	0x24000d70
 8001aa4:	58024400 	.word	0x58024400
 8001aa8:	58021000 	.word	0x58021000
 8001aac:	58021800 	.word	0x58021800
 8001ab0:	58020c00 	.word	0x58020c00
 8001ab4:	58021400 	.word	0x58021400
 8001ab8:	58021c00 	.word	0x58021c00

08001abc <HAL_SAI_MspInit>:
 8001abc:	b510      	push	{r4, lr}
 8001abe:	b0b8      	sub	sp, #224	; 0xe0
 8001ac0:	4604      	mov	r4, r0
 8001ac2:	22c0      	movs	r2, #192	; 0xc0
 8001ac4:	2100      	movs	r1, #0
 8001ac6:	a808      	add	r0, sp, #32
 8001ac8:	f004 fe86 	bl	80067d8 <memset>
 8001acc:	6822      	ldr	r2, [r4, #0]
 8001ace:	4b30      	ldr	r3, [pc, #192]	; (8001b90 <HAL_SAI_MspInit+0xd4>)
 8001ad0:	429a      	cmp	r2, r3
 8001ad2:	d129      	bne.n	8001b28 <HAL_SAI_MspInit+0x6c>
 8001ad4:	f44f 7200 	mov.w	r2, #512	; 0x200
 8001ad8:	2300      	movs	r3, #0
 8001ada:	a808      	add	r0, sp, #32
 8001adc:	e9cd 2308 	strd	r2, r3, [sp, #32]
 8001ae0:	f002 fc76 	bl	80043d0 <HAL_RCCEx_PeriphCLKConfig>
 8001ae4:	b108      	cbz	r0, 8001aea <HAL_SAI_MspInit+0x2e>
 8001ae6:	f7ff fa57 	bl	8000f98 <Error_Handler>
 8001aea:	482a      	ldr	r0, [pc, #168]	; (8001b94 <HAL_SAI_MspInit+0xd8>)
 8001aec:	6803      	ldr	r3, [r0, #0]
 8001aee:	b963      	cbnz	r3, 8001b0a <HAL_SAI_MspInit+0x4e>
 8001af0:	4a29      	ldr	r2, [pc, #164]	; (8001b98 <HAL_SAI_MspInit+0xdc>)
 8001af2:	f8d2 10f0 	ldr.w	r1, [r2, #240]	; 0xf0
 8001af6:	f441 0100 	orr.w	r1, r1, #8388608	; 0x800000
 8001afa:	f8c2 10f0 	str.w	r1, [r2, #240]	; 0xf0
 8001afe:	f8d2 20f0 	ldr.w	r2, [r2, #240]	; 0xf0
 8001b02:	f402 0200 	and.w	r2, r2, #8388608	; 0x800000
 8001b06:	9201      	str	r2, [sp, #4]
 8001b08:	9a01      	ldr	r2, [sp, #4]
 8001b0a:	3301      	adds	r3, #1
 8001b0c:	21f0      	movs	r1, #240	; 0xf0
 8001b0e:	6003      	str	r3, [r0, #0]
 8001b10:	2302      	movs	r3, #2
 8001b12:	4822      	ldr	r0, [pc, #136]	; (8001b9c <HAL_SAI_MspInit+0xe0>)
 8001b14:	e9cd 1303 	strd	r1, r3, [sp, #12]
 8001b18:	2300      	movs	r3, #0
 8001b1a:	a903      	add	r1, sp, #12
 8001b1c:	e9cd 3305 	strd	r3, r3, [sp, #20]
 8001b20:	230a      	movs	r3, #10
 8001b22:	9307      	str	r3, [sp, #28]
 8001b24:	f001 f9f4 	bl	8002f10 <HAL_GPIO_Init>
 8001b28:	6822      	ldr	r2, [r4, #0]
 8001b2a:	4b1d      	ldr	r3, [pc, #116]	; (8001ba0 <HAL_SAI_MspInit+0xe4>)
 8001b2c:	429a      	cmp	r2, r3
 8001b2e:	d12c      	bne.n	8001b8a <HAL_SAI_MspInit+0xce>
 8001b30:	2300      	movs	r3, #0
 8001b32:	f44f 7200 	mov.w	r2, #512	; 0x200
 8001b36:	a808      	add	r0, sp, #32
 8001b38:	e9cd 2308 	strd	r2, r3, [sp, #32]
 8001b3c:	2300      	movs	r3, #0
 8001b3e:	931f      	str	r3, [sp, #124]	; 0x7c
 8001b40:	f002 fc46 	bl	80043d0 <HAL_RCCEx_PeriphCLKConfig>
 8001b44:	b108      	cbz	r0, 8001b4a <HAL_SAI_MspInit+0x8e>
 8001b46:	f7ff fa27 	bl	8000f98 <Error_Handler>
 8001b4a:	4812      	ldr	r0, [pc, #72]	; (8001b94 <HAL_SAI_MspInit+0xd8>)
 8001b4c:	6803      	ldr	r3, [r0, #0]
 8001b4e:	b963      	cbnz	r3, 8001b6a <HAL_SAI_MspInit+0xae>
 8001b50:	4a11      	ldr	r2, [pc, #68]	; (8001b98 <HAL_SAI_MspInit+0xdc>)
 8001b52:	f8d2 10f0 	ldr.w	r1, [r2, #240]	; 0xf0
 8001b56:	f441 0100 	orr.w	r1, r1, #8388608	; 0x800000
 8001b5a:	f8c2 10f0 	str.w	r1, [r2, #240]	; 0xf0
 8001b5e:	f8d2 20f0 	ldr.w	r2, [r2, #240]	; 0xf0
 8001b62:	f402 0200 	and.w	r2, r2, #8388608	; 0x800000
 8001b66:	9202      	str	r2, [sp, #8]
 8001b68:	9a02      	ldr	r2, [sp, #8]
 8001b6a:	3301      	adds	r3, #1
 8001b6c:	f44f 6280 	mov.w	r2, #1024	; 0x400
 8001b70:	a903      	add	r1, sp, #12
 8001b72:	6003      	str	r3, [r0, #0]
 8001b74:	2302      	movs	r3, #2
 8001b76:	480b      	ldr	r0, [pc, #44]	; (8001ba4 <HAL_SAI_MspInit+0xe8>)
 8001b78:	e9cd 2303 	strd	r2, r3, [sp, #12]
 8001b7c:	2300      	movs	r3, #0
 8001b7e:	e9cd 3305 	strd	r3, r3, [sp, #20]
 8001b82:	230a      	movs	r3, #10
 8001b84:	9307      	str	r3, [sp, #28]
 8001b86:	f001 f9c3 	bl	8002f10 <HAL_GPIO_Init>
 8001b8a:	b038      	add	sp, #224	; 0xe0
 8001b8c:	bd10      	pop	{r4, pc}
 8001b8e:	bf00      	nop
 8001b90:	40015c04 	.word	0x40015c04
 8001b94:	24000d7c 	.word	0x24000d7c
 8001b98:	58024400 	.word	0x58024400
 8001b9c:	58022000 	.word	0x58022000
 8001ba0:	40015c24 	.word	0x40015c24
 8001ba4:	58021800 	.word	0x58021800

08001ba8 <NMI_Handler>:
 8001ba8:	e7fe      	b.n	8001ba8 <NMI_Handler>

08001baa <HardFault_Handler>:
 8001baa:	e7fe      	b.n	8001baa <HardFault_Handler>

08001bac <MemManage_Handler>:
 8001bac:	e7fe      	b.n	8001bac <MemManage_Handler>

08001bae <BusFault_Handler>:
 8001bae:	e7fe      	b.n	8001bae <BusFault_Handler>

08001bb0 <UsageFault_Handler>:
 8001bb0:	e7fe      	b.n	8001bb0 <UsageFault_Handler>

08001bb2 <SVC_Handler>:
 8001bb2:	4770      	bx	lr

08001bb4 <DebugMon_Handler>:
 8001bb4:	4770      	bx	lr

08001bb6 <PendSV_Handler>:
 8001bb6:	4770      	bx	lr

08001bb8 <SysTick_Handler>:
 8001bb8:	f000 b8de 	b.w	8001d78 <HAL_IncTick>

08001bbc <SystemInit>:
 8001bbc:	4a25      	ldr	r2, [pc, #148]	; (8001c54 <SystemInit+0x98>)
 8001bbe:	f8d2 3088 	ldr.w	r3, [r2, #136]	; 0x88
 8001bc2:	f443 0370 	orr.w	r3, r3, #15728640	; 0xf00000
 8001bc6:	f8c2 3088 	str.w	r3, [r2, #136]	; 0x88
 8001bca:	4a23      	ldr	r2, [pc, #140]	; (8001c58 <SystemInit+0x9c>)
 8001bcc:	6813      	ldr	r3, [r2, #0]
 8001bce:	f003 030f 	and.w	r3, r3, #15
 8001bd2:	2b06      	cmp	r3, #6
 8001bd4:	d805      	bhi.n	8001be2 <SystemInit+0x26>
 8001bd6:	6813      	ldr	r3, [r2, #0]
 8001bd8:	f023 030f 	bic.w	r3, r3, #15
 8001bdc:	f043 0307 	orr.w	r3, r3, #7
 8001be0:	6013      	str	r3, [r2, #0]
 8001be2:	4b1e      	ldr	r3, [pc, #120]	; (8001c5c <SystemInit+0xa0>)
 8001be4:	681a      	ldr	r2, [r3, #0]
 8001be6:	f042 0201 	orr.w	r2, r2, #1
 8001bea:	601a      	str	r2, [r3, #0]
 8001bec:	2200      	movs	r2, #0
 8001bee:	611a      	str	r2, [r3, #16]
 8001bf0:	4a1b      	ldr	r2, [pc, #108]	; (8001c60 <SystemInit+0xa4>)
 8001bf2:	6819      	ldr	r1, [r3, #0]
 8001bf4:	400a      	ands	r2, r1
 8001bf6:	4918      	ldr	r1, [pc, #96]	; (8001c58 <SystemInit+0x9c>)
 8001bf8:	601a      	str	r2, [r3, #0]
 8001bfa:	680a      	ldr	r2, [r1, #0]
 8001bfc:	0712      	lsls	r2, r2, #28
 8001bfe:	d505      	bpl.n	8001c0c <SystemInit+0x50>
 8001c00:	680a      	ldr	r2, [r1, #0]
 8001c02:	f022 020f 	bic.w	r2, r2, #15
 8001c06:	f042 0207 	orr.w	r2, r2, #7
 8001c0a:	600a      	str	r2, [r1, #0]
 8001c0c:	2200      	movs	r2, #0
 8001c0e:	4915      	ldr	r1, [pc, #84]	; (8001c64 <SystemInit+0xa8>)
 8001c10:	619a      	str	r2, [r3, #24]
 8001c12:	61da      	str	r2, [r3, #28]
 8001c14:	621a      	str	r2, [r3, #32]
 8001c16:	6299      	str	r1, [r3, #40]	; 0x28
 8001c18:	4913      	ldr	r1, [pc, #76]	; (8001c68 <SystemInit+0xac>)
 8001c1a:	62d9      	str	r1, [r3, #44]	; 0x2c
 8001c1c:	4913      	ldr	r1, [pc, #76]	; (8001c6c <SystemInit+0xb0>)
 8001c1e:	6319      	str	r1, [r3, #48]	; 0x30
 8001c20:	635a      	str	r2, [r3, #52]	; 0x34
 8001c22:	6399      	str	r1, [r3, #56]	; 0x38
 8001c24:	63da      	str	r2, [r3, #60]	; 0x3c
 8001c26:	6419      	str	r1, [r3, #64]	; 0x40
 8001c28:	645a      	str	r2, [r3, #68]	; 0x44
 8001c2a:	6819      	ldr	r1, [r3, #0]
 8001c2c:	f421 2180 	bic.w	r1, r1, #262144	; 0x40000
 8001c30:	6019      	str	r1, [r3, #0]
 8001c32:	661a      	str	r2, [r3, #96]	; 0x60
 8001c34:	4b0e      	ldr	r3, [pc, #56]	; (8001c70 <SystemInit+0xb4>)
 8001c36:	681b      	ldr	r3, [r3, #0]
 8001c38:	0c1b      	lsrs	r3, r3, #16
 8001c3a:	041b      	lsls	r3, r3, #16
 8001c3c:	f1b3 5f00 	cmp.w	r3, #536870912	; 0x20000000
 8001c40:	d203      	bcs.n	8001c4a <SystemInit+0x8e>
 8001c42:	4b0c      	ldr	r3, [pc, #48]	; (8001c74 <SystemInit+0xb8>)
 8001c44:	2201      	movs	r2, #1
 8001c46:	f8c3 2108 	str.w	r2, [r3, #264]	; 0x108
 8001c4a:	4b0b      	ldr	r3, [pc, #44]	; (8001c78 <SystemInit+0xbc>)
 8001c4c:	f243 02d2 	movw	r2, #12498	; 0x30d2
 8001c50:	601a      	str	r2, [r3, #0]
 8001c52:	4770      	bx	lr
 8001c54:	e000ed00 	.word	0xe000ed00
 8001c58:	52002000 	.word	0x52002000
 8001c5c:	58024400 	.word	0x58024400
 8001c60:	eaf6ed7f 	.word	0xeaf6ed7f
 8001c64:	02020200 	.word	0x02020200
 8001c68:	01ff0000 	.word	0x01ff0000
 8001c6c:	01010280 	.word	0x01010280
 8001c70:	5c001000 	.word	0x5c001000
 8001c74:	51008000 	.word	0x51008000
 8001c78:	52004000 	.word	0x52004000

08001c7c <Reset_Handler>:
 8001c7c:	f8df d034 	ldr.w	sp, [pc, #52]	; 8001cb4 <LoopFillZerobss+0xe>
 8001c80:	f7ff ff9c 	bl	8001bbc <SystemInit>
 8001c84:	480c      	ldr	r0, [pc, #48]	; (8001cb8 <LoopFillZerobss+0x12>)
 8001c86:	490d      	ldr	r1, [pc, #52]	; (8001cbc <LoopFillZerobss+0x16>)
 8001c88:	4a0d      	ldr	r2, [pc, #52]	; (8001cc0 <LoopFillZerobss+0x1a>)
 8001c8a:	2300      	movs	r3, #0
 8001c8c:	e002      	b.n	8001c94 <LoopCopyDataInit>

08001c8e <CopyDataInit>:
 8001c8e:	58d4      	ldr	r4, [r2, r3]
 8001c90:	50c4      	str	r4, [r0, r3]
 8001c92:	3304      	adds	r3, #4

08001c94 <LoopCopyDataInit>:
 8001c94:	18c4      	adds	r4, r0, r3
 8001c96:	428c      	cmp	r4, r1
 8001c98:	d3f9      	bcc.n	8001c8e <CopyDataInit>
 8001c9a:	4a0a      	ldr	r2, [pc, #40]	; (8001cc4 <LoopFillZerobss+0x1e>)
 8001c9c:	4c0a      	ldr	r4, [pc, #40]	; (8001cc8 <LoopFillZerobss+0x22>)
 8001c9e:	2300      	movs	r3, #0
 8001ca0:	e001      	b.n	8001ca6 <LoopFillZerobss>

08001ca2 <FillZerobss>:
 8001ca2:	6013      	str	r3, [r2, #0]
 8001ca4:	3204      	adds	r2, #4

08001ca6 <LoopFillZerobss>:
 8001ca6:	42a2      	cmp	r2, r4
 8001ca8:	d3fb      	bcc.n	8001ca2 <FillZerobss>
 8001caa:	f004 fd9d 	bl	80067e8 <__libc_init_array>
 8001cae:	f7fe fd47 	bl	8000740 <main>
 8001cb2:	4770      	bx	lr
 8001cb4:	24080000 	.word	0x24080000
 8001cb8:	24000000 	.word	0x24000000
 8001cbc:	24000010 	.word	0x24000010
 8001cc0:	08006968 	.word	0x08006968
 8001cc4:	240000d0 	.word	0x240000d0
 8001cc8:	24000d84 	.word	0x24000d84

08001ccc <ADC3_IRQHandler>:
 8001ccc:	e7fe      	b.n	8001ccc <ADC3_IRQHandler>
	...

08001cd0 <HAL_InitTick>:
 8001cd0:	b538      	push	{r3, r4, r5, lr}
 8001cd2:	4b0f      	ldr	r3, [pc, #60]	; (8001d10 <HAL_InitTick+0x40>)
 8001cd4:	4605      	mov	r5, r0
 8001cd6:	781a      	ldrb	r2, [r3, #0]
 8001cd8:	b90a      	cbnz	r2, 8001cde <HAL_InitTick+0xe>
 8001cda:	2001      	movs	r0, #1
 8001cdc:	bd38      	pop	{r3, r4, r5, pc}
 8001cde:	f44f 737a 	mov.w	r3, #1000	; 0x3e8
 8001ce2:	fbb3 f3f2 	udiv	r3, r3, r2
 8001ce6:	4a0b      	ldr	r2, [pc, #44]	; (8001d14 <HAL_InitTick+0x44>)
 8001ce8:	6810      	ldr	r0, [r2, #0]
 8001cea:	fbb0 f0f3 	udiv	r0, r0, r3
 8001cee:	f000 fcbd 	bl	800266c <HAL_SYSTICK_Config>
 8001cf2:	4604      	mov	r4, r0
 8001cf4:	2800      	cmp	r0, #0
 8001cf6:	d1f0      	bne.n	8001cda <HAL_InitTick+0xa>
 8001cf8:	2d0f      	cmp	r5, #15
 8001cfa:	d8ee      	bhi.n	8001cda <HAL_InitTick+0xa>
 8001cfc:	4602      	mov	r2, r0
 8001cfe:	4629      	mov	r1, r5
 8001d00:	f04f 30ff 	mov.w	r0, #4294967295
 8001d04:	f000 fc80 	bl	8002608 <HAL_NVIC_SetPriority>
 8001d08:	4b03      	ldr	r3, [pc, #12]	; (8001d18 <HAL_InitTick+0x48>)
 8001d0a:	4620      	mov	r0, r4
 8001d0c:	601d      	str	r5, [r3, #0]
 8001d0e:	e7e5      	b.n	8001cdc <HAL_InitTick+0xc>
 8001d10:	24000008 	.word	0x24000008
 8001d14:	24000000 	.word	0x24000000
 8001d18:	2400000c 	.word	0x2400000c

08001d1c <HAL_Init>:
 8001d1c:	b510      	push	{r4, lr}
 8001d1e:	2003      	movs	r0, #3
 8001d20:	f000 fc60 	bl	80025e4 <HAL_NVIC_SetPriorityGrouping>
 8001d24:	f002 f856 	bl	8003dd4 <HAL_RCC_GetSysClockFreq>
 8001d28:	490f      	ldr	r1, [pc, #60]	; (8001d68 <HAL_Init+0x4c>)
 8001d2a:	4a10      	ldr	r2, [pc, #64]	; (8001d6c <HAL_Init+0x50>)
 8001d2c:	698b      	ldr	r3, [r1, #24]
 8001d2e:	f3c3 2303 	ubfx	r3, r3, #8, #4
 8001d32:	5cd3      	ldrb	r3, [r2, r3]
 8001d34:	f003 031f 	and.w	r3, r3, #31
 8001d38:	40d8      	lsrs	r0, r3
 8001d3a:	698b      	ldr	r3, [r1, #24]
 8001d3c:	f003 030f 	and.w	r3, r3, #15
 8001d40:	5cd3      	ldrb	r3, [r2, r3]
 8001d42:	4a0b      	ldr	r2, [pc, #44]	; (8001d70 <HAL_Init+0x54>)
 8001d44:	f003 031f 	and.w	r3, r3, #31
 8001d48:	fa20 f303 	lsr.w	r3, r0, r3
 8001d4c:	6013      	str	r3, [r2, #0]
 8001d4e:	4b09      	ldr	r3, [pc, #36]	; (8001d74 <HAL_Init+0x58>)
 8001d50:	6018      	str	r0, [r3, #0]
 8001d52:	2000      	movs	r0, #0
 8001d54:	f7ff ffbc 	bl	8001cd0 <HAL_InitTick>
 8001d58:	4604      	mov	r4, r0
 8001d5a:	b918      	cbnz	r0, 8001d64 <HAL_Init+0x48>
 8001d5c:	f7ff f91e 	bl	8000f9c <HAL_MspInit>
 8001d60:	4620      	mov	r0, r4
 8001d62:	bd10      	pop	{r4, pc}
 8001d64:	2401      	movs	r4, #1
 8001d66:	e7fb      	b.n	8001d60 <HAL_Init+0x44>
 8001d68:	58024400 	.word	0x58024400
 8001d6c:	080068e2 	.word	0x080068e2
 8001d70:	24000004 	.word	0x24000004
 8001d74:	24000000 	.word	0x24000000

08001d78 <HAL_IncTick>:
 8001d78:	4a03      	ldr	r2, [pc, #12]	; (8001d88 <HAL_IncTick+0x10>)
 8001d7a:	4b04      	ldr	r3, [pc, #16]	; (8001d8c <HAL_IncTick+0x14>)
 8001d7c:	6811      	ldr	r1, [r2, #0]
 8001d7e:	781b      	ldrb	r3, [r3, #0]
 8001d80:	440b      	add	r3, r1
 8001d82:	6013      	str	r3, [r2, #0]
 8001d84:	4770      	bx	lr
 8001d86:	bf00      	nop
 8001d88:	24000d80 	.word	0x24000d80
 8001d8c:	24000008 	.word	0x24000008

08001d90 <HAL_GetTick>:
 8001d90:	4b01      	ldr	r3, [pc, #4]	; (8001d98 <HAL_GetTick+0x8>)
 8001d92:	6818      	ldr	r0, [r3, #0]
 8001d94:	4770      	bx	lr
 8001d96:	bf00      	nop
 8001d98:	24000d80 	.word	0x24000d80

08001d9c <HAL_Delay>:
 8001d9c:	b538      	push	{r3, r4, r5, lr}
 8001d9e:	4604      	mov	r4, r0
 8001da0:	f7ff fff6 	bl	8001d90 <HAL_GetTick>
 8001da4:	4605      	mov	r5, r0
 8001da6:	1c63      	adds	r3, r4, #1
 8001da8:	bf1e      	ittt	ne
 8001daa:	4b04      	ldrne	r3, [pc, #16]	; (8001dbc <HAL_Delay+0x20>)
 8001dac:	781b      	ldrbne	r3, [r3, #0]
 8001dae:	18e4      	addne	r4, r4, r3
 8001db0:	f7ff ffee 	bl	8001d90 <HAL_GetTick>
 8001db4:	1b43      	subs	r3, r0, r5
 8001db6:	42a3      	cmp	r3, r4
 8001db8:	d3fa      	bcc.n	8001db0 <HAL_Delay+0x14>
 8001dba:	bd38      	pop	{r3, r4, r5, pc}
 8001dbc:	24000008 	.word	0x24000008

08001dc0 <HAL_GetREVID>:
 8001dc0:	4b01      	ldr	r3, [pc, #4]	; (8001dc8 <HAL_GetREVID+0x8>)
 8001dc2:	6818      	ldr	r0, [r3, #0]
 8001dc4:	0c00      	lsrs	r0, r0, #16
 8001dc6:	4770      	bx	lr
 8001dc8:	5c001000 	.word	0x5c001000

08001dcc <HAL_SYSCFG_ETHInterfaceSelect>:
 8001dcc:	4a03      	ldr	r2, [pc, #12]	; (8001ddc <HAL_SYSCFG_ETHInterfaceSelect+0x10>)
 8001dce:	6853      	ldr	r3, [r2, #4]
 8001dd0:	f423 0360 	bic.w	r3, r3, #14680064	; 0xe00000
 8001dd4:	4318      	orrs	r0, r3
 8001dd6:	6050      	str	r0, [r2, #4]
 8001dd8:	4770      	bx	lr
 8001dda:	bf00      	nop
 8001ddc:	58000400 	.word	0x58000400

08001de0 <HAL_SYSCFG_AnalogSwitchConfig>:
 8001de0:	4a03      	ldr	r2, [pc, #12]	; (8001df0 <HAL_SYSCFG_AnalogSwitchConfig+0x10>)
 8001de2:	6853      	ldr	r3, [r2, #4]
 8001de4:	ea23 0000 	bic.w	r0, r3, r0
 8001de8:	4301      	orrs	r1, r0
 8001dea:	6051      	str	r1, [r2, #4]
 8001dec:	4770      	bx	lr
 8001dee:	bf00      	nop
 8001df0:	58000400 	.word	0x58000400

08001df4 <LL_ADC_SetChannelSamplingTime>:
 8001df4:	b530      	push	{r4, r5, lr}
 8001df6:	0dcc      	lsrs	r4, r1, #23
 8001df8:	3014      	adds	r0, #20
 8001dfa:	f3c1 5104 	ubfx	r1, r1, #20, #5
 8001dfe:	2507      	movs	r5, #7
 8001e00:	f004 0404 	and.w	r4, r4, #4
 8001e04:	408d      	lsls	r5, r1
 8001e06:	408a      	lsls	r2, r1
 8001e08:	5903      	ldr	r3, [r0, r4]
 8001e0a:	ea23 0305 	bic.w	r3, r3, r5
 8001e0e:	4313      	orrs	r3, r2
 8001e10:	5103      	str	r3, [r0, r4]
 8001e12:	bd30      	pop	{r4, r5, pc}

08001e14 <LL_ADC_IsEnabled>:
 8001e14:	6880      	ldr	r0, [r0, #8]
 8001e16:	f000 0001 	and.w	r0, r0, #1
 8001e1a:	4770      	bx	lr

08001e1c <LL_ADC_REG_IsConversionOngoing>:
 8001e1c:	6880      	ldr	r0, [r0, #8]
 8001e1e:	f3c0 0080 	ubfx	r0, r0, #2, #1
 8001e22:	4770      	bx	lr

08001e24 <HAL_ADC_ConfigChannel>:
 8001e24:	2300      	movs	r3, #0
 8001e26:	b5f7      	push	{r0, r1, r2, r4, r5, r6, r7, lr}
 8001e28:	9301      	str	r3, [sp, #4]
 8001e2a:	4605      	mov	r5, r0
 8001e2c:	f890 3050 	ldrb.w	r3, [r0, #80]	; 0x50
 8001e30:	460e      	mov	r6, r1
 8001e32:	2b01      	cmp	r3, #1
 8001e34:	f000 81c5 	beq.w	80021c2 <HAL_ADC_ConfigChannel+0x39e>
 8001e38:	2301      	movs	r3, #1
 8001e3a:	6804      	ldr	r4, [r0, #0]
 8001e3c:	f880 3050 	strb.w	r3, [r0, #80]	; 0x50
 8001e40:	4620      	mov	r0, r4
 8001e42:	f7ff ffeb 	bl	8001e1c <LL_ADC_REG_IsConversionOngoing>
 8001e46:	2800      	cmp	r0, #0
 8001e48:	f040 81b6 	bne.w	80021b8 <HAL_ADC_ConfigChannel+0x394>
 8001e4c:	680a      	ldr	r2, [r1, #0]
 8001e4e:	f3c2 0013 	ubfx	r0, r2, #0, #20
 8001e52:	f3c2 6184 	ubfx	r1, r2, #26, #5
 8001e56:	2800      	cmp	r0, #0
 8001e58:	d169      	bne.n	8001f2e <HAL_ADC_ConfigChannel+0x10a>
 8001e5a:	408b      	lsls	r3, r1
 8001e5c:	69e2      	ldr	r2, [r4, #28]
 8001e5e:	f104 0c30 	add.w	ip, r4, #48	; 0x30
 8001e62:	271f      	movs	r7, #31
 8001e64:	4313      	orrs	r3, r2
 8001e66:	6872      	ldr	r2, [r6, #4]
 8001e68:	0990      	lsrs	r0, r2, #6
 8001e6a:	f002 021f 	and.w	r2, r2, #31
 8001e6e:	61e3      	str	r3, [r4, #28]
 8001e70:	f000 000c 	and.w	r0, r0, #12
 8001e74:	4097      	lsls	r7, r2
 8001e76:	4091      	lsls	r1, r2
 8001e78:	f85c 3000 	ldr.w	r3, [ip, r0]
 8001e7c:	ea23 0307 	bic.w	r3, r3, r7
 8001e80:	430b      	orrs	r3, r1
 8001e82:	f84c 3000 	str.w	r3, [ip, r0]
 8001e86:	4620      	mov	r0, r4
 8001e88:	f7ff ffc8 	bl	8001e1c <LL_ADC_REG_IsConversionOngoing>
 8001e8c:	68a3      	ldr	r3, [r4, #8]
 8001e8e:	f003 0308 	and.w	r3, r3, #8
 8001e92:	4318      	orrs	r0, r3
 8001e94:	d13f      	bne.n	8001f16 <HAL_ADC_ConfigChannel+0xf2>
 8001e96:	68b2      	ldr	r2, [r6, #8]
 8001e98:	4620      	mov	r0, r4
 8001e9a:	6831      	ldr	r1, [r6, #0]
 8001e9c:	f7ff ffaa 	bl	8001df4 <LL_ADC_SetChannelSamplingTime>
 8001ea0:	4bb8      	ldr	r3, [pc, #736]	; (8002184 <HAL_ADC_ConfigChannel+0x360>)
 8001ea2:	6972      	ldr	r2, [r6, #20]
 8001ea4:	681b      	ldr	r3, [r3, #0]
 8001ea6:	f003 4370 	and.w	r3, r3, #4026531840	; 0xf0000000
 8001eaa:	f1b3 5f80 	cmp.w	r3, #268435456	; 0x10000000
 8001eae:	68e3      	ldr	r3, [r4, #12]
 8001eb0:	d146      	bne.n	8001f40 <HAL_ADC_ConfigChannel+0x11c>
 8001eb2:	f3c3 0382 	ubfx	r3, r3, #2, #3
 8001eb6:	005b      	lsls	r3, r3, #1
 8001eb8:	6937      	ldr	r7, [r6, #16]
 8001eba:	409a      	lsls	r2, r3
 8001ebc:	6831      	ldr	r1, [r6, #0]
 8001ebe:	2f04      	cmp	r7, #4
 8001ec0:	d046      	beq.n	8001f50 <HAL_ADC_ConfigChannel+0x12c>
 8001ec2:	f104 0060 	add.w	r0, r4, #96	; 0x60
 8001ec6:	f001 41f8 	and.w	r1, r1, #2080374784	; 0x7c000000
 8001eca:	f850 3027 	ldr.w	r3, [r0, r7, lsl #2]
 8001ece:	f003 4300 	and.w	r3, r3, #2147483648	; 0x80000000
 8001ed2:	430b      	orrs	r3, r1
 8001ed4:	4313      	orrs	r3, r2
 8001ed6:	f840 3027 	str.w	r3, [r0, r7, lsl #2]
 8001eda:	7e72      	ldrb	r2, [r6, #25]
 8001edc:	6931      	ldr	r1, [r6, #16]
 8001ede:	1e57      	subs	r7, r2, #1
 8001ee0:	f850 3021 	ldr.w	r3, [r0, r1, lsl #2]
 8001ee4:	427a      	negs	r2, r7
 8001ee6:	f023 4300 	bic.w	r3, r3, #2147483648	; 0x80000000
 8001eea:	417a      	adcs	r2, r7
 8001eec:	ea43 73c2 	orr.w	r3, r3, r2, lsl #31
 8001ef0:	f840 3021 	str.w	r3, [r0, r1, lsl #2]
 8001ef4:	7e33      	ldrb	r3, [r6, #24]
 8001ef6:	6931      	ldr	r1, [r6, #16]
 8001ef8:	f103 3cff 	add.w	ip, r3, #4294967295
 8001efc:	6922      	ldr	r2, [r4, #16]
 8001efe:	f001 011f 	and.w	r1, r1, #31
 8001f02:	f1dc 0300 	rsbs	r3, ip, #0
 8001f06:	f422 42f0 	bic.w	r2, r2, #30720	; 0x7800
 8001f0a:	eb43 030c 	adc.w	r3, r3, ip
 8001f0e:	02db      	lsls	r3, r3, #11
 8001f10:	408b      	lsls	r3, r1
 8001f12:	4313      	orrs	r3, r2
 8001f14:	6123      	str	r3, [r4, #16]
 8001f16:	4620      	mov	r0, r4
 8001f18:	f7ff ff7c 	bl	8001e14 <LL_ADC_IsEnabled>
 8001f1c:	2800      	cmp	r0, #0
 8001f1e:	d03e      	beq.n	8001f9e <HAL_ADC_ConfigChannel+0x17a>
 8001f20:	2300      	movs	r3, #0
 8001f22:	2200      	movs	r2, #0
 8001f24:	f885 2050 	strb.w	r2, [r5, #80]	; 0x50
 8001f28:	4618      	mov	r0, r3
 8001f2a:	b003      	add	sp, #12
 8001f2c:	bdf0      	pop	{r4, r5, r6, r7, pc}
 8001f2e:	fa92 f2a2 	rbit	r2, r2
 8001f32:	fab2 f282 	clz	r2, r2
 8001f36:	2301      	movs	r3, #1
 8001f38:	f002 021f 	and.w	r2, r2, #31
 8001f3c:	4093      	lsls	r3, r2
 8001f3e:	e78d      	b.n	8001e5c <HAL_ADC_ConfigChannel+0x38>
 8001f40:	f013 0f10 	tst.w	r3, #16
 8001f44:	68e3      	ldr	r3, [r4, #12]
 8001f46:	d0b4      	beq.n	8001eb2 <HAL_ADC_ConfigChannel+0x8e>
 8001f48:	085b      	lsrs	r3, r3, #1
 8001f4a:	f003 0308 	and.w	r3, r3, #8
 8001f4e:	e7b3      	b.n	8001eb8 <HAL_ADC_ConfigChannel+0x94>
 8001f50:	6e23      	ldr	r3, [r4, #96]	; 0x60
 8001f52:	068a      	lsls	r2, r1, #26
 8001f54:	f003 43f8 	and.w	r3, r3, #2080374784	; 0x7c000000
 8001f58:	ebb3 6f81 	cmp.w	r3, r1, lsl #26
 8001f5c:	d103      	bne.n	8001f66 <HAL_ADC_ConfigChannel+0x142>
 8001f5e:	6e23      	ldr	r3, [r4, #96]	; 0x60
 8001f60:	f023 4300 	bic.w	r3, r3, #2147483648	; 0x80000000
 8001f64:	6623      	str	r3, [r4, #96]	; 0x60
 8001f66:	6e63      	ldr	r3, [r4, #100]	; 0x64
 8001f68:	f003 43f8 	and.w	r3, r3, #2080374784	; 0x7c000000
 8001f6c:	429a      	cmp	r2, r3
 8001f6e:	d103      	bne.n	8001f78 <HAL_ADC_ConfigChannel+0x154>
 8001f70:	6e63      	ldr	r3, [r4, #100]	; 0x64
 8001f72:	f023 4300 	bic.w	r3, r3, #2147483648	; 0x80000000
 8001f76:	6663      	str	r3, [r4, #100]	; 0x64
 8001f78:	6ea3      	ldr	r3, [r4, #104]	; 0x68
 8001f7a:	f003 43f8 	and.w	r3, r3, #2080374784	; 0x7c000000
 8001f7e:	429a      	cmp	r2, r3
 8001f80:	d103      	bne.n	8001f8a <HAL_ADC_ConfigChannel+0x166>
 8001f82:	6ea3      	ldr	r3, [r4, #104]	; 0x68
 8001f84:	f023 4300 	bic.w	r3, r3, #2147483648	; 0x80000000
 8001f88:	66a3      	str	r3, [r4, #104]	; 0x68
 8001f8a:	6ee3      	ldr	r3, [r4, #108]	; 0x6c
 8001f8c:	f003 43f8 	and.w	r3, r3, #2080374784	; 0x7c000000
 8001f90:	429a      	cmp	r2, r3
 8001f92:	d1c0      	bne.n	8001f16 <HAL_ADC_ConfigChannel+0xf2>
 8001f94:	6ee3      	ldr	r3, [r4, #108]	; 0x6c
 8001f96:	f023 4300 	bic.w	r3, r3, #2147483648	; 0x80000000
 8001f9a:	66e3      	str	r3, [r4, #108]	; 0x6c
 8001f9c:	e7bb      	b.n	8001f16 <HAL_ADC_ConfigChannel+0xf2>
 8001f9e:	68f7      	ldr	r7, [r6, #12]
 8001fa0:	6833      	ldr	r3, [r6, #0]
 8001fa2:	f007 0c18 	and.w	ip, r7, #24
 8001fa6:	4a78      	ldr	r2, [pc, #480]	; (8002188 <HAL_ADC_ConfigChannel+0x364>)
 8001fa8:	f8d4 10c0 	ldr.w	r1, [r4, #192]	; 0xc0
 8001fac:	f3c3 0013 	ubfx	r0, r3, #0, #20
 8001fb0:	fa22 f20c 	lsr.w	r2, r2, ip
 8001fb4:	ea21 0100 	bic.w	r1, r1, r0
 8001fb8:	401a      	ands	r2, r3
 8001fba:	430a      	orrs	r2, r1
 8001fbc:	f8c4 20c0 	str.w	r2, [r4, #192]	; 0xc0
 8001fc0:	4a72      	ldr	r2, [pc, #456]	; (800218c <HAL_ADC_ConfigChannel+0x368>)
 8001fc2:	4297      	cmp	r7, r2
 8001fc4:	d145      	bne.n	8002052 <HAL_ADC_ConfigChannel+0x22e>
 8001fc6:	b9d0      	cbnz	r0, 8001ffe <HAL_ADC_ConfigChannel+0x1da>
 8001fc8:	0e9a      	lsrs	r2, r3, #26
 8001fca:	2101      	movs	r1, #1
 8001fcc:	3201      	adds	r2, #1
 8001fce:	f002 071f 	and.w	r7, r2, #31
 8001fd2:	0692      	lsls	r2, r2, #26
 8001fd4:	2f09      	cmp	r7, #9
 8001fd6:	f002 42f8 	and.w	r2, r2, #2080374784	; 0x7c000000
 8001fda:	fa01 f107 	lsl.w	r1, r1, r7
 8001fde:	d929      	bls.n	8002034 <HAL_ADC_ConfigChannel+0x210>
 8001fe0:	4311      	orrs	r1, r2
 8001fe2:	2800      	cmp	r0, #0
 8001fe4:	f040 808b 	bne.w	80020fe <HAL_ADC_ConfigChannel+0x2da>
 8001fe8:	0e9b      	lsrs	r3, r3, #26
 8001fea:	3301      	adds	r3, #1
 8001fec:	f003 031f 	and.w	r3, r3, #31
 8001ff0:	eb03 0343 	add.w	r3, r3, r3, lsl #1
 8001ff4:	3b1e      	subs	r3, #30
 8001ff6:	051b      	lsls	r3, r3, #20
 8001ff8:	f043 7300 	orr.w	r3, r3, #33554432	; 0x2000000
 8001ffc:	e024      	b.n	8002048 <HAL_ADC_ConfigChannel+0x224>
 8001ffe:	fa93 f2a3 	rbit	r2, r3
 8002002:	b132      	cbz	r2, 8002012 <HAL_ADC_ConfigChannel+0x1ee>
 8002004:	fab2 f282 	clz	r2, r2
 8002008:	3201      	adds	r2, #1
 800200a:	f002 021f 	and.w	r2, r2, #31
 800200e:	2a09      	cmp	r2, #9
 8002010:	d863      	bhi.n	80020da <HAL_ADC_ConfigChannel+0x2b6>
 8002012:	fa93 f2a3 	rbit	r2, r3
 8002016:	fab2 f282 	clz	r2, r2
 800201a:	3201      	adds	r2, #1
 800201c:	0692      	lsls	r2, r2, #26
 800201e:	f002 42f8 	and.w	r2, r2, #2080374784	; 0x7c000000
 8002022:	fa93 f7a3 	rbit	r7, r3
 8002026:	fab7 f787 	clz	r7, r7
 800202a:	2101      	movs	r1, #1
 800202c:	3701      	adds	r7, #1
 800202e:	f007 071f 	and.w	r7, r7, #31
 8002032:	40b9      	lsls	r1, r7
 8002034:	4311      	orrs	r1, r2
 8002036:	2800      	cmp	r0, #0
 8002038:	d14a      	bne.n	80020d0 <HAL_ADC_ConfigChannel+0x2ac>
 800203a:	0e9b      	lsrs	r3, r3, #26
 800203c:	3301      	adds	r3, #1
 800203e:	f003 031f 	and.w	r3, r3, #31
 8002042:	eb03 0343 	add.w	r3, r3, r3, lsl #1
 8002046:	051b      	lsls	r3, r3, #20
 8002048:	4319      	orrs	r1, r3
 800204a:	68b2      	ldr	r2, [r6, #8]
 800204c:	4620      	mov	r0, r4
 800204e:	f7ff fed1 	bl	8001df4 <LL_ADC_SetChannelSamplingTime>
 8002052:	6832      	ldr	r2, [r6, #0]
 8002054:	2a00      	cmp	r2, #0
 8002056:	f6bf af63 	bge.w	8001f20 <HAL_ADC_ConfigChannel+0xfc>
 800205a:	494d      	ldr	r1, [pc, #308]	; (8002190 <HAL_ADC_ConfigChannel+0x36c>)
 800205c:	428c      	cmp	r4, r1
 800205e:	d05b      	beq.n	8002118 <HAL_ADC_ConfigChannel+0x2f4>
 8002060:	4e4c      	ldr	r6, [pc, #304]	; (8002194 <HAL_ADC_ConfigChannel+0x370>)
 8002062:	4b4d      	ldr	r3, [pc, #308]	; (8002198 <HAL_ADC_ConfigChannel+0x374>)
 8002064:	484d      	ldr	r0, [pc, #308]	; (800219c <HAL_ADC_ConfigChannel+0x378>)
 8002066:	42b4      	cmp	r4, r6
 8002068:	bf18      	it	ne
 800206a:	4603      	movne	r3, r0
 800206c:	428c      	cmp	r4, r1
 800206e:	689b      	ldr	r3, [r3, #8]
 8002070:	d002      	beq.n	8002078 <HAL_ADC_ConfigChannel+0x254>
 8002072:	4948      	ldr	r1, [pc, #288]	; (8002194 <HAL_ADC_ConfigChannel+0x370>)
 8002074:	428c      	cmp	r4, r1
 8002076:	d151      	bne.n	800211c <HAL_ADC_ConfigChannel+0x2f8>
 8002078:	4845      	ldr	r0, [pc, #276]	; (8002190 <HAL_ADC_ConfigChannel+0x36c>)
 800207a:	f7ff fecb 	bl	8001e14 <LL_ADC_IsEnabled>
 800207e:	4601      	mov	r1, r0
 8002080:	4844      	ldr	r0, [pc, #272]	; (8002194 <HAL_ADC_ConfigChannel+0x370>)
 8002082:	f7ff fec7 	bl	8001e14 <LL_ADC_IsEnabled>
 8002086:	4308      	orrs	r0, r1
 8002088:	d14d      	bne.n	8002126 <HAL_ADC_ConfigChannel+0x302>
 800208a:	4845      	ldr	r0, [pc, #276]	; (80021a0 <HAL_ADC_ConfigChannel+0x37c>)
 800208c:	f003 71e0 	and.w	r1, r3, #29360128	; 0x1c00000
 8002090:	4282      	cmp	r2, r0
 8002092:	d14e      	bne.n	8002132 <HAL_ADC_ConfigChannel+0x30e>
 8002094:	021b      	lsls	r3, r3, #8
 8002096:	f53f af43 	bmi.w	8001f20 <HAL_ADC_ConfigChannel+0xfc>
 800209a:	4b42      	ldr	r3, [pc, #264]	; (80021a4 <HAL_ADC_ConfigChannel+0x380>)
 800209c:	429c      	cmp	r4, r3
 800209e:	f47f af3f 	bne.w	8001f20 <HAL_ADC_ConfigChannel+0xfc>
 80020a2:	4a3e      	ldr	r2, [pc, #248]	; (800219c <HAL_ADC_ConfigChannel+0x378>)
 80020a4:	6893      	ldr	r3, [r2, #8]
 80020a6:	f023 73e0 	bic.w	r3, r3, #29360128	; 0x1c00000
 80020aa:	430b      	orrs	r3, r1
 80020ac:	f443 0300 	orr.w	r3, r3, #8388608	; 0x800000
 80020b0:	6093      	str	r3, [r2, #8]
 80020b2:	4b3d      	ldr	r3, [pc, #244]	; (80021a8 <HAL_ADC_ConfigChannel+0x384>)
 80020b4:	4a3d      	ldr	r2, [pc, #244]	; (80021ac <HAL_ADC_ConfigChannel+0x388>)
 80020b6:	681b      	ldr	r3, [r3, #0]
 80020b8:	fbb3 f3f2 	udiv	r3, r3, r2
 80020bc:	3301      	adds	r3, #1
 80020be:	005b      	lsls	r3, r3, #1
 80020c0:	9301      	str	r3, [sp, #4]
 80020c2:	9b01      	ldr	r3, [sp, #4]
 80020c4:	2b00      	cmp	r3, #0
 80020c6:	f43f af2b 	beq.w	8001f20 <HAL_ADC_ConfigChannel+0xfc>
 80020ca:	9b01      	ldr	r3, [sp, #4]
 80020cc:	3b01      	subs	r3, #1
 80020ce:	e7f7      	b.n	80020c0 <HAL_ADC_ConfigChannel+0x29c>
 80020d0:	fa93 f3a3 	rbit	r3, r3
 80020d4:	fab3 f383 	clz	r3, r3
 80020d8:	e7b0      	b.n	800203c <HAL_ADC_ConfigChannel+0x218>
 80020da:	fa93 f2a3 	rbit	r2, r3
 80020de:	fab2 f282 	clz	r2, r2
 80020e2:	3201      	adds	r2, #1
 80020e4:	0692      	lsls	r2, r2, #26
 80020e6:	f002 42f8 	and.w	r2, r2, #2080374784	; 0x7c000000
 80020ea:	fa93 f7a3 	rbit	r7, r3
 80020ee:	fab7 f787 	clz	r7, r7
 80020f2:	2101      	movs	r1, #1
 80020f4:	3701      	adds	r7, #1
 80020f6:	f007 071f 	and.w	r7, r7, #31
 80020fa:	40b9      	lsls	r1, r7
 80020fc:	e770      	b.n	8001fe0 <HAL_ADC_ConfigChannel+0x1bc>
 80020fe:	fa93 f2a3 	rbit	r2, r3
 8002102:	fab2 f282 	clz	r2, r2
 8002106:	2303      	movs	r3, #3
 8002108:	f06f 001d 	mvn.w	r0, #29
 800210c:	3201      	adds	r2, #1
 800210e:	f002 021f 	and.w	r2, r2, #31
 8002112:	fb13 0302 	smlabb	r3, r3, r2, r0
 8002116:	e76e      	b.n	8001ff6 <HAL_ADC_ConfigChannel+0x1d2>
 8002118:	4b1f      	ldr	r3, [pc, #124]	; (8002198 <HAL_ADC_ConfigChannel+0x374>)
 800211a:	e7a7      	b.n	800206c <HAL_ADC_ConfigChannel+0x248>
 800211c:	4821      	ldr	r0, [pc, #132]	; (80021a4 <HAL_ADC_ConfigChannel+0x380>)
 800211e:	f7ff fe79 	bl	8001e14 <LL_ADC_IsEnabled>
 8002122:	2800      	cmp	r0, #0
 8002124:	d0b1      	beq.n	800208a <HAL_ADC_ConfigChannel+0x266>
 8002126:	6d6b      	ldr	r3, [r5, #84]	; 0x54
 8002128:	f043 0320 	orr.w	r3, r3, #32
 800212c:	656b      	str	r3, [r5, #84]	; 0x54
 800212e:	2301      	movs	r3, #1
 8002130:	e6f7      	b.n	8001f22 <HAL_ADC_ConfigChannel+0xfe>
 8002132:	481f      	ldr	r0, [pc, #124]	; (80021b0 <HAL_ADC_ConfigChannel+0x38c>)
 8002134:	4282      	cmp	r2, r0
 8002136:	d110      	bne.n	800215a <HAL_ADC_ConfigChannel+0x336>
 8002138:	f013 7380 	ands.w	r3, r3, #16777216	; 0x1000000
 800213c:	f47f aef0 	bne.w	8001f20 <HAL_ADC_ConfigChannel+0xfc>
 8002140:	4a18      	ldr	r2, [pc, #96]	; (80021a4 <HAL_ADC_ConfigChannel+0x380>)
 8002142:	4294      	cmp	r4, r2
 8002144:	f47f aeec 	bne.w	8001f20 <HAL_ADC_ConfigChannel+0xfc>
 8002148:	4814      	ldr	r0, [pc, #80]	; (800219c <HAL_ADC_ConfigChannel+0x378>)
 800214a:	6882      	ldr	r2, [r0, #8]
 800214c:	f022 72e0 	bic.w	r2, r2, #29360128	; 0x1c00000
 8002150:	430a      	orrs	r2, r1
 8002152:	f042 7280 	orr.w	r2, r2, #16777216	; 0x1000000
 8002156:	6082      	str	r2, [r0, #8]
 8002158:	e6e3      	b.n	8001f22 <HAL_ADC_ConfigChannel+0xfe>
 800215a:	4816      	ldr	r0, [pc, #88]	; (80021b4 <HAL_ADC_ConfigChannel+0x390>)
 800215c:	4282      	cmp	r2, r0
 800215e:	f47f aedf 	bne.w	8001f20 <HAL_ADC_ConfigChannel+0xfc>
 8002162:	f413 0380 	ands.w	r3, r3, #4194304	; 0x400000
 8002166:	f47f aedb 	bne.w	8001f20 <HAL_ADC_ConfigChannel+0xfc>
 800216a:	4a0e      	ldr	r2, [pc, #56]	; (80021a4 <HAL_ADC_ConfigChannel+0x380>)
 800216c:	4294      	cmp	r4, r2
 800216e:	f47f aed7 	bne.w	8001f20 <HAL_ADC_ConfigChannel+0xfc>
 8002172:	480a      	ldr	r0, [pc, #40]	; (800219c <HAL_ADC_ConfigChannel+0x378>)
 8002174:	6882      	ldr	r2, [r0, #8]
 8002176:	f022 72e0 	bic.w	r2, r2, #29360128	; 0x1c00000
 800217a:	430a      	orrs	r2, r1
 800217c:	f442 0280 	orr.w	r2, r2, #4194304	; 0x400000
 8002180:	e7e9      	b.n	8002156 <HAL_ADC_ConfigChannel+0x332>
 8002182:	bf00      	nop
 8002184:	5c001000 	.word	0x5c001000
 8002188:	000fffff 	.word	0x000fffff
 800218c:	47ff0000 	.word	0x47ff0000
 8002190:	40022000 	.word	0x40022000
 8002194:	40022100 	.word	0x40022100
 8002198:	40022300 	.word	0x40022300
 800219c:	58026300 	.word	0x58026300
 80021a0:	cb840000 	.word	0xcb840000
 80021a4:	58026000 	.word	0x58026000
 80021a8:	24000000 	.word	0x24000000
 80021ac:	00030d40 	.word	0x00030d40
 80021b0:	c7520000 	.word	0xc7520000
 80021b4:	cfb80000 	.word	0xcfb80000
 80021b8:	6d6a      	ldr	r2, [r5, #84]	; 0x54
 80021ba:	f042 0220 	orr.w	r2, r2, #32
 80021be:	656a      	str	r2, [r5, #84]	; 0x54
 80021c0:	e6af      	b.n	8001f22 <HAL_ADC_ConfigChannel+0xfe>
 80021c2:	2302      	movs	r3, #2
 80021c4:	e6b0      	b.n	8001f28 <HAL_ADC_ConfigChannel+0x104>
 80021c6:	bf00      	nop

080021c8 <ADC_ConfigureBoostMode>:
 80021c8:	b538      	push	{r3, r4, r5, lr}
 80021ca:	4a43      	ldr	r2, [pc, #268]	; (80022d8 <ADC_ConfigureBoostMode+0x110>)
 80021cc:	4605      	mov	r5, r0
 80021ce:	6803      	ldr	r3, [r0, #0]
 80021d0:	4293      	cmp	r3, r2
 80021d2:	d003      	beq.n	80021dc <ADC_ConfigureBoostMode+0x14>
 80021d4:	f502 7280 	add.w	r2, r2, #256	; 0x100
 80021d8:	4293      	cmp	r3, r2
 80021da:	d125      	bne.n	8002228 <ADC_ConfigureBoostMode+0x60>
 80021dc:	4b3f      	ldr	r3, [pc, #252]	; (80022dc <ADC_ConfigureBoostMode+0x114>)
 80021de:	689b      	ldr	r3, [r3, #8]
 80021e0:	f413 3f40 	tst.w	r3, #196608	; 0x30000
 80021e4:	bf14      	ite	ne
 80021e6:	2301      	movne	r3, #1
 80021e8:	2300      	moveq	r3, #0
 80021ea:	b9fb      	cbnz	r3, 800222c <ADC_ConfigureBoostMode+0x64>
 80021ec:	f44f 2000 	mov.w	r0, #524288	; 0x80000
 80021f0:	2100      	movs	r1, #0
 80021f2:	f003 f811 	bl	8005218 <HAL_RCCEx_GetPeriphCLKFreq>
 80021f6:	686b      	ldr	r3, [r5, #4]
 80021f8:	4604      	mov	r4, r0
 80021fa:	f5b3 1f10 	cmp.w	r3, #2359296	; 0x240000
 80021fe:	d04a      	beq.n	8002296 <ADC_ConfigureBoostMode+0xce>
 8002200:	d83f      	bhi.n	8002282 <ADC_ConfigureBoostMode+0xba>
 8002202:	f5b3 1fe0 	cmp.w	r3, #1835008	; 0x1c0000
 8002206:	d044      	beq.n	8002292 <ADC_ConfigureBoostMode+0xca>
 8002208:	d836      	bhi.n	8002278 <ADC_ConfigureBoostMode+0xb0>
 800220a:	f5b3 1f80 	cmp.w	r3, #1048576	; 0x100000
 800220e:	d008      	beq.n	8002222 <ADC_ConfigureBoostMode+0x5a>
 8002210:	d82c      	bhi.n	800226c <ADC_ConfigureBoostMode+0xa4>
 8002212:	f5b3 2f00 	cmp.w	r3, #524288	; 0x80000
 8002216:	d004      	beq.n	8002222 <ADC_ConfigureBoostMode+0x5a>
 8002218:	f423 2200 	bic.w	r2, r3, #524288	; 0x80000
 800221c:	f5b2 2f80 	cmp.w	r2, #262144	; 0x40000
 8002220:	d116      	bne.n	8002250 <ADC_ConfigureBoostMode+0x88>
 8002222:	0c9b      	lsrs	r3, r3, #18
 8002224:	005b      	lsls	r3, r3, #1
 8002226:	e00f      	b.n	8002248 <ADC_ConfigureBoostMode+0x80>
 8002228:	4b2d      	ldr	r3, [pc, #180]	; (80022e0 <ADC_ConfigureBoostMode+0x118>)
 800222a:	e7d8      	b.n	80021de <ADC_ConfigureBoostMode+0x16>
 800222c:	f001 ff9a 	bl	8004164 <HAL_RCC_GetHCLKFreq>
 8002230:	686b      	ldr	r3, [r5, #4]
 8002232:	4604      	mov	r4, r0
 8002234:	f5b3 3f00 	cmp.w	r3, #131072	; 0x20000
 8002238:	d005      	beq.n	8002246 <ADC_ConfigureBoostMode+0x7e>
 800223a:	f5b3 3f40 	cmp.w	r3, #196608	; 0x30000
 800223e:	d006      	beq.n	800224e <ADC_ConfigureBoostMode+0x86>
 8002240:	f5b3 3f80 	cmp.w	r3, #65536	; 0x10000
 8002244:	d104      	bne.n	8002250 <ADC_ConfigureBoostMode+0x88>
 8002246:	0c1b      	lsrs	r3, r3, #16
 8002248:	fbb4 f4f3 	udiv	r4, r4, r3
 800224c:	e000      	b.n	8002250 <ADC_ConfigureBoostMode+0x88>
 800224e:	0884      	lsrs	r4, r0, #2
 8002250:	f7ff fdb6 	bl	8001dc0 <HAL_GetREVID>
 8002254:	f241 0303 	movw	r3, #4099	; 0x1003
 8002258:	4298      	cmp	r0, r3
 800225a:	682b      	ldr	r3, [r5, #0]
 800225c:	d823      	bhi.n	80022a6 <ADC_ConfigureBoostMode+0xde>
 800225e:	4a21      	ldr	r2, [pc, #132]	; (80022e4 <ADC_ConfigureBoostMode+0x11c>)
 8002260:	4294      	cmp	r4, r2
 8002262:	689a      	ldr	r2, [r3, #8]
 8002264:	d91b      	bls.n	800229e <ADC_ConfigureBoostMode+0xd6>
 8002266:	f442 7280 	orr.w	r2, r2, #256	; 0x100
 800226a:	e01a      	b.n	80022a2 <ADC_ConfigureBoostMode+0xda>
 800226c:	f5b3 1fa0 	cmp.w	r3, #1310720	; 0x140000
 8002270:	d0d7      	beq.n	8002222 <ADC_ConfigureBoostMode+0x5a>
 8002272:	f5b3 1fc0 	cmp.w	r3, #1572864	; 0x180000
 8002276:	e7d3      	b.n	8002220 <ADC_ConfigureBoostMode+0x58>
 8002278:	f5b3 1f00 	cmp.w	r3, #2097152	; 0x200000
 800227c:	d1e8      	bne.n	8002250 <ADC_ConfigureBoostMode+0x88>
 800227e:	0944      	lsrs	r4, r0, #5
 8002280:	e7e6      	b.n	8002250 <ADC_ConfigureBoostMode+0x88>
 8002282:	f5b3 1f20 	cmp.w	r3, #2621440	; 0x280000
 8002286:	d008      	beq.n	800229a <ADC_ConfigureBoostMode+0xd2>
 8002288:	f5b3 1f30 	cmp.w	r3, #2883584	; 0x2c0000
 800228c:	d1e0      	bne.n	8002250 <ADC_ConfigureBoostMode+0x88>
 800228e:	0a04      	lsrs	r4, r0, #8
 8002290:	e7de      	b.n	8002250 <ADC_ConfigureBoostMode+0x88>
 8002292:	0904      	lsrs	r4, r0, #4
 8002294:	e7dc      	b.n	8002250 <ADC_ConfigureBoostMode+0x88>
 8002296:	0984      	lsrs	r4, r0, #6
 8002298:	e7da      	b.n	8002250 <ADC_ConfigureBoostMode+0x88>
 800229a:	09c4      	lsrs	r4, r0, #7
 800229c:	e7d8      	b.n	8002250 <ADC_ConfigureBoostMode+0x88>
 800229e:	f422 7280 	bic.w	r2, r2, #256	; 0x100
 80022a2:	609a      	str	r2, [r3, #8]
 80022a4:	bd38      	pop	{r3, r4, r5, pc}
 80022a6:	4a10      	ldr	r2, [pc, #64]	; (80022e8 <ADC_ConfigureBoostMode+0x120>)
 80022a8:	4294      	cmp	r4, r2
 80022aa:	d803      	bhi.n	80022b4 <ADC_ConfigureBoostMode+0xec>
 80022ac:	689a      	ldr	r2, [r3, #8]
 80022ae:	f422 7240 	bic.w	r2, r2, #768	; 0x300
 80022b2:	e7f6      	b.n	80022a2 <ADC_ConfigureBoostMode+0xda>
 80022b4:	4a0d      	ldr	r2, [pc, #52]	; (80022ec <ADC_ConfigureBoostMode+0x124>)
 80022b6:	4294      	cmp	r4, r2
 80022b8:	d803      	bhi.n	80022c2 <ADC_ConfigureBoostMode+0xfa>
 80022ba:	689a      	ldr	r2, [r3, #8]
 80022bc:	f422 7240 	bic.w	r2, r2, #768	; 0x300
 80022c0:	e7d1      	b.n	8002266 <ADC_ConfigureBoostMode+0x9e>
 80022c2:	4a0b      	ldr	r2, [pc, #44]	; (80022f0 <ADC_ConfigureBoostMode+0x128>)
 80022c4:	4294      	cmp	r4, r2
 80022c6:	689a      	ldr	r2, [r3, #8]
 80022c8:	bf96      	itet	ls
 80022ca:	f422 7240 	bicls.w	r2, r2, #768	; 0x300
 80022ce:	f442 7240 	orrhi.w	r2, r2, #768	; 0x300
 80022d2:	f442 7200 	orrls.w	r2, r2, #512	; 0x200
 80022d6:	e7e4      	b.n	80022a2 <ADC_ConfigureBoostMode+0xda>
 80022d8:	40022000 	.word	0x40022000
 80022dc:	40022300 	.word	0x40022300
 80022e0:	58026300 	.word	0x58026300
 80022e4:	01312d00 	.word	0x01312d00
 80022e8:	00bebc21 	.word	0x00bebc21
 80022ec:	017d7841 	.word	0x017d7841
 80022f0:	02faf081 	.word	0x02faf081

080022f4 <HAL_ADC_Init>:
 80022f4:	2300      	movs	r3, #0
 80022f6:	b573      	push	{r0, r1, r4, r5, r6, lr}
 80022f8:	4604      	mov	r4, r0
 80022fa:	9301      	str	r3, [sp, #4]
 80022fc:	2800      	cmp	r0, #0
 80022fe:	f000 80f0 	beq.w	80024e2 <HAL_ADC_Init+0x1ee>
 8002302:	6d45      	ldr	r5, [r0, #84]	; 0x54
 8002304:	b925      	cbnz	r5, 8002310 <HAL_ADC_Init+0x1c>
 8002306:	f7fe fe5b 	bl	8000fc0 <HAL_ADC_MspInit>
 800230a:	65a5      	str	r5, [r4, #88]	; 0x58
 800230c:	f884 5050 	strb.w	r5, [r4, #80]	; 0x50
 8002310:	6823      	ldr	r3, [r4, #0]
 8002312:	689a      	ldr	r2, [r3, #8]
 8002314:	0090      	lsls	r0, r2, #2
 8002316:	d505      	bpl.n	8002324 <HAL_ADC_Init+0x30>
 8002318:	689a      	ldr	r2, [r3, #8]
 800231a:	f022 4220 	bic.w	r2, r2, #2684354560	; 0xa0000000
 800231e:	f022 023f 	bic.w	r2, r2, #63	; 0x3f
 8002322:	609a      	str	r2, [r3, #8]
 8002324:	689a      	ldr	r2, [r3, #8]
 8002326:	00d1      	lsls	r1, r2, #3
 8002328:	f140 809d 	bpl.w	8002466 <HAL_ADC_Init+0x172>
 800232c:	689a      	ldr	r2, [r3, #8]
 800232e:	00d2      	lsls	r2, r2, #3
 8002330:	f100 80af 	bmi.w	8002492 <HAL_ADC_Init+0x19e>
 8002334:	6d62      	ldr	r2, [r4, #84]	; 0x54
 8002336:	2501      	movs	r5, #1
 8002338:	f042 0210 	orr.w	r2, r2, #16
 800233c:	6562      	str	r2, [r4, #84]	; 0x54
 800233e:	6da2      	ldr	r2, [r4, #88]	; 0x58
 8002340:	f042 0201 	orr.w	r2, r2, #1
 8002344:	65a2      	str	r2, [r4, #88]	; 0x58
 8002346:	4618      	mov	r0, r3
 8002348:	f7ff fd68 	bl	8001e1c <LL_ADC_REG_IsConversionOngoing>
 800234c:	6d62      	ldr	r2, [r4, #84]	; 0x54
 800234e:	f002 0210 	and.w	r2, r2, #16
 8002352:	4310      	orrs	r0, r2
 8002354:	f040 80c1 	bne.w	80024da <HAL_ADC_Init+0x1e6>
 8002358:	6d62      	ldr	r2, [r4, #84]	; 0x54
 800235a:	4618      	mov	r0, r3
 800235c:	f422 7281 	bic.w	r2, r2, #258	; 0x102
 8002360:	f042 0202 	orr.w	r2, r2, #2
 8002364:	6562      	str	r2, [r4, #84]	; 0x54
 8002366:	f7ff fd55 	bl	8001e14 <LL_ADC_IsEnabled>
 800236a:	b980      	cbnz	r0, 800238e <HAL_ADC_Init+0x9a>
 800236c:	4e5e      	ldr	r6, [pc, #376]	; (80024e8 <HAL_ADC_Init+0x1f4>)
 800236e:	495f      	ldr	r1, [pc, #380]	; (80024ec <HAL_ADC_Init+0x1f8>)
 8002370:	42b3      	cmp	r3, r6
 8002372:	d002      	beq.n	800237a <HAL_ADC_Init+0x86>
 8002374:	428b      	cmp	r3, r1
 8002376:	f040 808e 	bne.w	8002496 <HAL_ADC_Init+0x1a2>
 800237a:	485b      	ldr	r0, [pc, #364]	; (80024e8 <HAL_ADC_Init+0x1f4>)
 800237c:	f7ff fd4a 	bl	8001e14 <LL_ADC_IsEnabled>
 8002380:	4602      	mov	r2, r0
 8002382:	485a      	ldr	r0, [pc, #360]	; (80024ec <HAL_ADC_Init+0x1f8>)
 8002384:	f7ff fd46 	bl	8001e14 <LL_ADC_IsEnabled>
 8002388:	4310      	orrs	r0, r2
 800238a:	f000 8092 	beq.w	80024b2 <HAL_ADC_Init+0x1be>
 800238e:	f7ff fd17 	bl	8001dc0 <HAL_GetREVID>
 8002392:	f241 0303 	movw	r3, #4099	; 0x1003
 8002396:	7f21      	ldrb	r1, [r4, #28]
 8002398:	4298      	cmp	r0, r3
 800239a:	7d62      	ldrb	r2, [r4, #21]
 800239c:	68a0      	ldr	r0, [r4, #8]
 800239e:	6b23      	ldr	r3, [r4, #48]	; 0x30
 80023a0:	f240 808d 	bls.w	80024be <HAL_ADC_Init+0x1ca>
 80023a4:	2810      	cmp	r0, #16
 80023a6:	f040 808a 	bne.w	80024be <HAL_ADC_Init+0x1ca>
 80023aa:	0352      	lsls	r2, r2, #13
 80023ac:	ea42 4201 	orr.w	r2, r2, r1, lsl #16
 80023b0:	431a      	orrs	r2, r3
 80023b2:	f042 031c 	orr.w	r3, r2, #28
 80023b6:	2901      	cmp	r1, #1
 80023b8:	bf02      	ittt	eq
 80023ba:	6a22      	ldreq	r2, [r4, #32]
 80023bc:	f102 32ff 	addeq.w	r2, r2, #4294967295
 80023c0:	ea43 4342 	orreq.w	r3, r3, r2, lsl #17
 80023c4:	6a62      	ldr	r2, [r4, #36]	; 0x24
 80023c6:	b122      	cbz	r2, 80023d2 <HAL_ADC_Init+0xde>
 80023c8:	f402 7278 	and.w	r2, r2, #992	; 0x3e0
 80023cc:	6aa1      	ldr	r1, [r4, #40]	; 0x28
 80023ce:	430a      	orrs	r2, r1
 80023d0:	4313      	orrs	r3, r2
 80023d2:	6822      	ldr	r2, [r4, #0]
 80023d4:	4946      	ldr	r1, [pc, #280]	; (80024f0 <HAL_ADC_Init+0x1fc>)
 80023d6:	68d0      	ldr	r0, [r2, #12]
 80023d8:	4001      	ands	r1, r0
 80023da:	4610      	mov	r0, r2
 80023dc:	4319      	orrs	r1, r3
 80023de:	60d1      	str	r1, [r2, #12]
 80023e0:	f7ff fd1c 	bl	8001e1c <LL_ADC_REG_IsConversionOngoing>
 80023e4:	6893      	ldr	r3, [r2, #8]
 80023e6:	f003 0308 	and.w	r3, r3, #8
 80023ea:	4318      	orrs	r0, r3
 80023ec:	d127      	bne.n	800243e <HAL_ADC_Init+0x14a>
 80023ee:	68d3      	ldr	r3, [r2, #12]
 80023f0:	7d21      	ldrb	r1, [r4, #20]
 80023f2:	f423 4380 	bic.w	r3, r3, #16384	; 0x4000
 80023f6:	f023 0303 	bic.w	r3, r3, #3
 80023fa:	ea43 3381 	orr.w	r3, r3, r1, lsl #14
 80023fe:	6ae1      	ldr	r1, [r4, #44]	; 0x2c
 8002400:	430b      	orrs	r3, r1
 8002402:	60d3      	str	r3, [r2, #12]
 8002404:	f894 3038 	ldrb.w	r3, [r4, #56]	; 0x38
 8002408:	2b01      	cmp	r3, #1
 800240a:	d15e      	bne.n	80024ca <HAL_ADC_Init+0x1d6>
 800240c:	6be3      	ldr	r3, [r4, #60]	; 0x3c
 800240e:	6910      	ldr	r0, [r2, #16]
 8002410:	1e59      	subs	r1, r3, #1
 8002412:	e9d4 3610 	ldrd	r3, r6, [r4, #64]	; 0x40
 8002416:	4333      	orrs	r3, r6
 8002418:	ea43 4301 	orr.w	r3, r3, r1, lsl #16
 800241c:	6ca1      	ldr	r1, [r4, #72]	; 0x48
 800241e:	430b      	orrs	r3, r1
 8002420:	4934      	ldr	r1, [pc, #208]	; (80024f4 <HAL_ADC_Init+0x200>)
 8002422:	4001      	ands	r1, r0
 8002424:	430b      	orrs	r3, r1
 8002426:	f043 0301 	orr.w	r3, r3, #1
 800242a:	6113      	str	r3, [r2, #16]
 800242c:	4620      	mov	r0, r4
 800242e:	6913      	ldr	r3, [r2, #16]
 8002430:	6b61      	ldr	r1, [r4, #52]	; 0x34
 8002432:	f023 4370 	bic.w	r3, r3, #4026531840	; 0xf0000000
 8002436:	430b      	orrs	r3, r1
 8002438:	6113      	str	r3, [r2, #16]
 800243a:	f7ff fec5 	bl	80021c8 <ADC_ConfigureBoostMode>
 800243e:	68e3      	ldr	r3, [r4, #12]
 8002440:	6822      	ldr	r2, [r4, #0]
 8002442:	2b01      	cmp	r3, #1
 8002444:	d145      	bne.n	80024d2 <HAL_ADC_Init+0x1de>
 8002446:	6b11      	ldr	r1, [r2, #48]	; 0x30
 8002448:	69a3      	ldr	r3, [r4, #24]
 800244a:	f021 010f 	bic.w	r1, r1, #15
 800244e:	3b01      	subs	r3, #1
 8002450:	430b      	orrs	r3, r1
 8002452:	6313      	str	r3, [r2, #48]	; 0x30
 8002454:	6d63      	ldr	r3, [r4, #84]	; 0x54
 8002456:	f023 0303 	bic.w	r3, r3, #3
 800245a:	f043 0301 	orr.w	r3, r3, #1
 800245e:	6563      	str	r3, [r4, #84]	; 0x54
 8002460:	4628      	mov	r0, r5
 8002462:	b002      	add	sp, #8
 8002464:	bd70      	pop	{r4, r5, r6, pc}
 8002466:	689a      	ldr	r2, [r3, #8]
 8002468:	4923      	ldr	r1, [pc, #140]	; (80024f8 <HAL_ADC_Init+0x204>)
 800246a:	f022 4210 	bic.w	r2, r2, #2415919104	; 0x90000000
 800246e:	f022 023f 	bic.w	r2, r2, #63	; 0x3f
 8002472:	f042 5280 	orr.w	r2, r2, #268435456	; 0x10000000
 8002476:	609a      	str	r2, [r3, #8]
 8002478:	4a20      	ldr	r2, [pc, #128]	; (80024fc <HAL_ADC_Init+0x208>)
 800247a:	6812      	ldr	r2, [r2, #0]
 800247c:	fbb2 f2f1 	udiv	r2, r2, r1
 8002480:	3201      	adds	r2, #1
 8002482:	9201      	str	r2, [sp, #4]
 8002484:	9a01      	ldr	r2, [sp, #4]
 8002486:	2a00      	cmp	r2, #0
 8002488:	f43f af50 	beq.w	800232c <HAL_ADC_Init+0x38>
 800248c:	9a01      	ldr	r2, [sp, #4]
 800248e:	3a01      	subs	r2, #1
 8002490:	e7f7      	b.n	8002482 <HAL_ADC_Init+0x18e>
 8002492:	2500      	movs	r5, #0
 8002494:	e757      	b.n	8002346 <HAL_ADC_Init+0x52>
 8002496:	481a      	ldr	r0, [pc, #104]	; (8002500 <HAL_ADC_Init+0x20c>)
 8002498:	f7ff fcbc 	bl	8001e14 <LL_ADC_IsEnabled>
 800249c:	2800      	cmp	r0, #0
 800249e:	f47f af76 	bne.w	800238e <HAL_ADC_Init+0x9a>
 80024a2:	4a18      	ldr	r2, [pc, #96]	; (8002504 <HAL_ADC_Init+0x210>)
 80024a4:	6893      	ldr	r3, [r2, #8]
 80024a6:	6861      	ldr	r1, [r4, #4]
 80024a8:	f423 137c 	bic.w	r3, r3, #4128768	; 0x3f0000
 80024ac:	430b      	orrs	r3, r1
 80024ae:	6093      	str	r3, [r2, #8]
 80024b0:	e76d      	b.n	800238e <HAL_ADC_Init+0x9a>
 80024b2:	42b3      	cmp	r3, r6
 80024b4:	d001      	beq.n	80024ba <HAL_ADC_Init+0x1c6>
 80024b6:	428b      	cmp	r3, r1
 80024b8:	d1f3      	bne.n	80024a2 <HAL_ADC_Init+0x1ae>
 80024ba:	4a13      	ldr	r2, [pc, #76]	; (8002508 <HAL_ADC_Init+0x214>)
 80024bc:	e7f2      	b.n	80024a4 <HAL_ADC_Init+0x1b0>
 80024be:	4303      	orrs	r3, r0
 80024c0:	ea43 3342 	orr.w	r3, r3, r2, lsl #13
 80024c4:	ea43 4301 	orr.w	r3, r3, r1, lsl #16
 80024c8:	e775      	b.n	80023b6 <HAL_ADC_Init+0xc2>
 80024ca:	6913      	ldr	r3, [r2, #16]
 80024cc:	f023 0301 	bic.w	r3, r3, #1
 80024d0:	e7ab      	b.n	800242a <HAL_ADC_Init+0x136>
 80024d2:	6b13      	ldr	r3, [r2, #48]	; 0x30
 80024d4:	f023 030f 	bic.w	r3, r3, #15
 80024d8:	e7bb      	b.n	8002452 <HAL_ADC_Init+0x15e>
 80024da:	6d63      	ldr	r3, [r4, #84]	; 0x54
 80024dc:	f043 0310 	orr.w	r3, r3, #16
 80024e0:	6563      	str	r3, [r4, #84]	; 0x54
 80024e2:	2501      	movs	r5, #1
 80024e4:	e7bc      	b.n	8002460 <HAL_ADC_Init+0x16c>
 80024e6:	bf00      	nop
 80024e8:	40022000 	.word	0x40022000
 80024ec:	40022100 	.word	0x40022100
 80024f0:	fff0c003 	.word	0xfff0c003
 80024f4:	fc00f81e 	.word	0xfc00f81e
 80024f8:	00030d40 	.word	0x00030d40
 80024fc:	24000000 	.word	0x24000000
 8002500:	58026000 	.word	0x58026000
 8002504:	58026300 	.word	0x58026300
 8002508:	40022300 	.word	0x40022300

0800250c <LL_ADC_IsEnabled>:
 800250c:	6880      	ldr	r0, [r0, #8]
 800250e:	f000 0001 	and.w	r0, r0, #1
 8002512:	4770      	bx	lr

08002514 <LL_ADC_REG_IsConversionOngoing>:
 8002514:	6880      	ldr	r0, [r0, #8]
 8002516:	f3c0 0080 	ubfx	r0, r0, #2, #1
 800251a:	4770      	bx	lr

0800251c <HAL_ADCEx_MultiModeConfigChannel>:
 800251c:	b570      	push	{r4, r5, r6, lr}
 800251e:	f890 3050 	ldrb.w	r3, [r0, #80]	; 0x50
 8002522:	b09a      	sub	sp, #104	; 0x68
 8002524:	4602      	mov	r2, r0
 8002526:	680d      	ldr	r5, [r1, #0]
 8002528:	2b01      	cmp	r3, #1
 800252a:	d052      	beq.n	80025d2 <HAL_ADCEx_MultiModeConfigChannel+0xb6>
 800252c:	2301      	movs	r3, #1
 800252e:	4c2a      	ldr	r4, [pc, #168]	; (80025d8 <HAL_ADCEx_MultiModeConfigChannel+0xbc>)
 8002530:	f880 3050 	strb.w	r3, [r0, #80]	; 0x50
 8002534:	2000      	movs	r0, #0
 8002536:	6816      	ldr	r6, [r2, #0]
 8002538:	9016      	str	r0, [sp, #88]	; 0x58
 800253a:	42a6      	cmp	r6, r4
 800253c:	9017      	str	r0, [sp, #92]	; 0x5c
 800253e:	d10d      	bne.n	800255c <HAL_ADCEx_MultiModeConfigChannel+0x40>
 8002540:	4826      	ldr	r0, [pc, #152]	; (80025dc <HAL_ADCEx_MultiModeConfigChannel+0xc0>)
 8002542:	f7ff ffe7 	bl	8002514 <LL_ADC_REG_IsConversionOngoing>
 8002546:	4604      	mov	r4, r0
 8002548:	4630      	mov	r0, r6
 800254a:	f7ff ffe3 	bl	8002514 <LL_ADC_REG_IsConversionOngoing>
 800254e:	4320      	orrs	r0, r4
 8002550:	d00d      	beq.n	800256e <HAL_ADCEx_MultiModeConfigChannel+0x52>
 8002552:	6d51      	ldr	r1, [r2, #84]	; 0x54
 8002554:	f041 0120 	orr.w	r1, r1, #32
 8002558:	6551      	str	r1, [r2, #84]	; 0x54
 800255a:	e027      	b.n	80025ac <HAL_ADCEx_MultiModeConfigChannel+0x90>
 800255c:	6d51      	ldr	r1, [r2, #84]	; 0x54
 800255e:	f882 0050 	strb.w	r0, [r2, #80]	; 0x50
 8002562:	4618      	mov	r0, r3
 8002564:	f041 0120 	orr.w	r1, r1, #32
 8002568:	6551      	str	r1, [r2, #84]	; 0x54
 800256a:	b01a      	add	sp, #104	; 0x68
 800256c:	bd70      	pop	{r4, r5, r6, pc}
 800256e:	4c1c      	ldr	r4, [pc, #112]	; (80025e0 <HAL_ADCEx_MultiModeConfigChannel+0xc4>)
 8002570:	68a3      	ldr	r3, [r4, #8]
 8002572:	f423 4340 	bic.w	r3, r3, #49152	; 0xc000
 8002576:	b1dd      	cbz	r5, 80025b0 <HAL_ADCEx_MultiModeConfigChannel+0x94>
 8002578:	6848      	ldr	r0, [r1, #4]
 800257a:	4303      	orrs	r3, r0
 800257c:	4630      	mov	r0, r6
 800257e:	60a3      	str	r3, [r4, #8]
 8002580:	f7ff ffc4 	bl	800250c <LL_ADC_IsEnabled>
 8002584:	4603      	mov	r3, r0
 8002586:	4815      	ldr	r0, [pc, #84]	; (80025dc <HAL_ADCEx_MultiModeConfigChannel+0xc0>)
 8002588:	f7ff ffc0 	bl	800250c <LL_ADC_IsEnabled>
 800258c:	4303      	orrs	r3, r0
 800258e:	d004      	beq.n	800259a <HAL_ADCEx_MultiModeConfigChannel+0x7e>
 8002590:	2000      	movs	r0, #0
 8002592:	2300      	movs	r3, #0
 8002594:	f882 3050 	strb.w	r3, [r2, #80]	; 0x50
 8002598:	e7e7      	b.n	800256a <HAL_ADCEx_MultiModeConfigChannel+0x4e>
 800259a:	6889      	ldr	r1, [r1, #8]
 800259c:	68a0      	ldr	r0, [r4, #8]
 800259e:	430d      	orrs	r5, r1
 80025a0:	f420 6171 	bic.w	r1, r0, #3856	; 0xf10
 80025a4:	f021 010f 	bic.w	r1, r1, #15
 80025a8:	430d      	orrs	r5, r1
 80025aa:	60a5      	str	r5, [r4, #8]
 80025ac:	4618      	mov	r0, r3
 80025ae:	e7f0      	b.n	8002592 <HAL_ADCEx_MultiModeConfigChannel+0x76>
 80025b0:	60a3      	str	r3, [r4, #8]
 80025b2:	4630      	mov	r0, r6
 80025b4:	f7ff ffaa 	bl	800250c <LL_ADC_IsEnabled>
 80025b8:	4603      	mov	r3, r0
 80025ba:	4808      	ldr	r0, [pc, #32]	; (80025dc <HAL_ADCEx_MultiModeConfigChannel+0xc0>)
 80025bc:	f7ff ffa6 	bl	800250c <LL_ADC_IsEnabled>
 80025c0:	4303      	orrs	r3, r0
 80025c2:	d1e5      	bne.n	8002590 <HAL_ADCEx_MultiModeConfigChannel+0x74>
 80025c4:	68a1      	ldr	r1, [r4, #8]
 80025c6:	f421 6171 	bic.w	r1, r1, #3856	; 0xf10
 80025ca:	f021 010f 	bic.w	r1, r1, #15
 80025ce:	60a1      	str	r1, [r4, #8]
 80025d0:	e7ec      	b.n	80025ac <HAL_ADCEx_MultiModeConfigChannel+0x90>
 80025d2:	2002      	movs	r0, #2
 80025d4:	e7c9      	b.n	800256a <HAL_ADCEx_MultiModeConfigChannel+0x4e>
 80025d6:	bf00      	nop
 80025d8:	40022000 	.word	0x40022000
 80025dc:	40022100 	.word	0x40022100
 80025e0:	40022300 	.word	0x40022300

080025e4 <HAL_NVIC_SetPriorityGrouping>:
 80025e4:	4907      	ldr	r1, [pc, #28]	; (8002604 <HAL_NVIC_SetPriorityGrouping+0x20>)
 80025e6:	0203      	lsls	r3, r0, #8
 80025e8:	68ca      	ldr	r2, [r1, #12]
 80025ea:	f403 63e0 	and.w	r3, r3, #1792	; 0x700
 80025ee:	f422 62e0 	bic.w	r2, r2, #1792	; 0x700
 80025f2:	0412      	lsls	r2, r2, #16
 80025f4:	0c12      	lsrs	r2, r2, #16
 80025f6:	4313      	orrs	r3, r2
 80025f8:	f043 63bf 	orr.w	r3, r3, #100139008	; 0x5f80000
 80025fc:	f443 3300 	orr.w	r3, r3, #131072	; 0x20000
 8002600:	60cb      	str	r3, [r1, #12]
 8002602:	4770      	bx	lr
 8002604:	e000ed00 	.word	0xe000ed00

08002608 <HAL_NVIC_SetPriority>:
 8002608:	4b16      	ldr	r3, [pc, #88]	; (8002664 <HAL_NVIC_SetPriority+0x5c>)
 800260a:	b530      	push	{r4, r5, lr}
 800260c:	68dc      	ldr	r4, [r3, #12]
 800260e:	f3c4 2402 	ubfx	r4, r4, #8, #3
 8002612:	f1c4 0307 	rsb	r3, r4, #7
 8002616:	1d25      	adds	r5, r4, #4
 8002618:	2b04      	cmp	r3, #4
 800261a:	bf28      	it	cs
 800261c:	2304      	movcs	r3, #4
 800261e:	2d06      	cmp	r5, #6
 8002620:	f04f 35ff 	mov.w	r5, #4294967295
 8002624:	bf8c      	ite	hi
 8002626:	3c03      	subhi	r4, #3
 8002628:	2400      	movls	r4, #0
 800262a:	fa05 f303 	lsl.w	r3, r5, r3
 800262e:	2800      	cmp	r0, #0
 8002630:	fa05 f504 	lsl.w	r5, r5, r4
 8002634:	ea21 0303 	bic.w	r3, r1, r3
 8002638:	ea22 0205 	bic.w	r2, r2, r5
 800263c:	fa03 f304 	lsl.w	r3, r3, r4
 8002640:	ea43 0302 	orr.w	r3, r3, r2
 8002644:	ea4f 1303 	mov.w	r3, r3, lsl #4
 8002648:	b2db      	uxtb	r3, r3
 800264a:	db06      	blt.n	800265a <HAL_NVIC_SetPriority+0x52>
 800264c:	f100 4060 	add.w	r0, r0, #3758096384	; 0xe0000000
 8002650:	f500 4061 	add.w	r0, r0, #57600	; 0xe100
 8002654:	f880 3300 	strb.w	r3, [r0, #768]	; 0x300
 8002658:	bd30      	pop	{r4, r5, pc}
 800265a:	f000 000f 	and.w	r0, r0, #15
 800265e:	4a02      	ldr	r2, [pc, #8]	; (8002668 <HAL_NVIC_SetPriority+0x60>)
 8002660:	5413      	strb	r3, [r2, r0]
 8002662:	e7f9      	b.n	8002658 <HAL_NVIC_SetPriority+0x50>
 8002664:	e000ed00 	.word	0xe000ed00
 8002668:	e000ed14 	.word	0xe000ed14

0800266c <HAL_SYSTICK_Config>:
 800266c:	3801      	subs	r0, #1
 800266e:	f1b0 7f80 	cmp.w	r0, #16777216	; 0x1000000
 8002672:	d20b      	bcs.n	800268c <HAL_SYSTICK_Config+0x20>
 8002674:	f04f 23e0 	mov.w	r3, #3758153728	; 0xe000e000
 8002678:	4a05      	ldr	r2, [pc, #20]	; (8002690 <HAL_SYSTICK_Config+0x24>)
 800267a:	21f0      	movs	r1, #240	; 0xf0
 800267c:	6158      	str	r0, [r3, #20]
 800267e:	2000      	movs	r0, #0
 8002680:	f882 1023 	strb.w	r1, [r2, #35]	; 0x23
 8002684:	2207      	movs	r2, #7
 8002686:	6198      	str	r0, [r3, #24]
 8002688:	611a      	str	r2, [r3, #16]
 800268a:	4770      	bx	lr
 800268c:	2001      	movs	r0, #1
 800268e:	4770      	bx	lr
 8002690:	e000ed00 	.word	0xe000ed00

08002694 <ETH_SetMACConfig>:
 8002694:	b510      	push	{r4, lr}
 8002696:	6802      	ldr	r2, [r0, #0]
 8002698:	680c      	ldr	r4, [r1, #0]
 800269a:	688b      	ldr	r3, [r1, #8]
 800269c:	6810      	ldr	r0, [r2, #0]
 800269e:	4323      	orrs	r3, r4
 80026a0:	694c      	ldr	r4, [r1, #20]
 80026a2:	f020 407f 	bic.w	r0, r0, #4278190080	; 0xff000000
 80026a6:	4323      	orrs	r3, r4
 80026a8:	698c      	ldr	r4, [r1, #24]
 80026aa:	f420 007b 	bic.w	r0, r0, #16449536	; 0xfb0000
 80026ae:	4323      	orrs	r3, r4
 80026b0:	6a4c      	ldr	r4, [r1, #36]	; 0x24
 80026b2:	f420 40fe 	bic.w	r0, r0, #32512	; 0x7f00
 80026b6:	4323      	orrs	r3, r4
 80026b8:	6acc      	ldr	r4, [r1, #44]	; 0x2c
 80026ba:	f020 007c 	bic.w	r0, r0, #124	; 0x7c
 80026be:	4323      	orrs	r3, r4
 80026c0:	4303      	orrs	r3, r0
 80026c2:	7908      	ldrb	r0, [r1, #4]
 80026c4:	ea43 63c0 	orr.w	r3, r3, r0, lsl #27
 80026c8:	7b08      	ldrb	r0, [r1, #12]
 80026ca:	ea43 53c0 	orr.w	r3, r3, r0, lsl #23
 80026ce:	7b48      	ldrb	r0, [r1, #13]
 80026d0:	ea43 5380 	orr.w	r3, r3, r0, lsl #22
 80026d4:	7b88      	ldrb	r0, [r1, #14]
 80026d6:	ea43 5340 	orr.w	r3, r3, r0, lsl #21
 80026da:	7bc8      	ldrb	r0, [r1, #15]
 80026dc:	ea43 5300 	orr.w	r3, r3, r0, lsl #20
 80026e0:	7c88      	ldrb	r0, [r1, #18]
 80026e2:	ea43 4300 	orr.w	r3, r3, r0, lsl #16
 80026e6:	7f08      	ldrb	r0, [r1, #28]
 80026e8:	ea43 3300 	orr.w	r3, r3, r0, lsl #12
 80026ec:	7f48      	ldrb	r0, [r1, #29]
 80026ee:	ea43 23c0 	orr.w	r3, r3, r0, lsl #11
 80026f2:	7fc8      	ldrb	r0, [r1, #31]
 80026f4:	ea43 2340 	orr.w	r3, r3, r0, lsl #9
 80026f8:	f891 0028 	ldrb.w	r0, [r1, #40]	; 0x28
 80026fc:	ea43 1300 	orr.w	r3, r3, r0, lsl #4
 8002700:	7c08      	ldrb	r0, [r1, #16]
 8002702:	fab0 f080 	clz	r0, r0
 8002706:	0940      	lsrs	r0, r0, #5
 8002708:	ea43 43c0 	orr.w	r3, r3, r0, lsl #19
 800270c:	7c48      	ldrb	r0, [r1, #17]
 800270e:	fab0 f080 	clz	r0, r0
 8002712:	0940      	lsrs	r0, r0, #5
 8002714:	ea43 4340 	orr.w	r3, r3, r0, lsl #17
 8002718:	7f88      	ldrb	r0, [r1, #30]
 800271a:	fab0 f080 	clz	r0, r0
 800271e:	0940      	lsrs	r0, r0, #5
 8002720:	ea43 2380 	orr.w	r3, r3, r0, lsl #10
 8002724:	f891 0020 	ldrb.w	r0, [r1, #32]
 8002728:	fab0 f080 	clz	r0, r0
 800272c:	0940      	lsrs	r0, r0, #5
 800272e:	ea43 2300 	orr.w	r3, r3, r0, lsl #8
 8002732:	6bc8      	ldr	r0, [r1, #60]	; 0x3c
 8002734:	6013      	str	r3, [r2, #0]
 8002736:	6853      	ldr	r3, [r2, #4]
 8002738:	f023 537c 	bic.w	r3, r3, #1056964608	; 0x3f000000
 800273c:	f423 23ef 	bic.w	r3, r3, #489472	; 0x77800
 8002740:	f423 63ff 	bic.w	r3, r3, #2040	; 0x7f8
 8002744:	f023 0307 	bic.w	r3, r3, #7
 8002748:	ea43 6340 	orr.w	r3, r3, r0, lsl #25
 800274c:	6b48      	ldr	r0, [r1, #52]	; 0x34
 800274e:	4303      	orrs	r3, r0
 8002750:	f891 0038 	ldrb.w	r0, [r1, #56]	; 0x38
 8002754:	ea43 6300 	orr.w	r3, r3, r0, lsl #24
 8002758:	f891 0030 	ldrb.w	r0, [r1, #48]	; 0x30
 800275c:	ea43 4380 	orr.w	r3, r3, r0, lsl #18
 8002760:	f891 0031 	ldrb.w	r0, [r1, #49]	; 0x31
 8002764:	ea43 4340 	orr.w	r3, r3, r0, lsl #17
 8002768:	f891 0032 	ldrb.w	r0, [r1, #50]	; 0x32
 800276c:	fab0 f080 	clz	r0, r0
 8002770:	0940      	lsrs	r0, r0, #5
 8002772:	ea43 4300 	orr.w	r3, r3, r0, lsl #16
 8002776:	6053      	str	r3, [r2, #4]
 8002778:	68d3      	ldr	r3, [r2, #12]
 800277a:	6c48      	ldr	r0, [r1, #68]	; 0x44
 800277c:	f423 7387 	bic.w	r3, r3, #270	; 0x10e
 8002780:	f023 0301 	bic.w	r3, r3, #1
 8002784:	4303      	orrs	r3, r0
 8002786:	f891 0040 	ldrb.w	r0, [r1, #64]	; 0x40
 800278a:	ea43 2300 	orr.w	r3, r3, r0, lsl #8
 800278e:	6c88      	ldr	r0, [r1, #72]	; 0x48
 8002790:	60d3      	str	r3, [r2, #12]
 8002792:	6f13      	ldr	r3, [r2, #112]	; 0x70
 8002794:	f023 03f2 	bic.w	r3, r3, #242	; 0xf2
 8002798:	041b      	lsls	r3, r3, #16
 800279a:	0c1b      	lsrs	r3, r3, #16
 800279c:	ea43 4300 	orr.w	r3, r3, r0, lsl #16
 80027a0:	6d08      	ldr	r0, [r1, #80]	; 0x50
 80027a2:	4303      	orrs	r3, r0
 80027a4:	f891 0054 	ldrb.w	r0, [r1, #84]	; 0x54
 80027a8:	ea43 0340 	orr.w	r3, r3, r0, lsl #1
 80027ac:	f891 004c 	ldrb.w	r0, [r1, #76]	; 0x4c
 80027b0:	fab0 f080 	clz	r0, r0
 80027b4:	0940      	lsrs	r0, r0, #5
 80027b6:	ea43 13c0 	orr.w	r3, r3, r0, lsl #7
 80027ba:	6713      	str	r3, [r2, #112]	; 0x70
 80027bc:	f8d2 0090 	ldr.w	r0, [r2, #144]	; 0x90
 80027c0:	f891 3056 	ldrb.w	r3, [r1, #86]	; 0x56
 80027c4:	f020 0003 	bic.w	r0, r0, #3
 80027c8:	4303      	orrs	r3, r0
 80027ca:	f891 0055 	ldrb.w	r0, [r1, #85]	; 0x55
 80027ce:	ea43 0340 	orr.w	r3, r3, r0, lsl #1
 80027d2:	6d88      	ldr	r0, [r1, #88]	; 0x58
 80027d4:	f8c2 3090 	str.w	r3, [r2, #144]	; 0x90
 80027d8:	f8d2 3d00 	ldr.w	r3, [r2, #3328]	; 0xd00
 80027dc:	f023 0372 	bic.w	r3, r3, #114	; 0x72
 80027e0:	4303      	orrs	r3, r0
 80027e2:	6dc8      	ldr	r0, [r1, #92]	; 0x5c
 80027e4:	f8c2 3d00 	str.w	r3, [r2, #3328]	; 0xd00
 80027e8:	f8d2 3d30 	ldr.w	r3, [r2, #3376]	; 0xd30
 80027ec:	f023 037b 	bic.w	r3, r3, #123	; 0x7b
 80027f0:	4303      	orrs	r3, r0
 80027f2:	f891 0061 	ldrb.w	r0, [r1, #97]	; 0x61
 80027f6:	ea43 1300 	orr.w	r3, r3, r0, lsl #4
 80027fa:	f891 0062 	ldrb.w	r0, [r1, #98]	; 0x62
 80027fe:	f891 1060 	ldrb.w	r1, [r1, #96]	; 0x60
 8002802:	ea43 03c0 	orr.w	r3, r3, r0, lsl #3
 8002806:	fab1 f181 	clz	r1, r1
 800280a:	0949      	lsrs	r1, r1, #5
 800280c:	ea43 1381 	orr.w	r3, r3, r1, lsl #6
 8002810:	f8c2 3d30 	str.w	r3, [r2, #3376]	; 0xd30
 8002814:	bd10      	pop	{r4, pc}
	...

08002818 <ETH_SetDMAConfig>:
 8002818:	6803      	ldr	r3, [r0, #0]
 800281a:	6808      	ldr	r0, [r1, #0]
 800281c:	f503 5380 	add.w	r3, r3, #4096	; 0x1000
 8002820:	681a      	ldr	r2, [r3, #0]
 8002822:	f422 42f0 	bic.w	r2, r2, #30720	; 0x7800
 8002826:	f022 0202 	bic.w	r2, r2, #2
 800282a:	4302      	orrs	r2, r0
 800282c:	b510      	push	{r4, lr}
 800282e:	601a      	str	r2, [r3, #0]
 8002830:	7b0a      	ldrb	r2, [r1, #12]
 8002832:	6858      	ldr	r0, [r3, #4]
 8002834:	790c      	ldrb	r4, [r1, #4]
 8002836:	03d2      	lsls	r2, r2, #15
 8002838:	f420 4050 	bic.w	r0, r0, #53248	; 0xd000
 800283c:	ea42 3204 	orr.w	r2, r2, r4, lsl #12
 8002840:	688c      	ldr	r4, [r1, #8]
 8002842:	f020 0001 	bic.w	r0, r0, #1
 8002846:	4322      	orrs	r2, r4
 8002848:	4302      	orrs	r2, r0
 800284a:	605a      	str	r2, [r3, #4]
 800284c:	6a0a      	ldr	r2, [r1, #32]
 800284e:	7b48      	ldrb	r0, [r1, #13]
 8002850:	f8d3 4100 	ldr.w	r4, [r3, #256]	; 0x100
 8002854:	ea42 4200 	orr.w	r2, r2, r0, lsl #16
 8002858:	4810      	ldr	r0, [pc, #64]	; (800289c <ETH_SetDMAConfig+0x84>)
 800285a:	4020      	ands	r0, r4
 800285c:	4302      	orrs	r2, r0
 800285e:	f8c3 2100 	str.w	r2, [r3, #256]	; 0x100
 8002862:	7f4a      	ldrb	r2, [r1, #29]
 8002864:	7d08      	ldrb	r0, [r1, #20]
 8002866:	0312      	lsls	r2, r2, #12
 8002868:	f8d3 4104 	ldr.w	r4, [r3, #260]	; 0x104
 800286c:	ea42 1200 	orr.w	r2, r2, r0, lsl #4
 8002870:	6908      	ldr	r0, [r1, #16]
 8002872:	4302      	orrs	r2, r0
 8002874:	480a      	ldr	r0, [pc, #40]	; (80028a0 <ETH_SetDMAConfig+0x88>)
 8002876:	4020      	ands	r0, r4
 8002878:	4302      	orrs	r2, r0
 800287a:	f8c3 2104 	str.w	r2, [r3, #260]	; 0x104
 800287e:	f8d3 0108 	ldr.w	r0, [r3, #264]	; 0x108
 8002882:	7f0c      	ldrb	r4, [r1, #28]
 8002884:	698a      	ldr	r2, [r1, #24]
 8002886:	f020 4100 	bic.w	r1, r0, #2147483648	; 0x80000000
 800288a:	ea42 72c4 	orr.w	r2, r2, r4, lsl #31
 800288e:	f421 117c 	bic.w	r1, r1, #4128768	; 0x3f0000
 8002892:	430a      	orrs	r2, r1
 8002894:	f8c3 2108 	str.w	r2, [r3, #264]	; 0x108
 8002898:	bd10      	pop	{r4, pc}
 800289a:	bf00      	nop
 800289c:	fffec000 	.word	0xfffec000
 80028a0:	ffc0efef 	.word	0xffc0efef

080028a4 <HAL_ETH_SetMDIOClockRange>:
 80028a4:	b538      	push	{r3, r4, r5, lr}
 80028a6:	6803      	ldr	r3, [r0, #0]
 80028a8:	4605      	mov	r5, r0
 80028aa:	f8d3 4200 	ldr.w	r4, [r3, #512]	; 0x200
 80028ae:	f001 fc59 	bl	8004164 <HAL_RCC_GetHCLKFreq>
 80028b2:	4b12      	ldr	r3, [pc, #72]	; (80028fc <HAL_ETH_SetMDIOClockRange+0x58>)
 80028b4:	4a12      	ldr	r2, [pc, #72]	; (8002900 <HAL_ETH_SetMDIOClockRange+0x5c>)
 80028b6:	f424 6470 	bic.w	r4, r4, #3840	; 0xf00
 80028ba:	4403      	add	r3, r0
 80028bc:	4293      	cmp	r3, r2
 80028be:	d205      	bcs.n	80028cc <HAL_ETH_SetMDIOClockRange+0x28>
 80028c0:	f444 7400 	orr.w	r4, r4, #512	; 0x200
 80028c4:	682b      	ldr	r3, [r5, #0]
 80028c6:	f8c3 4200 	str.w	r4, [r3, #512]	; 0x200
 80028ca:	bd38      	pop	{r3, r4, r5, pc}
 80028cc:	4b0d      	ldr	r3, [pc, #52]	; (8002904 <HAL_ETH_SetMDIOClockRange+0x60>)
 80028ce:	4a0e      	ldr	r2, [pc, #56]	; (8002908 <HAL_ETH_SetMDIOClockRange+0x64>)
 80028d0:	4403      	add	r3, r0
 80028d2:	4293      	cmp	r3, r2
 80028d4:	d802      	bhi.n	80028dc <HAL_ETH_SetMDIOClockRange+0x38>
 80028d6:	f444 7440 	orr.w	r4, r4, #768	; 0x300
 80028da:	e7f3      	b.n	80028c4 <HAL_ETH_SetMDIOClockRange+0x20>
 80028dc:	4b0b      	ldr	r3, [pc, #44]	; (800290c <HAL_ETH_SetMDIOClockRange+0x68>)
 80028de:	4a0c      	ldr	r2, [pc, #48]	; (8002910 <HAL_ETH_SetMDIOClockRange+0x6c>)
 80028e0:	4403      	add	r3, r0
 80028e2:	4293      	cmp	r3, r2
 80028e4:	d3ee      	bcc.n	80028c4 <HAL_ETH_SetMDIOClockRange+0x20>
 80028e6:	4b0b      	ldr	r3, [pc, #44]	; (8002914 <HAL_ETH_SetMDIOClockRange+0x70>)
 80028e8:	4a0b      	ldr	r2, [pc, #44]	; (8002918 <HAL_ETH_SetMDIOClockRange+0x74>)
 80028ea:	4403      	add	r3, r0
 80028ec:	4293      	cmp	r3, r2
 80028ee:	bf94      	ite	ls
 80028f0:	f444 7480 	orrls.w	r4, r4, #256	; 0x100
 80028f4:	f444 6480 	orrhi.w	r4, r4, #1024	; 0x400
 80028f8:	e7e4      	b.n	80028c4 <HAL_ETH_SetMDIOClockRange+0x20>
 80028fa:	bf00      	nop
 80028fc:	feced300 	.word	0xfeced300
 8002900:	00e4e1c0 	.word	0x00e4e1c0
 8002904:	fde9f140 	.word	0xfde9f140
 8002908:	017d783f 	.word	0x017d783f
 800290c:	fc6c7900 	.word	0xfc6c7900
 8002910:	02625a00 	.word	0x02625a00
 8002914:	fa0a1f00 	.word	0xfa0a1f00
 8002918:	02faf07f 	.word	0x02faf07f

0800291c <HAL_ETH_Init>:
 800291c:	b5f0      	push	{r4, r5, r6, r7, lr}
 800291e:	4604      	mov	r4, r0
 8002920:	b0a5      	sub	sp, #148	; 0x94
 8002922:	2800      	cmp	r0, #0
 8002924:	f000 80af 	beq.w	8002a86 <HAL_ETH_Init+0x16a>
 8002928:	f8d0 3084 	ldr.w	r3, [r0, #132]	; 0x84
 800292c:	b923      	cbnz	r3, 8002938 <HAL_ETH_Init+0x1c>
 800292e:	2323      	movs	r3, #35	; 0x23
 8002930:	f8c0 3084 	str.w	r3, [r0, #132]	; 0x84
 8002934:	f7fe fc04 	bl	8001140 <HAL_ETH_MspInit>
 8002938:	4b7b      	ldr	r3, [pc, #492]	; (8002b28 <HAL_ETH_Init+0x20c>)
 800293a:	f8d3 20f4 	ldr.w	r2, [r3, #244]	; 0xf4
 800293e:	f042 0202 	orr.w	r2, r2, #2
 8002942:	f8c3 20f4 	str.w	r2, [r3, #244]	; 0xf4
 8002946:	f8d3 30f4 	ldr.w	r3, [r3, #244]	; 0xf4
 800294a:	7a20      	ldrb	r0, [r4, #8]
 800294c:	f003 0302 	and.w	r3, r3, #2
 8002950:	9301      	str	r3, [sp, #4]
 8002952:	9b01      	ldr	r3, [sp, #4]
 8002954:	2800      	cmp	r0, #0
 8002956:	f040 8086 	bne.w	8002a66 <HAL_ETH_Init+0x14a>
 800295a:	f7ff fa37 	bl	8001dcc <HAL_SYSCFG_ETHInterfaceSelect>
 800295e:	4b73      	ldr	r3, [pc, #460]	; (8002b2c <HAL_ETH_Init+0x210>)
 8002960:	685b      	ldr	r3, [r3, #4]
 8002962:	6823      	ldr	r3, [r4, #0]
 8002964:	f503 5380 	add.w	r3, r3, #4096	; 0x1000
 8002968:	681a      	ldr	r2, [r3, #0]
 800296a:	f042 0201 	orr.w	r2, r2, #1
 800296e:	601a      	str	r2, [r3, #0]
 8002970:	f7ff fa0e 	bl	8001d90 <HAL_GetTick>
 8002974:	4606      	mov	r6, r0
 8002976:	6823      	ldr	r3, [r4, #0]
 8002978:	f503 5380 	add.w	r3, r3, #4096	; 0x1000
 800297c:	681d      	ldr	r5, [r3, #0]
 800297e:	f015 0501 	ands.w	r5, r5, #1
 8002982:	d173      	bne.n	8002a6c <HAL_ETH_Init+0x150>
 8002984:	4620      	mov	r0, r4
 8002986:	2601      	movs	r6, #1
 8002988:	f7ff ff8c 	bl	80028a4 <HAL_ETH_SetMDIOClockRange>
 800298c:	f001 fbea 	bl	8004164 <HAL_RCC_GetHCLKFreq>
 8002990:	4b67      	ldr	r3, [pc, #412]	; (8002b30 <HAL_ETH_Init+0x214>)
 8002992:	f44f 4180 	mov.w	r1, #16384	; 0x4000
 8002996:	6827      	ldr	r7, [r4, #0]
 8002998:	9514      	str	r5, [sp, #80]	; 0x50
 800299a:	f88d 6030 	strb.w	r6, [sp, #48]	; 0x30
 800299e:	f88d 5054 	strb.w	r5, [sp, #84]	; 0x54
 80029a2:	f88d 5064 	strb.w	r5, [sp, #100]	; 0x64
 80029a6:	951a      	str	r5, [sp, #104]	; 0x68
 80029a8:	951d      	str	r5, [sp, #116]	; 0x74
 80029aa:	f88d 506c 	strb.w	r5, [sp, #108]	; 0x6c
 80029ae:	f88d 604c 	strb.w	r6, [sp, #76]	; 0x4c
 80029b2:	f8ad 608c 	strh.w	r6, [sp, #140]	; 0x8c
 80029b6:	f88d 508e 	strb.w	r5, [sp, #142]	; 0x8e
 80029ba:	951f      	str	r5, [sp, #124]	; 0x7c
 80029bc:	f8ad 5080 	strh.w	r5, [sp, #128]	; 0x80
 80029c0:	f88d 5082 	strb.w	r5, [sp, #130]	; 0x82
 80029c4:	9516      	str	r5, [sp, #88]	; 0x58
 80029c6:	f8ad 505c 	strh.w	r5, [sp, #92]	; 0x5c
 80029ca:	f88d 605e 	strb.w	r6, [sp, #94]	; 0x5e
 80029ce:	950d      	str	r5, [sp, #52]	; 0x34
 80029d0:	f88d 503e 	strb.w	r5, [sp, #62]	; 0x3e
 80029d4:	951c      	str	r5, [sp, #112]	; 0x70
 80029d6:	f88d 6078 	strb.w	r6, [sp, #120]	; 0x78
 80029da:	fbb0 f0f3 	udiv	r0, r0, r3
 80029de:	f44f 63c3 	mov.w	r3, #1560	; 0x618
 80029e2:	3801      	subs	r0, #1
 80029e4:	9318      	str	r3, [sp, #96]	; 0x60
 80029e6:	f04f 5340 	mov.w	r3, #805306368	; 0x30000000
 80029ea:	f8c7 00dc 	str.w	r0, [r7, #220]	; 0xdc
 80029ee:	2002      	movs	r0, #2
 80029f0:	930b      	str	r3, [sp, #44]	; 0x2c
 80029f2:	f44f 5300 	mov.w	r3, #8192	; 0x2000
 80029f6:	e9cd 1310 	strd	r1, r3, [sp, #64]	; 0x40
 80029fa:	f44f 3380 	mov.w	r3, #65536	; 0x10000
 80029fe:	a90b      	add	r1, sp, #44	; 0x2c
 8002a00:	9312      	str	r3, [sp, #72]	; 0x48
 8002a02:	2320      	movs	r3, #32
 8002a04:	e9cd 0321 	strd	r0, r3, [sp, #132]	; 0x84
 8002a08:	4b4a      	ldr	r3, [pc, #296]	; (8002b34 <HAL_ETH_Init+0x218>)
 8002a0a:	4620      	mov	r0, r4
 8002a0c:	930e      	str	r3, [sp, #56]	; 0x38
 8002a0e:	f240 1301 	movw	r3, #257	; 0x101
 8002a12:	f8ad 303c 	strh.w	r3, [sp, #60]	; 0x3c
 8002a16:	f7ff fe3d 	bl	8002694 <ETH_SetMACConfig>
 8002a1a:	f44f 1300 	mov.w	r3, #2097152	; 0x200000
 8002a1e:	a902      	add	r1, sp, #8
 8002a20:	4620      	mov	r0, r4
 8002a22:	f88d 600c 	strb.w	r6, [sp, #12]
 8002a26:	9306      	str	r3, [sp, #24]
 8002a28:	9308      	str	r3, [sp, #32]
 8002a2a:	f44f 7306 	mov.w	r3, #536	; 0x218
 8002a2e:	9502      	str	r5, [sp, #8]
 8002a30:	930a      	str	r3, [sp, #40]	; 0x28
 8002a32:	9604      	str	r6, [sp, #16]
 8002a34:	f8ad 5014 	strh.w	r5, [sp, #20]
 8002a38:	f88d 501c 	strb.w	r5, [sp, #28]
 8002a3c:	f8ad 5024 	strh.w	r5, [sp, #36]	; 0x24
 8002a40:	f7ff feea 	bl	8002818 <ETH_SetDMAConfig>
 8002a44:	f507 5280 	add.w	r2, r7, #4096	; 0x1000
 8002a48:	6960      	ldr	r0, [r4, #20]
 8002a4a:	f8d2 3100 	ldr.w	r3, [r2, #256]	; 0x100
 8002a4e:	f010 0103 	ands.w	r1, r0, #3
 8002a52:	f423 13e0 	bic.w	r3, r3, #1835008	; 0x1c0000
 8002a56:	f443 2300 	orr.w	r3, r3, #524288	; 0x80000
 8002a5a:	f8c2 3100 	str.w	r3, [r2, #256]	; 0x100
 8002a5e:	d014      	beq.n	8002a8a <HAL_ETH_Init+0x16e>
 8002a60:	f8c4 6088 	str.w	r6, [r4, #136]	; 0x88
 8002a64:	e00c      	b.n	8002a80 <HAL_ETH_Init+0x164>
 8002a66:	f44f 0000 	mov.w	r0, #8388608	; 0x800000
 8002a6a:	e776      	b.n	800295a <HAL_ETH_Init+0x3e>
 8002a6c:	f7ff f990 	bl	8001d90 <HAL_GetTick>
 8002a70:	1b80      	subs	r0, r0, r6
 8002a72:	f5b0 7ffa 	cmp.w	r0, #500	; 0x1f4
 8002a76:	f67f af7e 	bls.w	8002976 <HAL_ETH_Init+0x5a>
 8002a7a:	2304      	movs	r3, #4
 8002a7c:	f8c4 3088 	str.w	r3, [r4, #136]	; 0x88
 8002a80:	23e0      	movs	r3, #224	; 0xe0
 8002a82:	f8c4 3084 	str.w	r3, [r4, #132]	; 0x84
 8002a86:	2001      	movs	r0, #1
 8002a88:	e04c      	b.n	8002b24 <HAL_ETH_Init+0x208>
 8002a8a:	f8d2 3108 	ldr.w	r3, [r2, #264]	; 0x108
 8002a8e:	f104 0514 	add.w	r5, r4, #20
 8002a92:	f423 43ff 	bic.w	r3, r3, #32640	; 0x7f80
 8002a96:	f023 037e 	bic.w	r3, r3, #126	; 0x7e
 8002a9a:	ea43 0340 	orr.w	r3, r3, r0, lsl #1
 8002a9e:	68e0      	ldr	r0, [r4, #12]
 8002aa0:	f8c2 3108 	str.w	r3, [r2, #264]	; 0x108
 8002aa4:	f100 0660 	add.w	r6, r0, #96	; 0x60
 8002aa8:	4603      	mov	r3, r0
 8002aaa:	6019      	str	r1, [r3, #0]
 8002aac:	6059      	str	r1, [r3, #4]
 8002aae:	6099      	str	r1, [r3, #8]
 8002ab0:	60d9      	str	r1, [r3, #12]
 8002ab2:	f845 3f04 	str.w	r3, [r5, #4]!
 8002ab6:	3318      	adds	r3, #24
 8002ab8:	42b3      	cmp	r3, r6
 8002aba:	d1f6      	bne.n	8002aaa <HAL_ETH_Init+0x18e>
 8002abc:	2303      	movs	r3, #3
 8002abe:	62a1      	str	r1, [r4, #40]	; 0x28
 8002ac0:	f104 0544 	add.w	r5, r4, #68	; 0x44
 8002ac4:	f8c2 312c 	str.w	r3, [r2, #300]	; 0x12c
 8002ac8:	2300      	movs	r3, #0
 8002aca:	f8c2 0114 	str.w	r0, [r2, #276]	; 0x114
 8002ace:	f8c2 0120 	str.w	r0, [r2, #288]	; 0x120
 8002ad2:	6920      	ldr	r0, [r4, #16]
 8002ad4:	f100 0660 	add.w	r6, r0, #96	; 0x60
 8002ad8:	4601      	mov	r1, r0
 8002ada:	600b      	str	r3, [r1, #0]
 8002adc:	604b      	str	r3, [r1, #4]
 8002ade:	608b      	str	r3, [r1, #8]
 8002ae0:	60cb      	str	r3, [r1, #12]
 8002ae2:	e9c1 3304 	strd	r3, r3, [r1, #16]
 8002ae6:	f845 1f04 	str.w	r1, [r5, #4]!
 8002aea:	3118      	adds	r1, #24
 8002aec:	42b1      	cmp	r1, r6
 8002aee:	d1f4      	bne.n	8002ada <HAL_ETH_Init+0x1be>
 8002af0:	2103      	movs	r1, #3
 8002af2:	65a3      	str	r3, [r4, #88]	; 0x58
 8002af4:	e9c4 3317 	strd	r3, r3, [r4, #92]	; 0x5c
 8002af8:	e9c4 331a 	strd	r3, r3, [r4, #104]	; 0x68
 8002afc:	f8c2 1130 	str.w	r1, [r2, #304]	; 0x130
 8002b00:	f8c2 011c 	str.w	r0, [r2, #284]	; 0x11c
 8002b04:	3048      	adds	r0, #72	; 0x48
 8002b06:	f8c2 0128 	str.w	r0, [r2, #296]	; 0x128
 8002b0a:	2000      	movs	r0, #0
 8002b0c:	6862      	ldr	r2, [r4, #4]
 8002b0e:	8891      	ldrh	r1, [r2, #4]
 8002b10:	f8c7 1300 	str.w	r1, [r7, #768]	; 0x300
 8002b14:	6812      	ldr	r2, [r2, #0]
 8002b16:	f8c7 2304 	str.w	r2, [r7, #772]	; 0x304
 8002b1a:	f8c4 3088 	str.w	r3, [r4, #136]	; 0x88
 8002b1e:	2310      	movs	r3, #16
 8002b20:	f8c4 3084 	str.w	r3, [r4, #132]	; 0x84
 8002b24:	b025      	add	sp, #148	; 0x94
 8002b26:	bdf0      	pop	{r4, r5, r6, r7, pc}
 8002b28:	58024400 	.word	0x58024400
 8002b2c:	58000400 	.word	0x58000400
 8002b30:	000f4240 	.word	0x000f4240
 8002b34:	01010000 	.word	0x01010000

08002b38 <HAL_FDCAN_Init>:
 8002b38:	e92d 4ff0 	stmdb	sp!, {r4, r5, r6, r7, r8, r9, sl, fp, lr}
 8002b3c:	b099      	sub	sp, #100	; 0x64
 8002b3e:	4604      	mov	r4, r0
 8002b40:	224c      	movs	r2, #76	; 0x4c
 8002b42:	49c9      	ldr	r1, [pc, #804]	; (8002e68 <HAL_FDCAN_Init+0x330>)
 8002b44:	a805      	add	r0, sp, #20
 8002b46:	f003 fe7b 	bl	8006840 <memcpy>
 8002b4a:	2c00      	cmp	r4, #0
 8002b4c:	f000 81b5 	beq.w	8002eba <HAL_FDCAN_Init+0x382>
 8002b50:	4bc6      	ldr	r3, [pc, #792]	; (8002e6c <HAL_FDCAN_Init+0x334>)
 8002b52:	6822      	ldr	r2, [r4, #0]
 8002b54:	429a      	cmp	r2, r3
 8002b56:	bf04      	itt	eq
 8002b58:	f503 7380 	addeq.w	r3, r3, #256	; 0x100
 8002b5c:	6063      	streq	r3, [r4, #4]
 8002b5e:	f894 3098 	ldrb.w	r3, [r4, #152]	; 0x98
 8002b62:	f003 02ff 	and.w	r2, r3, #255	; 0xff
 8002b66:	b923      	cbnz	r3, 8002b72 <HAL_FDCAN_Init+0x3a>
 8002b68:	4620      	mov	r0, r4
 8002b6a:	f884 2099 	strb.w	r2, [r4, #153]	; 0x99
 8002b6e:	f7fe fbcb 	bl	8001308 <HAL_FDCAN_MspInit>
 8002b72:	6822      	ldr	r2, [r4, #0]
 8002b74:	6993      	ldr	r3, [r2, #24]
 8002b76:	f023 0310 	bic.w	r3, r3, #16
 8002b7a:	6193      	str	r3, [r2, #24]
 8002b7c:	f7ff f908 	bl	8001d90 <HAL_GetTick>
 8002b80:	4605      	mov	r5, r0
 8002b82:	6823      	ldr	r3, [r4, #0]
 8002b84:	699a      	ldr	r2, [r3, #24]
 8002b86:	0711      	lsls	r1, r2, #28
 8002b88:	f100 8188 	bmi.w	8002e9c <HAL_FDCAN_Init+0x364>
 8002b8c:	699a      	ldr	r2, [r3, #24]
 8002b8e:	f042 0201 	orr.w	r2, r2, #1
 8002b92:	619a      	str	r2, [r3, #24]
 8002b94:	f7ff f8fc 	bl	8001d90 <HAL_GetTick>
 8002b98:	4605      	mov	r5, r0
 8002b9a:	6823      	ldr	r3, [r4, #0]
 8002b9c:	699a      	ldr	r2, [r3, #24]
 8002b9e:	07d2      	lsls	r2, r2, #31
 8002ba0:	f140 818d 	bpl.w	8002ebe <HAL_FDCAN_Init+0x386>
 8002ba4:	699a      	ldr	r2, [r3, #24]
 8002ba6:	f042 0202 	orr.w	r2, r2, #2
 8002baa:	619a      	str	r2, [r3, #24]
 8002bac:	7c22      	ldrb	r2, [r4, #16]
 8002bae:	2a01      	cmp	r2, #1
 8002bb0:	699a      	ldr	r2, [r3, #24]
 8002bb2:	bf0c      	ite	eq
 8002bb4:	f022 0240 	biceq.w	r2, r2, #64	; 0x40
 8002bb8:	f042 0240 	orrne.w	r2, r2, #64	; 0x40
 8002bbc:	619a      	str	r2, [r3, #24]
 8002bbe:	7c62      	ldrb	r2, [r4, #17]
 8002bc0:	2a01      	cmp	r2, #1
 8002bc2:	699a      	ldr	r2, [r3, #24]
 8002bc4:	bf0c      	ite	eq
 8002bc6:	f442 4280 	orreq.w	r2, r2, #16384	; 0x4000
 8002bca:	f422 4280 	bicne.w	r2, r2, #16384	; 0x4000
 8002bce:	619a      	str	r2, [r3, #24]
 8002bd0:	7ca2      	ldrb	r2, [r4, #18]
 8002bd2:	2a01      	cmp	r2, #1
 8002bd4:	699a      	ldr	r2, [r3, #24]
 8002bd6:	bf0c      	ite	eq
 8002bd8:	f422 5280 	biceq.w	r2, r2, #4096	; 0x1000
 8002bdc:	f442 5280 	orrne.w	r2, r2, #4096	; 0x1000
 8002be0:	619a      	str	r2, [r3, #24]
 8002be2:	699a      	ldr	r2, [r3, #24]
 8002be4:	68a0      	ldr	r0, [r4, #8]
 8002be6:	f422 7240 	bic.w	r2, r2, #768	; 0x300
 8002bea:	4302      	orrs	r2, r0
 8002bec:	619a      	str	r2, [r3, #24]
 8002bee:	699a      	ldr	r2, [r3, #24]
 8002bf0:	f022 02a4 	bic.w	r2, r2, #164	; 0xa4
 8002bf4:	619a      	str	r2, [r3, #24]
 8002bf6:	691a      	ldr	r2, [r3, #16]
 8002bf8:	f022 0210 	bic.w	r2, r2, #16
 8002bfc:	611a      	str	r2, [r3, #16]
 8002bfe:	68e2      	ldr	r2, [r4, #12]
 8002c00:	2a01      	cmp	r2, #1
 8002c02:	f040 8163 	bne.w	8002ecc <HAL_FDCAN_Init+0x394>
 8002c06:	699a      	ldr	r2, [r3, #24]
 8002c08:	f042 0204 	orr.w	r2, r2, #4
 8002c0c:	619a      	str	r2, [r3, #24]
 8002c0e:	69a2      	ldr	r2, [r4, #24]
 8002c10:	f5b0 7f40 	cmp.w	r0, #768	; 0x300
 8002c14:	f102 31ff 	add.w	r1, r2, #4294967295
 8002c18:	69e2      	ldr	r2, [r4, #28]
 8002c1a:	f102 32ff 	add.w	r2, r2, #4294967295
 8002c1e:	ea4f 2202 	mov.w	r2, r2, lsl #8
 8002c22:	ea42 6241 	orr.w	r2, r2, r1, lsl #25
 8002c26:	6a21      	ldr	r1, [r4, #32]
 8002c28:	f101 31ff 	add.w	r1, r1, #4294967295
 8002c2c:	ea42 0201 	orr.w	r2, r2, r1
 8002c30:	6961      	ldr	r1, [r4, #20]
 8002c32:	f101 31ff 	add.w	r1, r1, #4294967295
 8002c36:	ea42 4201 	orr.w	r2, r2, r1, lsl #16
 8002c3a:	61da      	str	r2, [r3, #28]
 8002c3c:	d10e      	bne.n	8002c5c <HAL_FDCAN_Init+0x124>
 8002c3e:	6ae2      	ldr	r2, [r4, #44]	; 0x2c
 8002c40:	1e51      	subs	r1, r2, #1
 8002c42:	6b22      	ldr	r2, [r4, #48]	; 0x30
 8002c44:	3a01      	subs	r2, #1
 8002c46:	0112      	lsls	r2, r2, #4
 8002c48:	ea42 2201 	orr.w	r2, r2, r1, lsl #8
 8002c4c:	6aa1      	ldr	r1, [r4, #40]	; 0x28
 8002c4e:	3901      	subs	r1, #1
 8002c50:	430a      	orrs	r2, r1
 8002c52:	6a61      	ldr	r1, [r4, #36]	; 0x24
 8002c54:	3901      	subs	r1, #1
 8002c56:	ea42 4201 	orr.w	r2, r2, r1, lsl #16
 8002c5a:	60da      	str	r2, [r3, #12]
 8002c5c:	6e25      	ldr	r5, [r4, #96]	; 0x60
 8002c5e:	b12d      	cbz	r5, 8002c6c <HAL_FDCAN_Init+0x134>
 8002c60:	f8d3 20c0 	ldr.w	r2, [r3, #192]	; 0xc0
 8002c64:	6e61      	ldr	r1, [r4, #100]	; 0x64
 8002c66:	430a      	orrs	r2, r1
 8002c68:	f8c3 20c0 	str.w	r2, [r3, #192]	; 0xc0
 8002c6c:	f8d4 a05c 	ldr.w	sl, [r4, #92]	; 0x5c
 8002c70:	f8d4 b068 	ldr.w	fp, [r4, #104]	; 0x68
 8002c74:	eb15 0f0a 	cmn.w	r5, sl
 8002c78:	d00b      	beq.n	8002c92 <HAL_FDCAN_Init+0x15a>
 8002c7a:	a918      	add	r1, sp, #96	; 0x60
 8002c7c:	f8d3 20c8 	ldr.w	r2, [r3, #200]	; 0xc8
 8002c80:	eb01 018b 	add.w	r1, r1, fp, lsl #2
 8002c84:	f022 0207 	bic.w	r2, r2, #7
 8002c88:	f851 1c4c 	ldr.w	r1, [r1, #-76]
 8002c8c:	430a      	orrs	r2, r1
 8002c8e:	f8c3 20c8 	str.w	r2, [r3, #200]	; 0xc8
 8002c92:	e9d4 7210 	ldrd	r7, r2, [r4, #64]	; 0x40
 8002c96:	9203      	str	r2, [sp, #12]
 8002c98:	b167      	cbz	r7, 8002cb4 <HAL_FDCAN_Init+0x17c>
 8002c9a:	a818      	add	r0, sp, #96	; 0x60
 8002c9c:	9903      	ldr	r1, [sp, #12]
 8002c9e:	f8d3 20bc 	ldr.w	r2, [r3, #188]	; 0xbc
 8002ca2:	eb00 0181 	add.w	r1, r0, r1, lsl #2
 8002ca6:	f022 0207 	bic.w	r2, r2, #7
 8002caa:	f851 1c4c 	ldr.w	r1, [r1, #-76]
 8002cae:	430a      	orrs	r2, r1
 8002cb0:	f8c3 20bc 	str.w	r2, [r3, #188]	; 0xbc
 8002cb4:	e9d4 6912 	ldrd	r6, r9, [r4, #72]	; 0x48
 8002cb8:	b166      	cbz	r6, 8002cd4 <HAL_FDCAN_Init+0x19c>
 8002cba:	a918      	add	r1, sp, #96	; 0x60
 8002cbc:	f8d3 20bc 	ldr.w	r2, [r3, #188]	; 0xbc
 8002cc0:	eb01 0189 	add.w	r1, r1, r9, lsl #2
 8002cc4:	f022 0270 	bic.w	r2, r2, #112	; 0x70
 8002cc8:	f851 1c4c 	ldr.w	r1, [r1, #-76]
 8002ccc:	ea42 1201 	orr.w	r2, r2, r1, lsl #4
 8002cd0:	f8c3 20bc 	str.w	r2, [r3, #188]	; 0xbc
 8002cd4:	6d22      	ldr	r2, [r4, #80]	; 0x50
 8002cd6:	f8d4 c054 	ldr.w	ip, [r4, #84]	; 0x54
 8002cda:	9202      	str	r2, [sp, #8]
 8002cdc:	b162      	cbz	r2, 8002cf8 <HAL_FDCAN_Init+0x1c0>
 8002cde:	a918      	add	r1, sp, #96	; 0x60
 8002ce0:	f8d3 20bc 	ldr.w	r2, [r3, #188]	; 0xbc
 8002ce4:	eb01 018c 	add.w	r1, r1, ip, lsl #2
 8002ce8:	f422 62e0 	bic.w	r2, r2, #1792	; 0x700
 8002cec:	f851 1c4c 	ldr.w	r1, [r1, #-76]
 8002cf0:	ea42 2201 	orr.w	r2, r2, r1, lsl #8
 8002cf4:	f8c3 20bc 	str.w	r2, [r3, #188]	; 0xbc
 8002cf8:	4a5c      	ldr	r2, [pc, #368]	; (8002e6c <HAL_FDCAN_Init+0x334>)
 8002cfa:	4293      	cmp	r3, r2
 8002cfc:	d104      	bne.n	8002d08 <HAL_FDCAN_Init+0x1d0>
 8002cfe:	6861      	ldr	r1, [r4, #4]
 8002d00:	688a      	ldr	r2, [r1, #8]
 8002d02:	f022 0203 	bic.w	r2, r2, #3
 8002d06:	608a      	str	r2, [r1, #8]
 8002d08:	2200      	movs	r2, #0
 8002d0a:	4859      	ldr	r0, [pc, #356]	; (8002e70 <HAL_FDCAN_Init+0x338>)
 8002d0c:	f8d4 803c 	ldr.w	r8, [r4, #60]	; 0x3c
 8002d10:	f8c4 209c 	str.w	r2, [r4, #156]	; 0x9c
 8002d14:	f8c4 2094 	str.w	r2, [r4, #148]	; 0x94
 8002d18:	f04f 0201 	mov.w	r2, #1
 8002d1c:	f884 2098 	strb.w	r2, [r4, #152]	; 0x98
 8002d20:	6b62      	ldr	r2, [r4, #52]	; 0x34
 8002d22:	9200      	str	r2, [sp, #0]
 8002d24:	f8d3 2084 	ldr.w	r2, [r3, #132]	; 0x84
 8002d28:	9900      	ldr	r1, [sp, #0]
 8002d2a:	4002      	ands	r2, r0
 8002d2c:	ea42 0281 	orr.w	r2, r2, r1, lsl #2
 8002d30:	f8c3 2084 	str.w	r2, [r3, #132]	; 0x84
 8002d34:	f8d3 1084 	ldr.w	r1, [r3, #132]	; 0x84
 8002d38:	6ba2      	ldr	r2, [r4, #56]	; 0x38
 8002d3a:	f421 017f 	bic.w	r1, r1, #16711680	; 0xff0000
 8002d3e:	9201      	str	r2, [sp, #4]
 8002d40:	ea41 4102 	orr.w	r1, r1, r2, lsl #16
 8002d44:	f8c3 1084 	str.w	r1, [r3, #132]	; 0x84
 8002d48:	9900      	ldr	r1, [sp, #0]
 8002d4a:	eb01 0e02 	add.w	lr, r1, r2
 8002d4e:	f8d3 1088 	ldr.w	r1, [r3, #136]	; 0x88
 8002d52:	9a03      	ldr	r2, [sp, #12]
 8002d54:	4001      	ands	r1, r0
 8002d56:	ea41 018e 	orr.w	r1, r1, lr, lsl #2
 8002d5a:	f8c3 1088 	str.w	r1, [r3, #136]	; 0x88
 8002d5e:	f8d3 1088 	ldr.w	r1, [r3, #136]	; 0x88
 8002d62:	f421 01fe 	bic.w	r1, r1, #8323072	; 0x7f0000
 8002d66:	ea41 4108 	orr.w	r1, r1, r8, lsl #16
 8002d6a:	f8c3 1088 	str.w	r1, [r3, #136]	; 0x88
 8002d6e:	eb0e 0148 	add.w	r1, lr, r8, lsl #1
 8002d72:	f8d3 e0a0 	ldr.w	lr, [r3, #160]	; 0xa0
 8002d76:	ea0e 0e00 	and.w	lr, lr, r0
 8002d7a:	ea4e 0e81 	orr.w	lr, lr, r1, lsl #2
 8002d7e:	f8c3 e0a0 	str.w	lr, [r3, #160]	; 0xa0
 8002d82:	f8d3 e0a0 	ldr.w	lr, [r3, #160]	; 0xa0
 8002d86:	f42e 0efe 	bic.w	lr, lr, #8323072	; 0x7f0000
 8002d8a:	ea4e 4e07 	orr.w	lr, lr, r7, lsl #16
 8002d8e:	4357      	muls	r7, r2
 8002d90:	9a02      	ldr	r2, [sp, #8]
 8002d92:	f8c3 e0a0 	str.w	lr, [r3, #160]	; 0xa0
 8002d96:	4439      	add	r1, r7
 8002d98:	f8d3 e0b0 	ldr.w	lr, [r3, #176]	; 0xb0
 8002d9c:	fb02 fc0c 	mul.w	ip, r2, ip
 8002da0:	ea0e 0e00 	and.w	lr, lr, r0
 8002da4:	ea4e 0e81 	orr.w	lr, lr, r1, lsl #2
 8002da8:	f8c3 e0b0 	str.w	lr, [r3, #176]	; 0xb0
 8002dac:	f8d3 e0b0 	ldr.w	lr, [r3, #176]	; 0xb0
 8002db0:	f42e 0efe 	bic.w	lr, lr, #8323072	; 0x7f0000
 8002db4:	ea4e 4e06 	orr.w	lr, lr, r6, lsl #16
 8002db8:	fb09 f606 	mul.w	r6, r9, r6
 8002dbc:	f8c3 e0b0 	str.w	lr, [r3, #176]	; 0xb0
 8002dc0:	4431      	add	r1, r6
 8002dc2:	f8d3 e0ac 	ldr.w	lr, [r3, #172]	; 0xac
 8002dc6:	ea0e 0e00 	and.w	lr, lr, r0
 8002dca:	ea4e 0e81 	orr.w	lr, lr, r1, lsl #2
 8002dce:	4461      	add	r1, ip
 8002dd0:	f8c3 e0ac 	str.w	lr, [r3, #172]	; 0xac
 8002dd4:	f8d3 e0f0 	ldr.w	lr, [r3, #240]	; 0xf0
 8002dd8:	ea0e 0e00 	and.w	lr, lr, r0
 8002ddc:	ea4e 0e81 	orr.w	lr, lr, r1, lsl #2
 8002de0:	f8c3 e0f0 	str.w	lr, [r3, #240]	; 0xf0
 8002de4:	f8d3 e0f0 	ldr.w	lr, [r3, #240]	; 0xf0
 8002de8:	f8d4 9058 	ldr.w	r9, [r4, #88]	; 0x58
 8002dec:	f42e 1e7c 	bic.w	lr, lr, #4128768	; 0x3f0000
 8002df0:	9a01      	ldr	r2, [sp, #4]
 8002df2:	eb01 0149 	add.w	r1, r1, r9, lsl #1
 8002df6:	ea4e 4e09 	orr.w	lr, lr, r9, lsl #16
 8002dfa:	f8c3 e0f0 	str.w	lr, [r3, #240]	; 0xf0
 8002dfe:	f8d3 e0c0 	ldr.w	lr, [r3, #192]	; 0xc0
 8002e02:	ea0e 0e00 	and.w	lr, lr, r0
 8002e06:	ea4e 0181 	orr.w	r1, lr, r1, lsl #2
 8002e0a:	f8c3 10c0 	str.w	r1, [r3, #192]	; 0xc0
 8002e0e:	f8d3 10c0 	ldr.w	r1, [r3, #192]	; 0xc0
 8002e12:	f421 117c 	bic.w	r1, r1, #4128768	; 0x3f0000
 8002e16:	ea41 410a 	orr.w	r1, r1, sl, lsl #16
 8002e1a:	f8c3 10c0 	str.w	r1, [r3, #192]	; 0xc0
 8002e1e:	f8d3 10c0 	ldr.w	r1, [r3, #192]	; 0xc0
 8002e22:	f021 517c 	bic.w	r1, r1, #1056964608	; 0x3f000000
 8002e26:	ea41 6105 	orr.w	r1, r1, r5, lsl #24
 8002e2a:	fb0b f505 	mul.w	r5, fp, r5
 8002e2e:	f8c3 10c0 	str.w	r1, [r3, #192]	; 0xc0
 8002e32:	9b00      	ldr	r3, [sp, #0]
 8002e34:	fb0b f10a 	mul.w	r1, fp, sl
 8002e38:	f103 5380 	add.w	r3, r3, #268435456	; 0x10000000
 8002e3c:	f503 532c 	add.w	r3, r3, #11008	; 0x2b00
 8002e40:	009b      	lsls	r3, r3, #2
 8002e42:	eb03 0282 	add.w	r2, r3, r2, lsl #2
 8002e46:	66e3      	str	r3, [r4, #108]	; 0x6c
 8002e48:	6722      	str	r2, [r4, #112]	; 0x70
 8002e4a:	eb02 02c8 	add.w	r2, r2, r8, lsl #3
 8002e4e:	6762      	str	r2, [r4, #116]	; 0x74
 8002e50:	eb02 0287 	add.w	r2, r2, r7, lsl #2
 8002e54:	67a2      	str	r2, [r4, #120]	; 0x78
 8002e56:	eb02 0286 	add.w	r2, r2, r6, lsl #2
 8002e5a:	67e2      	str	r2, [r4, #124]	; 0x7c
 8002e5c:	eb02 028c 	add.w	r2, r2, ip, lsl #2
 8002e60:	f8c4 2080 	str.w	r2, [r4, #128]	; 0x80
 8002e64:	e006      	b.n	8002e74 <HAL_FDCAN_Init+0x33c>
 8002e66:	bf00      	nop
 8002e68:	08006874 	.word	0x08006874
 8002e6c:	4000a000 	.word	0x4000a000
 8002e70:	ffff0003 	.word	0xffff0003
 8002e74:	eb02 02c9 	add.w	r2, r2, r9, lsl #3
 8002e78:	f8c4 2084 	str.w	r2, [r4, #132]	; 0x84
 8002e7c:	eb02 0281 	add.w	r2, r2, r1, lsl #2
 8002e80:	eb02 0585 	add.w	r5, r2, r5, lsl #2
 8002e84:	f8c4 2088 	str.w	r2, [r4, #136]	; 0x88
 8002e88:	4a20      	ldr	r2, [pc, #128]	; (8002f0c <HAL_FDCAN_Init+0x3d4>)
 8002e8a:	f8c4 5090 	str.w	r5, [r4, #144]	; 0x90
 8002e8e:	4295      	cmp	r5, r2
 8002e90:	d933      	bls.n	8002efa <HAL_FDCAN_Init+0x3c2>
 8002e92:	f8d4 309c 	ldr.w	r3, [r4, #156]	; 0x9c
 8002e96:	f043 0320 	orr.w	r3, r3, #32
 8002e9a:	e009      	b.n	8002eb0 <HAL_FDCAN_Init+0x378>
 8002e9c:	f7fe ff78 	bl	8001d90 <HAL_GetTick>
 8002ea0:	1b40      	subs	r0, r0, r5
 8002ea2:	280a      	cmp	r0, #10
 8002ea4:	f67f ae6d 	bls.w	8002b82 <HAL_FDCAN_Init+0x4a>
 8002ea8:	f8d4 309c 	ldr.w	r3, [r4, #156]	; 0x9c
 8002eac:	f043 0301 	orr.w	r3, r3, #1
 8002eb0:	f8c4 309c 	str.w	r3, [r4, #156]	; 0x9c
 8002eb4:	2303      	movs	r3, #3
 8002eb6:	f884 3098 	strb.w	r3, [r4, #152]	; 0x98
 8002eba:	2001      	movs	r0, #1
 8002ebc:	e022      	b.n	8002f04 <HAL_FDCAN_Init+0x3cc>
 8002ebe:	f7fe ff67 	bl	8001d90 <HAL_GetTick>
 8002ec2:	1b40      	subs	r0, r0, r5
 8002ec4:	280a      	cmp	r0, #10
 8002ec6:	f67f ae68 	bls.w	8002b9a <HAL_FDCAN_Init+0x62>
 8002eca:	e7ed      	b.n	8002ea8 <HAL_FDCAN_Init+0x370>
 8002ecc:	2a00      	cmp	r2, #0
 8002ece:	f43f ae9e 	beq.w	8002c0e <HAL_FDCAN_Init+0xd6>
 8002ed2:	2a02      	cmp	r2, #2
 8002ed4:	d00a      	beq.n	8002eec <HAL_FDCAN_Init+0x3b4>
 8002ed6:	6999      	ldr	r1, [r3, #24]
 8002ed8:	2a03      	cmp	r2, #3
 8002eda:	f041 0180 	orr.w	r1, r1, #128	; 0x80
 8002ede:	6199      	str	r1, [r3, #24]
 8002ee0:	6919      	ldr	r1, [r3, #16]
 8002ee2:	f041 0110 	orr.w	r1, r1, #16
 8002ee6:	6119      	str	r1, [r3, #16]
 8002ee8:	f47f ae91 	bne.w	8002c0e <HAL_FDCAN_Init+0xd6>
 8002eec:	699a      	ldr	r2, [r3, #24]
 8002eee:	f042 0220 	orr.w	r2, r2, #32
 8002ef2:	e68b      	b.n	8002c0c <HAL_FDCAN_Init+0xd4>
 8002ef4:	2200      	movs	r2, #0
 8002ef6:	f843 2b04 	str.w	r2, [r3], #4
 8002efa:	f8d4 2090 	ldr.w	r2, [r4, #144]	; 0x90
 8002efe:	4293      	cmp	r3, r2
 8002f00:	d3f8      	bcc.n	8002ef4 <HAL_FDCAN_Init+0x3bc>
 8002f02:	2000      	movs	r0, #0
 8002f04:	b019      	add	sp, #100	; 0x64
 8002f06:	e8bd 8ff0 	ldmia.w	sp!, {r4, r5, r6, r7, r8, r9, sl, fp, pc}
 8002f0a:	bf00      	nop
 8002f0c:	4000d3fc 	.word	0x4000d3fc

08002f10 <HAL_GPIO_Init>:
 8002f10:	e92d 4ff7 	stmdb	sp!, {r0, r1, r2, r4, r5, r6, r7, r8, r9, sl, fp, lr}
 8002f14:	2300      	movs	r3, #0
 8002f16:	f8df 91c8 	ldr.w	r9, [pc, #456]	; 80030e0 <HAL_GPIO_Init+0x1d0>
 8002f1a:	f04f 44b0 	mov.w	r4, #1476395008	; 0x58000000
 8002f1e:	680a      	ldr	r2, [r1, #0]
 8002f20:	fa32 f503 	lsrs.w	r5, r2, r3
 8002f24:	d102      	bne.n	8002f2c <HAL_GPIO_Init+0x1c>
 8002f26:	b003      	add	sp, #12
 8002f28:	e8bd 8ff0 	ldmia.w	sp!, {r4, r5, r6, r7, r8, r9, sl, fp, pc}
 8002f2c:	f04f 0e01 	mov.w	lr, #1
 8002f30:	fa0e fe03 	lsl.w	lr, lr, r3
 8002f34:	ea1e 0202 	ands.w	r2, lr, r2
 8002f38:	f000 80bc 	beq.w	80030b4 <HAL_GPIO_Init+0x1a4>
 8002f3c:	684e      	ldr	r6, [r1, #4]
 8002f3e:	ea4f 0843 	mov.w	r8, r3, lsl #1
 8002f42:	f04f 0c03 	mov.w	ip, #3
 8002f46:	f006 0503 	and.w	r5, r6, #3
 8002f4a:	fa0c fc08 	lsl.w	ip, ip, r8
 8002f4e:	1e6f      	subs	r7, r5, #1
 8002f50:	ea6f 0c0c 	mvn.w	ip, ip
 8002f54:	2f01      	cmp	r7, #1
 8002f56:	d834      	bhi.n	8002fc2 <HAL_GPIO_Init+0xb2>
 8002f58:	6887      	ldr	r7, [r0, #8]
 8002f5a:	ea07 0a0c 	and.w	sl, r7, ip
 8002f5e:	68cf      	ldr	r7, [r1, #12]
 8002f60:	fa07 f708 	lsl.w	r7, r7, r8
 8002f64:	ea47 070a 	orr.w	r7, r7, sl
 8002f68:	6087      	str	r7, [r0, #8]
 8002f6a:	6847      	ldr	r7, [r0, #4]
 8002f6c:	ea27 0e0e 	bic.w	lr, r7, lr
 8002f70:	f3c6 1700 	ubfx	r7, r6, #4, #1
 8002f74:	409f      	lsls	r7, r3
 8002f76:	ea47 070e 	orr.w	r7, r7, lr
 8002f7a:	6047      	str	r7, [r0, #4]
 8002f7c:	68c7      	ldr	r7, [r0, #12]
 8002f7e:	2d02      	cmp	r5, #2
 8002f80:	ea07 0e0c 	and.w	lr, r7, ip
 8002f84:	688f      	ldr	r7, [r1, #8]
 8002f86:	fa07 f708 	lsl.w	r7, r7, r8
 8002f8a:	ea47 070e 	orr.w	r7, r7, lr
 8002f8e:	60c7      	str	r7, [r0, #12]
 8002f90:	d119      	bne.n	8002fc6 <HAL_GPIO_Init+0xb6>
 8002f92:	ea4f 0ad3 	mov.w	sl, r3, lsr #3
 8002f96:	f003 0b07 	and.w	fp, r3, #7
 8002f9a:	f04f 0e0f 	mov.w	lr, #15
 8002f9e:	eb00 0a8a 	add.w	sl, r0, sl, lsl #2
 8002fa2:	ea4f 0b8b 	mov.w	fp, fp, lsl #2
 8002fa6:	f8da 7020 	ldr.w	r7, [sl, #32]
 8002faa:	fa0e fe0b 	lsl.w	lr, lr, fp
 8002fae:	ea27 0e0e 	bic.w	lr, r7, lr
 8002fb2:	690f      	ldr	r7, [r1, #16]
 8002fb4:	fa07 f70b 	lsl.w	r7, r7, fp
 8002fb8:	ea47 070e 	orr.w	r7, r7, lr
 8002fbc:	f8ca 7020 	str.w	r7, [sl, #32]
 8002fc0:	e001      	b.n	8002fc6 <HAL_GPIO_Init+0xb6>
 8002fc2:	2d03      	cmp	r5, #3
 8002fc4:	d1da      	bne.n	8002f7c <HAL_GPIO_Init+0x6c>
 8002fc6:	6807      	ldr	r7, [r0, #0]
 8002fc8:	fa05 f508 	lsl.w	r5, r5, r8
 8002fcc:	f416 3f40 	tst.w	r6, #196608	; 0x30000
 8002fd0:	ea07 070c 	and.w	r7, r7, ip
 8002fd4:	ea45 0507 	orr.w	r5, r5, r7
 8002fd8:	6005      	str	r5, [r0, #0]
 8002fda:	d06b      	beq.n	80030b4 <HAL_GPIO_Init+0x1a4>
 8002fdc:	f8d9 50f4 	ldr.w	r5, [r9, #244]	; 0xf4
 8002fe0:	f023 0703 	bic.w	r7, r3, #3
 8002fe4:	f003 0c03 	and.w	ip, r3, #3
 8002fe8:	f045 0502 	orr.w	r5, r5, #2
 8002fec:	f107 47b0 	add.w	r7, r7, #1476395008	; 0x58000000
 8002ff0:	ea4f 0c8c 	mov.w	ip, ip, lsl #2
 8002ff4:	f8c9 50f4 	str.w	r5, [r9, #244]	; 0xf4
 8002ff8:	f507 6780 	add.w	r7, r7, #1024	; 0x400
 8002ffc:	f8d9 50f4 	ldr.w	r5, [r9, #244]	; 0xf4
 8003000:	f005 0502 	and.w	r5, r5, #2
 8003004:	9501      	str	r5, [sp, #4]
 8003006:	9d01      	ldr	r5, [sp, #4]
 8003008:	250f      	movs	r5, #15
 800300a:	f8d7 e008 	ldr.w	lr, [r7, #8]
 800300e:	fa05 f50c 	lsl.w	r5, r5, ip
 8003012:	ea2e 0e05 	bic.w	lr, lr, r5
 8003016:	4d31      	ldr	r5, [pc, #196]	; (80030dc <HAL_GPIO_Init+0x1cc>)
 8003018:	42a8      	cmp	r0, r5
 800301a:	d04d      	beq.n	80030b8 <HAL_GPIO_Init+0x1a8>
 800301c:	f505 6580 	add.w	r5, r5, #1024	; 0x400
 8003020:	42a8      	cmp	r0, r5
 8003022:	d04b      	beq.n	80030bc <HAL_GPIO_Init+0x1ac>
 8003024:	f505 6580 	add.w	r5, r5, #1024	; 0x400
 8003028:	42a8      	cmp	r0, r5
 800302a:	d049      	beq.n	80030c0 <HAL_GPIO_Init+0x1b0>
 800302c:	f505 6580 	add.w	r5, r5, #1024	; 0x400
 8003030:	42a8      	cmp	r0, r5
 8003032:	d047      	beq.n	80030c4 <HAL_GPIO_Init+0x1b4>
 8003034:	f505 6580 	add.w	r5, r5, #1024	; 0x400
 8003038:	42a8      	cmp	r0, r5
 800303a:	d045      	beq.n	80030c8 <HAL_GPIO_Init+0x1b8>
 800303c:	f505 6580 	add.w	r5, r5, #1024	; 0x400
 8003040:	42a8      	cmp	r0, r5
 8003042:	d043      	beq.n	80030cc <HAL_GPIO_Init+0x1bc>
 8003044:	f505 6580 	add.w	r5, r5, #1024	; 0x400
 8003048:	42a8      	cmp	r0, r5
 800304a:	d041      	beq.n	80030d0 <HAL_GPIO_Init+0x1c0>
 800304c:	f505 6580 	add.w	r5, r5, #1024	; 0x400
 8003050:	42a8      	cmp	r0, r5
 8003052:	d03f      	beq.n	80030d4 <HAL_GPIO_Init+0x1c4>
 8003054:	f505 6580 	add.w	r5, r5, #1024	; 0x400
 8003058:	42a8      	cmp	r0, r5
 800305a:	d03d      	beq.n	80030d8 <HAL_GPIO_Init+0x1c8>
 800305c:	f505 6580 	add.w	r5, r5, #1024	; 0x400
 8003060:	42a8      	cmp	r0, r5
 8003062:	bf0c      	ite	eq
 8003064:	2509      	moveq	r5, #9
 8003066:	250a      	movne	r5, #10
 8003068:	fa05 f50c 	lsl.w	r5, r5, ip
 800306c:	f416 1f80 	tst.w	r6, #1048576	; 0x100000
 8003070:	ea45 050e 	orr.w	r5, r5, lr
 8003074:	60bd      	str	r5, [r7, #8]
 8003076:	ea6f 0702 	mvn.w	r7, r2
 800307a:	6825      	ldr	r5, [r4, #0]
 800307c:	bf0c      	ite	eq
 800307e:	403d      	andeq	r5, r7
 8003080:	4315      	orrne	r5, r2
 8003082:	f416 1f00 	tst.w	r6, #2097152	; 0x200000
 8003086:	6025      	str	r5, [r4, #0]
 8003088:	6865      	ldr	r5, [r4, #4]
 800308a:	bf0c      	ite	eq
 800308c:	403d      	andeq	r5, r7
 800308e:	4315      	orrne	r5, r2
 8003090:	f416 3f00 	tst.w	r6, #131072	; 0x20000
 8003094:	6065      	str	r5, [r4, #4]
 8003096:	f8d4 5084 	ldr.w	r5, [r4, #132]	; 0x84
 800309a:	bf0c      	ite	eq
 800309c:	403d      	andeq	r5, r7
 800309e:	4315      	orrne	r5, r2
 80030a0:	03f6      	lsls	r6, r6, #15
 80030a2:	f8c4 5084 	str.w	r5, [r4, #132]	; 0x84
 80030a6:	f8d4 5080 	ldr.w	r5, [r4, #128]	; 0x80
 80030aa:	bf54      	ite	pl
 80030ac:	403d      	andpl	r5, r7
 80030ae:	4315      	orrmi	r5, r2
 80030b0:	f8c4 5080 	str.w	r5, [r4, #128]	; 0x80
 80030b4:	3301      	adds	r3, #1
 80030b6:	e732      	b.n	8002f1e <HAL_GPIO_Init+0xe>
 80030b8:	2500      	movs	r5, #0
 80030ba:	e7d5      	b.n	8003068 <HAL_GPIO_Init+0x158>
 80030bc:	2501      	movs	r5, #1
 80030be:	e7d3      	b.n	8003068 <HAL_GPIO_Init+0x158>
 80030c0:	2502      	movs	r5, #2
 80030c2:	e7d1      	b.n	8003068 <HAL_GPIO_Init+0x158>
 80030c4:	2503      	movs	r5, #3
 80030c6:	e7cf      	b.n	8003068 <HAL_GPIO_Init+0x158>
 80030c8:	2504      	movs	r5, #4
 80030ca:	e7cd      	b.n	8003068 <HAL_GPIO_Init+0x158>
 80030cc:	2505      	movs	r5, #5
 80030ce:	e7cb      	b.n	8003068 <HAL_GPIO_Init+0x158>
 80030d0:	2506      	movs	r5, #6
 80030d2:	e7c9      	b.n	8003068 <HAL_GPIO_Init+0x158>
 80030d4:	2507      	movs	r5, #7
 80030d6:	e7c7      	b.n	8003068 <HAL_GPIO_Init+0x158>
 80030d8:	2508      	movs	r5, #8
 80030da:	e7c5      	b.n	8003068 <HAL_GPIO_Init+0x158>
 80030dc:	58020000 	.word	0x58020000
 80030e0:	58024400 	.word	0x58024400

080030e4 <HAL_GPIO_WritePin>:
 80030e4:	b10a      	cbz	r2, 80030ea <HAL_GPIO_WritePin+0x6>
 80030e6:	6181      	str	r1, [r0, #24]
 80030e8:	4770      	bx	lr
 80030ea:	0409      	lsls	r1, r1, #16
 80030ec:	e7fb      	b.n	80030e6 <HAL_GPIO_WritePin+0x2>

080030ee <I2C_WaitOnFlagUntilTimeout>:
 80030ee:	e92d 41f0 	stmdb	sp!, {r4, r5, r6, r7, r8, lr}
 80030f2:	9f06      	ldr	r7, [sp, #24]
 80030f4:	4604      	mov	r4, r0
 80030f6:	4688      	mov	r8, r1
 80030f8:	4616      	mov	r6, r2
 80030fa:	461d      	mov	r5, r3
 80030fc:	6822      	ldr	r2, [r4, #0]
 80030fe:	6993      	ldr	r3, [r2, #24]
 8003100:	ea38 0303 	bics.w	r3, r8, r3
 8003104:	bf0c      	ite	eq
 8003106:	2301      	moveq	r3, #1
 8003108:	2300      	movne	r3, #0
 800310a:	42b3      	cmp	r3, r6
 800310c:	d001      	beq.n	8003112 <I2C_WaitOnFlagUntilTimeout+0x24>
 800310e:	2000      	movs	r0, #0
 8003110:	e01e      	b.n	8003150 <I2C_WaitOnFlagUntilTimeout+0x62>
 8003112:	1c6b      	adds	r3, r5, #1
 8003114:	d0f3      	beq.n	80030fe <I2C_WaitOnFlagUntilTimeout+0x10>
 8003116:	f7fe fe3b 	bl	8001d90 <HAL_GetTick>
 800311a:	1bc0      	subs	r0, r0, r7
 800311c:	42a8      	cmp	r0, r5
 800311e:	d801      	bhi.n	8003124 <I2C_WaitOnFlagUntilTimeout+0x36>
 8003120:	2d00      	cmp	r5, #0
 8003122:	d1eb      	bne.n	80030fc <I2C_WaitOnFlagUntilTimeout+0xe>
 8003124:	6823      	ldr	r3, [r4, #0]
 8003126:	699b      	ldr	r3, [r3, #24]
 8003128:	ea38 0303 	bics.w	r3, r8, r3
 800312c:	bf0c      	ite	eq
 800312e:	2301      	moveq	r3, #1
 8003130:	2300      	movne	r3, #0
 8003132:	42b3      	cmp	r3, r6
 8003134:	d1e2      	bne.n	80030fc <I2C_WaitOnFlagUntilTimeout+0xe>
 8003136:	6c63      	ldr	r3, [r4, #68]	; 0x44
 8003138:	2001      	movs	r0, #1
 800313a:	f043 0320 	orr.w	r3, r3, #32
 800313e:	6463      	str	r3, [r4, #68]	; 0x44
 8003140:	2320      	movs	r3, #32
 8003142:	f884 3041 	strb.w	r3, [r4, #65]	; 0x41
 8003146:	2300      	movs	r3, #0
 8003148:	f884 3042 	strb.w	r3, [r4, #66]	; 0x42
 800314c:	f884 3040 	strb.w	r3, [r4, #64]	; 0x40
 8003150:	e8bd 81f0 	ldmia.w	sp!, {r4, r5, r6, r7, r8, pc}

08003154 <HAL_I2C_Init>:
 8003154:	b510      	push	{r4, lr}
 8003156:	4604      	mov	r4, r0
 8003158:	2800      	cmp	r0, #0
 800315a:	d04a      	beq.n	80031f2 <HAL_I2C_Init+0x9e>
 800315c:	f890 3041 	ldrb.w	r3, [r0, #65]	; 0x41
 8003160:	f003 02ff 	and.w	r2, r3, #255	; 0xff
 8003164:	b91b      	cbnz	r3, 800316e <HAL_I2C_Init+0x1a>
 8003166:	f880 2040 	strb.w	r2, [r0, #64]	; 0x40
 800316a:	f7fe f967 	bl	800143c <HAL_I2C_MspInit>
 800316e:	2324      	movs	r3, #36	; 0x24
 8003170:	f884 3041 	strb.w	r3, [r4, #65]	; 0x41
 8003174:	6823      	ldr	r3, [r4, #0]
 8003176:	681a      	ldr	r2, [r3, #0]
 8003178:	f022 0201 	bic.w	r2, r2, #1
 800317c:	601a      	str	r2, [r3, #0]
 800317e:	6862      	ldr	r2, [r4, #4]
 8003180:	f022 6270 	bic.w	r2, r2, #251658240	; 0xf000000
 8003184:	611a      	str	r2, [r3, #16]
 8003186:	689a      	ldr	r2, [r3, #8]
 8003188:	f422 4200 	bic.w	r2, r2, #32768	; 0x8000
 800318c:	609a      	str	r2, [r3, #8]
 800318e:	e9d4 2102 	ldrd	r2, r1, [r4, #8]
 8003192:	2901      	cmp	r1, #1
 8003194:	d124      	bne.n	80031e0 <HAL_I2C_Init+0x8c>
 8003196:	f442 4200 	orr.w	r2, r2, #32768	; 0x8000
 800319a:	609a      	str	r2, [r3, #8]
 800319c:	685a      	ldr	r2, [r3, #4]
 800319e:	2000      	movs	r0, #0
 80031a0:	f042 7200 	orr.w	r2, r2, #33554432	; 0x2000000
 80031a4:	f442 4200 	orr.w	r2, r2, #32768	; 0x8000
 80031a8:	605a      	str	r2, [r3, #4]
 80031aa:	68da      	ldr	r2, [r3, #12]
 80031ac:	f422 4200 	bic.w	r2, r2, #32768	; 0x8000
 80031b0:	60da      	str	r2, [r3, #12]
 80031b2:	e9d4 2104 	ldrd	r2, r1, [r4, #16]
 80031b6:	430a      	orrs	r2, r1
 80031b8:	69a1      	ldr	r1, [r4, #24]
 80031ba:	ea42 2201 	orr.w	r2, r2, r1, lsl #8
 80031be:	60da      	str	r2, [r3, #12]
 80031c0:	e9d4 2107 	ldrd	r2, r1, [r4, #28]
 80031c4:	430a      	orrs	r2, r1
 80031c6:	601a      	str	r2, [r3, #0]
 80031c8:	681a      	ldr	r2, [r3, #0]
 80031ca:	f042 0201 	orr.w	r2, r2, #1
 80031ce:	601a      	str	r2, [r3, #0]
 80031d0:	2320      	movs	r3, #32
 80031d2:	6460      	str	r0, [r4, #68]	; 0x44
 80031d4:	f884 3041 	strb.w	r3, [r4, #65]	; 0x41
 80031d8:	6320      	str	r0, [r4, #48]	; 0x30
 80031da:	f884 0042 	strb.w	r0, [r4, #66]	; 0x42
 80031de:	bd10      	pop	{r4, pc}
 80031e0:	f442 4204 	orr.w	r2, r2, #33792	; 0x8400
 80031e4:	2902      	cmp	r1, #2
 80031e6:	609a      	str	r2, [r3, #8]
 80031e8:	d1d8      	bne.n	800319c <HAL_I2C_Init+0x48>
 80031ea:	f44f 6200 	mov.w	r2, #2048	; 0x800
 80031ee:	605a      	str	r2, [r3, #4]
 80031f0:	e7d4      	b.n	800319c <HAL_I2C_Init+0x48>
 80031f2:	2001      	movs	r0, #1
 80031f4:	e7f3      	b.n	80031de <HAL_I2C_Init+0x8a>

080031f6 <HAL_I2C_IsDeviceReady>:
 80031f6:	e92d 4ff0 	stmdb	sp!, {r4, r5, r6, r7, r8, r9, sl, fp, lr}
 80031fa:	461e      	mov	r6, r3
 80031fc:	b085      	sub	sp, #20
 80031fe:	2300      	movs	r3, #0
 8003200:	4604      	mov	r4, r0
 8003202:	4691      	mov	r9, r2
 8003204:	9303      	str	r3, [sp, #12]
 8003206:	f890 3041 	ldrb.w	r3, [r0, #65]	; 0x41
 800320a:	2b20      	cmp	r3, #32
 800320c:	f040 808e 	bne.w	800332c <HAL_I2C_IsDeviceReady+0x136>
 8003210:	6803      	ldr	r3, [r0, #0]
 8003212:	699b      	ldr	r3, [r3, #24]
 8003214:	f413 4300 	ands.w	r3, r3, #32768	; 0x8000
 8003218:	f040 8088 	bne.w	800332c <HAL_I2C_IsDeviceReady+0x136>
 800321c:	f890 2040 	ldrb.w	r2, [r0, #64]	; 0x40
 8003220:	2a01      	cmp	r2, #1
 8003222:	f000 8083 	beq.w	800332c <HAL_I2C_IsDeviceReady+0x136>
 8003226:	f3c1 0709 	ubfx	r7, r1, #0, #10
 800322a:	2201      	movs	r2, #1
 800322c:	f047 7a00 	orr.w	sl, r7, #33554432	; 0x2000000
 8003230:	f880 2040 	strb.w	r2, [r0, #64]	; 0x40
 8003234:	2224      	movs	r2, #36	; 0x24
 8003236:	f44a 5a00 	orr.w	sl, sl, #8192	; 0x2000
 800323a:	f880 2041 	strb.w	r2, [r0, #65]	; 0x41
 800323e:	6443      	str	r3, [r0, #68]	; 0x44
 8003240:	68e3      	ldr	r3, [r4, #12]
 8003242:	6822      	ldr	r2, [r4, #0]
 8003244:	2b01      	cmp	r3, #1
 8003246:	bf0c      	ite	eq
 8003248:	4653      	moveq	r3, sl
 800324a:	f447 5320 	orrne.w	r3, r7, #10240	; 0x2800
 800324e:	6053      	str	r3, [r2, #4]
 8003250:	f7fe fd9e 	bl	8001d90 <HAL_GetTick>
 8003254:	4680      	mov	r8, r0
 8003256:	6823      	ldr	r3, [r4, #0]
 8003258:	699d      	ldr	r5, [r3, #24]
 800325a:	699b      	ldr	r3, [r3, #24]
 800325c:	f3c5 1540 	ubfx	r5, r5, #5, #1
 8003260:	f3c3 1300 	ubfx	r3, r3, #4, #1
 8003264:	431d      	orrs	r5, r3
 8003266:	d015      	beq.n	8003294 <HAL_I2C_IsDeviceReady+0x9e>
 8003268:	6823      	ldr	r3, [r4, #0]
 800326a:	699a      	ldr	r2, [r3, #24]
 800326c:	4633      	mov	r3, r6
 800326e:	f8cd 8000 	str.w	r8, [sp]
 8003272:	f012 0210 	ands.w	r2, r2, #16
 8003276:	d126      	bne.n	80032c6 <HAL_I2C_IsDeviceReady+0xd0>
 8003278:	2120      	movs	r1, #32
 800327a:	4620      	mov	r0, r4
 800327c:	f7ff ff37 	bl	80030ee <I2C_WaitOnFlagUntilTimeout>
 8003280:	b9e8      	cbnz	r0, 80032be <HAL_I2C_IsDeviceReady+0xc8>
 8003282:	2320      	movs	r3, #32
 8003284:	6822      	ldr	r2, [r4, #0]
 8003286:	4605      	mov	r5, r0
 8003288:	61d3      	str	r3, [r2, #28]
 800328a:	f884 3041 	strb.w	r3, [r4, #65]	; 0x41
 800328e:	f884 0040 	strb.w	r0, [r4, #64]	; 0x40
 8003292:	e014      	b.n	80032be <HAL_I2C_IsDeviceReady+0xc8>
 8003294:	1c73      	adds	r3, r6, #1
 8003296:	d0de      	beq.n	8003256 <HAL_I2C_IsDeviceReady+0x60>
 8003298:	f7fe fd7a 	bl	8001d90 <HAL_GetTick>
 800329c:	eba0 0008 	sub.w	r0, r0, r8
 80032a0:	42b0      	cmp	r0, r6
 80032a2:	d801      	bhi.n	80032a8 <HAL_I2C_IsDeviceReady+0xb2>
 80032a4:	2e00      	cmp	r6, #0
 80032a6:	d1d6      	bne.n	8003256 <HAL_I2C_IsDeviceReady+0x60>
 80032a8:	2320      	movs	r3, #32
 80032aa:	2501      	movs	r5, #1
 80032ac:	f884 3041 	strb.w	r3, [r4, #65]	; 0x41
 80032b0:	6c63      	ldr	r3, [r4, #68]	; 0x44
 80032b2:	f043 0320 	orr.w	r3, r3, #32
 80032b6:	6463      	str	r3, [r4, #68]	; 0x44
 80032b8:	2300      	movs	r3, #0
 80032ba:	f884 3040 	strb.w	r3, [r4, #64]	; 0x40
 80032be:	4628      	mov	r0, r5
 80032c0:	b005      	add	sp, #20
 80032c2:	e8bd 8ff0 	ldmia.w	sp!, {r4, r5, r6, r7, r8, r9, sl, fp, pc}
 80032c6:	2200      	movs	r2, #0
 80032c8:	2120      	movs	r1, #32
 80032ca:	4620      	mov	r0, r4
 80032cc:	f7ff ff0f 	bl	80030ee <I2C_WaitOnFlagUntilTimeout>
 80032d0:	4602      	mov	r2, r0
 80032d2:	2800      	cmp	r0, #0
 80032d4:	d1f3      	bne.n	80032be <HAL_I2C_IsDeviceReady+0xc8>
 80032d6:	6823      	ldr	r3, [r4, #0]
 80032d8:	2110      	movs	r1, #16
 80032da:	f04f 0b20 	mov.w	fp, #32
 80032de:	61d9      	str	r1, [r3, #28]
 80032e0:	f8c3 b01c 	str.w	fp, [r3, #28]
 80032e4:	9903      	ldr	r1, [sp, #12]
 80032e6:	4549      	cmp	r1, r9
 80032e8:	d10f      	bne.n	800330a <HAL_I2C_IsDeviceReady+0x114>
 80032ea:	6859      	ldr	r1, [r3, #4]
 80032ec:	4620      	mov	r0, r4
 80032ee:	f441 4180 	orr.w	r1, r1, #16384	; 0x4000
 80032f2:	6059      	str	r1, [r3, #4]
 80032f4:	4633      	mov	r3, r6
 80032f6:	4659      	mov	r1, fp
 80032f8:	f8cd 8000 	str.w	r8, [sp]
 80032fc:	f7ff fef7 	bl	80030ee <I2C_WaitOnFlagUntilTimeout>
 8003300:	2800      	cmp	r0, #0
 8003302:	d1dc      	bne.n	80032be <HAL_I2C_IsDeviceReady+0xc8>
 8003304:	6823      	ldr	r3, [r4, #0]
 8003306:	f8c3 b01c 	str.w	fp, [r3, #28]
 800330a:	9b03      	ldr	r3, [sp, #12]
 800330c:	3301      	adds	r3, #1
 800330e:	9303      	str	r3, [sp, #12]
 8003310:	9b03      	ldr	r3, [sp, #12]
 8003312:	454b      	cmp	r3, r9
 8003314:	d394      	bcc.n	8003240 <HAL_I2C_IsDeviceReady+0x4a>
 8003316:	2320      	movs	r3, #32
 8003318:	f884 3041 	strb.w	r3, [r4, #65]	; 0x41
 800331c:	6c63      	ldr	r3, [r4, #68]	; 0x44
 800331e:	f043 0320 	orr.w	r3, r3, #32
 8003322:	6463      	str	r3, [r4, #68]	; 0x44
 8003324:	2300      	movs	r3, #0
 8003326:	f884 3040 	strb.w	r3, [r4, #64]	; 0x40
 800332a:	e7c8      	b.n	80032be <HAL_I2C_IsDeviceReady+0xc8>
 800332c:	2502      	movs	r5, #2
 800332e:	e7c6      	b.n	80032be <HAL_I2C_IsDeviceReady+0xc8>

08003330 <HAL_I2CEx_ConfigAnalogFilter>:
 8003330:	b510      	push	{r4, lr}
 8003332:	f890 3041 	ldrb.w	r3, [r0, #65]	; 0x41
 8003336:	2b20      	cmp	r3, #32
 8003338:	b2dc      	uxtb	r4, r3
 800333a:	d11d      	bne.n	8003378 <HAL_I2CEx_ConfigAnalogFilter+0x48>
 800333c:	f890 3040 	ldrb.w	r3, [r0, #64]	; 0x40
 8003340:	2b01      	cmp	r3, #1
 8003342:	d019      	beq.n	8003378 <HAL_I2CEx_ConfigAnalogFilter+0x48>
 8003344:	2324      	movs	r3, #36	; 0x24
 8003346:	f880 3041 	strb.w	r3, [r0, #65]	; 0x41
 800334a:	6803      	ldr	r3, [r0, #0]
 800334c:	681a      	ldr	r2, [r3, #0]
 800334e:	f022 0201 	bic.w	r2, r2, #1
 8003352:	601a      	str	r2, [r3, #0]
 8003354:	681a      	ldr	r2, [r3, #0]
 8003356:	f422 5280 	bic.w	r2, r2, #4096	; 0x1000
 800335a:	601a      	str	r2, [r3, #0]
 800335c:	681a      	ldr	r2, [r3, #0]
 800335e:	4311      	orrs	r1, r2
 8003360:	6019      	str	r1, [r3, #0]
 8003362:	681a      	ldr	r2, [r3, #0]
 8003364:	f042 0201 	orr.w	r2, r2, #1
 8003368:	601a      	str	r2, [r3, #0]
 800336a:	2300      	movs	r3, #0
 800336c:	f880 4041 	strb.w	r4, [r0, #65]	; 0x41
 8003370:	f880 3040 	strb.w	r3, [r0, #64]	; 0x40
 8003374:	4618      	mov	r0, r3
 8003376:	bd10      	pop	{r4, pc}
 8003378:	2002      	movs	r0, #2
 800337a:	e7fc      	b.n	8003376 <HAL_I2CEx_ConfigAnalogFilter+0x46>

0800337c <HAL_I2CEx_ConfigDigitalFilter>:
 800337c:	b510      	push	{r4, lr}
 800337e:	f890 3041 	ldrb.w	r3, [r0, #65]	; 0x41
 8003382:	2b20      	cmp	r3, #32
 8003384:	b2dc      	uxtb	r4, r3
 8003386:	d11c      	bne.n	80033c2 <HAL_I2CEx_ConfigDigitalFilter+0x46>
 8003388:	f890 3040 	ldrb.w	r3, [r0, #64]	; 0x40
 800338c:	2b01      	cmp	r3, #1
 800338e:	d018      	beq.n	80033c2 <HAL_I2CEx_ConfigDigitalFilter+0x46>
 8003390:	2324      	movs	r3, #36	; 0x24
 8003392:	f880 3041 	strb.w	r3, [r0, #65]	; 0x41
 8003396:	6803      	ldr	r3, [r0, #0]
 8003398:	681a      	ldr	r2, [r3, #0]
 800339a:	f022 0201 	bic.w	r2, r2, #1
 800339e:	601a      	str	r2, [r3, #0]
 80033a0:	681a      	ldr	r2, [r3, #0]
 80033a2:	f422 6270 	bic.w	r2, r2, #3840	; 0xf00
 80033a6:	ea42 2101 	orr.w	r1, r2, r1, lsl #8
 80033aa:	6019      	str	r1, [r3, #0]
 80033ac:	681a      	ldr	r2, [r3, #0]
 80033ae:	f042 0201 	orr.w	r2, r2, #1
 80033b2:	601a      	str	r2, [r3, #0]
 80033b4:	2300      	movs	r3, #0
 80033b6:	f880 4041 	strb.w	r4, [r0, #65]	; 0x41
 80033ba:	f880 3040 	strb.w	r3, [r0, #64]	; 0x40
 80033be:	4618      	mov	r0, r3
 80033c0:	bd10      	pop	{r4, pc}
 80033c2:	2002      	movs	r0, #2
 80033c4:	e7fc      	b.n	80033c0 <HAL_I2CEx_ConfigDigitalFilter+0x44>
	...

080033c8 <LTDC_SetConfig>:
 80033c8:	01d2      	lsls	r2, r2, #7
 80033ca:	6800      	ldr	r0, [r0, #0]
 80033cc:	f8d1 c000 	ldr.w	ip, [r1]
 80033d0:	3284      	adds	r2, #132	; 0x84
 80033d2:	1883      	adds	r3, r0, r2
 80033d4:	e92d 43f0 	stmdb	sp!, {r4, r5, r6, r7, r8, r9, lr}
 80033d8:	68c6      	ldr	r6, [r0, #12]
 80033da:	f10c 0701 	add.w	r7, ip, #1
 80033de:	685d      	ldr	r5, [r3, #4]
 80033e0:	f04f 0e00 	mov.w	lr, #0
 80033e4:	684c      	ldr	r4, [r1, #4]
 80033e6:	f3c6 460b 	ubfx	r6, r6, #16, #12
 80033ea:	f405 4570 	and.w	r5, r5, #61440	; 0xf000
 80033ee:	f8d1 9018 	ldr.w	r9, [r1, #24]
 80033f2:	4426      	add	r6, r4
 80033f4:	605d      	str	r5, [r3, #4]
 80033f6:	68c5      	ldr	r5, [r0, #12]
 80033f8:	f3c5 450b 	ubfx	r5, r5, #16, #12
 80033fc:	443d      	add	r5, r7
 80033fe:	ea45 4506 	orr.w	r5, r5, r6, lsl #16
 8003402:	605d      	str	r5, [r3, #4]
 8003404:	68c6      	ldr	r6, [r0, #12]
 8003406:	68cd      	ldr	r5, [r1, #12]
 8003408:	f3c6 060a 	ubfx	r6, r6, #0, #11
 800340c:	442e      	add	r6, r5
 800340e:	689d      	ldr	r5, [r3, #8]
 8003410:	f405 4570 	and.w	r5, r5, #61440	; 0xf000
 8003414:	609d      	str	r5, [r3, #8]
 8003416:	688d      	ldr	r5, [r1, #8]
 8003418:	68c7      	ldr	r7, [r0, #12]
 800341a:	3501      	adds	r5, #1
 800341c:	f3c7 070a 	ubfx	r7, r7, #0, #11
 8003420:	443d      	add	r5, r7
 8003422:	ea45 4506 	orr.w	r5, r5, r6, lsl #16
 8003426:	690e      	ldr	r6, [r1, #16]
 8003428:	609d      	str	r5, [r3, #8]
 800342a:	691d      	ldr	r5, [r3, #16]
 800342c:	f025 0507 	bic.w	r5, r5, #7
 8003430:	611d      	str	r5, [r3, #16]
 8003432:	611e      	str	r6, [r3, #16]
 8003434:	699d      	ldr	r5, [r3, #24]
 8003436:	f891 7032 	ldrb.w	r7, [r1, #50]	; 0x32
 800343a:	f891 8031 	ldrb.w	r8, [r1, #49]	; 0x31
 800343e:	f8c3 e018 	str.w	lr, [r3, #24]
 8003442:	f891 5030 	ldrb.w	r5, [r1, #48]	; 0x30
 8003446:	ea45 6509 	orr.w	r5, r5, r9, lsl #24
 800344a:	ea45 2508 	orr.w	r5, r5, r8, lsl #8
 800344e:	ea45 4507 	orr.w	r5, r5, r7, lsl #16
 8003452:	619d      	str	r5, [r3, #24]
 8003454:	695d      	ldr	r5, [r3, #20]
 8003456:	f025 05ff 	bic.w	r5, r5, #255	; 0xff
 800345a:	615d      	str	r5, [r3, #20]
 800345c:	694d      	ldr	r5, [r1, #20]
 800345e:	615d      	str	r5, [r3, #20]
 8003460:	69dd      	ldr	r5, [r3, #28]
 8003462:	f425 65e0 	bic.w	r5, r5, #1792	; 0x700
 8003466:	f025 0507 	bic.w	r5, r5, #7
 800346a:	61dd      	str	r5, [r3, #28]
 800346c:	e9d1 5707 	ldrd	r5, r7, [r1, #28]
 8003470:	433d      	orrs	r5, r7
 8003472:	61dd      	str	r5, [r3, #28]
 8003474:	6a9d      	ldr	r5, [r3, #40]	; 0x28
 8003476:	6a4d      	ldr	r5, [r1, #36]	; 0x24
 8003478:	f8c3 e028 	str.w	lr, [r3, #40]	; 0x28
 800347c:	629d      	str	r5, [r3, #40]	; 0x28
 800347e:	b1fe      	cbz	r6, 80034c0 <LTDC_SetConfig+0xf8>
 8003480:	3e01      	subs	r6, #1
 8003482:	2e06      	cmp	r6, #6
 8003484:	d81e      	bhi.n	80034c4 <LTDC_SetConfig+0xfc>
 8003486:	4d10      	ldr	r5, [pc, #64]	; (80034c8 <LTDC_SetConfig+0x100>)
 8003488:	5dad      	ldrb	r5, [r5, r6]
 800348a:	6ade      	ldr	r6, [r3, #44]	; 0x2c
 800348c:	eba4 040c 	sub.w	r4, r4, ip
 8003490:	f006 26e0 	and.w	r6, r6, #3758153728	; 0xe000e000
 8003494:	436c      	muls	r4, r5
 8003496:	62de      	str	r6, [r3, #44]	; 0x2c
 8003498:	3407      	adds	r4, #7
 800349a:	6a8e      	ldr	r6, [r1, #40]	; 0x28
 800349c:	6ac9      	ldr	r1, [r1, #44]	; 0x2c
 800349e:	436e      	muls	r6, r5
 80034a0:	ea44 4406 	orr.w	r4, r4, r6, lsl #16
 80034a4:	62dc      	str	r4, [r3, #44]	; 0x2c
 80034a6:	6b1c      	ldr	r4, [r3, #48]	; 0x30
 80034a8:	f424 64ff 	bic.w	r4, r4, #2040	; 0x7f8
 80034ac:	f024 0407 	bic.w	r4, r4, #7
 80034b0:	631c      	str	r4, [r3, #48]	; 0x30
 80034b2:	6319      	str	r1, [r3, #48]	; 0x30
 80034b4:	5883      	ldr	r3, [r0, r2]
 80034b6:	f043 0301 	orr.w	r3, r3, #1
 80034ba:	5083      	str	r3, [r0, r2]
 80034bc:	e8bd 83f0 	ldmia.w	sp!, {r4, r5, r6, r7, r8, r9, pc}
 80034c0:	2504      	movs	r5, #4
 80034c2:	e7e2      	b.n	800348a <LTDC_SetConfig+0xc2>
 80034c4:	2501      	movs	r5, #1
 80034c6:	e7e0      	b.n	800348a <LTDC_SetConfig+0xc2>
 80034c8:	080068f2 	.word	0x080068f2

080034cc <HAL_LTDC_Init>:
 80034cc:	b538      	push	{r3, r4, r5, lr}
 80034ce:	4604      	mov	r4, r0
 80034d0:	2800      	cmp	r0, #0
 80034d2:	d063      	beq.n	800359c <HAL_LTDC_Init+0xd0>
 80034d4:	f890 30a1 	ldrb.w	r3, [r0, #161]	; 0xa1
 80034d8:	f003 02ff 	and.w	r2, r3, #255	; 0xff
 80034dc:	b91b      	cbnz	r3, 80034e6 <HAL_LTDC_Init+0x1a>
 80034de:	f880 20a0 	strb.w	r2, [r0, #160]	; 0xa0
 80034e2:	f7fd fff5 	bl	80014d0 <HAL_LTDC_MspInit>
 80034e6:	2302      	movs	r3, #2
 80034e8:	f884 30a1 	strb.w	r3, [r4, #161]	; 0xa1
 80034ec:	6823      	ldr	r3, [r4, #0]
 80034ee:	699a      	ldr	r2, [r3, #24]
 80034f0:	f022 4270 	bic.w	r2, r2, #4026531840	; 0xf0000000
 80034f4:	619a      	str	r2, [r3, #24]
 80034f6:	6999      	ldr	r1, [r3, #24]
 80034f8:	e9d4 2001 	ldrd	r2, r0, [r4, #4]
 80034fc:	4302      	orrs	r2, r0
 80034fe:	68e0      	ldr	r0, [r4, #12]
 8003500:	4302      	orrs	r2, r0
 8003502:	6920      	ldr	r0, [r4, #16]
 8003504:	4302      	orrs	r2, r0
 8003506:	6960      	ldr	r0, [r4, #20]
 8003508:	430a      	orrs	r2, r1
 800350a:	4925      	ldr	r1, [pc, #148]	; (80035a0 <HAL_LTDC_Init+0xd4>)
 800350c:	619a      	str	r2, [r3, #24]
 800350e:	689a      	ldr	r2, [r3, #8]
 8003510:	400a      	ands	r2, r1
 8003512:	609a      	str	r2, [r3, #8]
 8003514:	689a      	ldr	r2, [r3, #8]
 8003516:	ea42 4200 	orr.w	r2, r2, r0, lsl #16
 800351a:	69a0      	ldr	r0, [r4, #24]
 800351c:	4302      	orrs	r2, r0
 800351e:	69e0      	ldr	r0, [r4, #28]
 8003520:	609a      	str	r2, [r3, #8]
 8003522:	68da      	ldr	r2, [r3, #12]
 8003524:	400a      	ands	r2, r1
 8003526:	60da      	str	r2, [r3, #12]
 8003528:	68da      	ldr	r2, [r3, #12]
 800352a:	ea42 4200 	orr.w	r2, r2, r0, lsl #16
 800352e:	6a20      	ldr	r0, [r4, #32]
 8003530:	4302      	orrs	r2, r0
 8003532:	6a60      	ldr	r0, [r4, #36]	; 0x24
 8003534:	60da      	str	r2, [r3, #12]
 8003536:	691a      	ldr	r2, [r3, #16]
 8003538:	400a      	ands	r2, r1
 800353a:	611a      	str	r2, [r3, #16]
 800353c:	691a      	ldr	r2, [r3, #16]
 800353e:	ea42 4200 	orr.w	r2, r2, r0, lsl #16
 8003542:	6aa0      	ldr	r0, [r4, #40]	; 0x28
 8003544:	4302      	orrs	r2, r0
 8003546:	611a      	str	r2, [r3, #16]
 8003548:	695a      	ldr	r2, [r3, #20]
 800354a:	400a      	ands	r2, r1
 800354c:	6ae1      	ldr	r1, [r4, #44]	; 0x2c
 800354e:	615a      	str	r2, [r3, #20]
 8003550:	695a      	ldr	r2, [r3, #20]
 8003552:	ea42 4201 	orr.w	r2, r2, r1, lsl #16
 8003556:	6b21      	ldr	r1, [r4, #48]	; 0x30
 8003558:	430a      	orrs	r2, r1
 800355a:	615a      	str	r2, [r3, #20]
 800355c:	6ada      	ldr	r2, [r3, #44]	; 0x2c
 800355e:	f894 0035 	ldrb.w	r0, [r4, #53]	; 0x35
 8003562:	f002 427f 	and.w	r2, r2, #4278190080	; 0xff000000
 8003566:	f894 1036 	ldrb.w	r1, [r4, #54]	; 0x36
 800356a:	62da      	str	r2, [r3, #44]	; 0x2c
 800356c:	6add      	ldr	r5, [r3, #44]	; 0x2c
 800356e:	f894 2034 	ldrb.w	r2, [r4, #52]	; 0x34
 8003572:	432a      	orrs	r2, r5
 8003574:	ea42 2200 	orr.w	r2, r2, r0, lsl #8
 8003578:	2000      	movs	r0, #0
 800357a:	ea42 4201 	orr.w	r2, r2, r1, lsl #16
 800357e:	62da      	str	r2, [r3, #44]	; 0x2c
 8003580:	6b5a      	ldr	r2, [r3, #52]	; 0x34
 8003582:	f042 0206 	orr.w	r2, r2, #6
 8003586:	635a      	str	r2, [r3, #52]	; 0x34
 8003588:	699a      	ldr	r2, [r3, #24]
 800358a:	f042 0201 	orr.w	r2, r2, #1
 800358e:	619a      	str	r2, [r3, #24]
 8003590:	2301      	movs	r3, #1
 8003592:	f8c4 00a4 	str.w	r0, [r4, #164]	; 0xa4
 8003596:	f884 30a1 	strb.w	r3, [r4, #161]	; 0xa1
 800359a:	bd38      	pop	{r3, r4, r5, pc}
 800359c:	2001      	movs	r0, #1
 800359e:	e7fc      	b.n	800359a <HAL_LTDC_Init+0xce>
 80035a0:	f000f800 	.word	0xf000f800

080035a4 <HAL_LTDC_ConfigLayer>:
 80035a4:	e92d 41f0 	stmdb	sp!, {r4, r5, r6, r7, r8, lr}
 80035a8:	f890 30a0 	ldrb.w	r3, [r0, #160]	; 0xa0
 80035ac:	4606      	mov	r6, r0
 80035ae:	460f      	mov	r7, r1
 80035b0:	4694      	mov	ip, r2
 80035b2:	2b01      	cmp	r3, #1
 80035b4:	f04f 0002 	mov.w	r0, #2
 80035b8:	d01f      	beq.n	80035fa <HAL_LTDC_ConfigLayer+0x56>
 80035ba:	2434      	movs	r4, #52	; 0x34
 80035bc:	f04f 0801 	mov.w	r8, #1
 80035c0:	460d      	mov	r5, r1
 80035c2:	f886 00a1 	strb.w	r0, [r6, #161]	; 0xa1
 80035c6:	fb04 6402 	mla	r4, r4, r2, r6
 80035ca:	f886 80a0 	strb.w	r8, [r6, #160]	; 0xa0
 80035ce:	3438      	adds	r4, #56	; 0x38
 80035d0:	cd0f      	ldmia	r5!, {r0, r1, r2, r3}
 80035d2:	c40f      	stmia	r4!, {r0, r1, r2, r3}
 80035d4:	cd0f      	ldmia	r5!, {r0, r1, r2, r3}
 80035d6:	c40f      	stmia	r4!, {r0, r1, r2, r3}
 80035d8:	cd0f      	ldmia	r5!, {r0, r1, r2, r3}
 80035da:	c40f      	stmia	r4!, {r0, r1, r2, r3}
 80035dc:	682b      	ldr	r3, [r5, #0]
 80035de:	4630      	mov	r0, r6
 80035e0:	4662      	mov	r2, ip
 80035e2:	4639      	mov	r1, r7
 80035e4:	6023      	str	r3, [r4, #0]
 80035e6:	f7ff feef 	bl	80033c8 <LTDC_SetConfig>
 80035ea:	6833      	ldr	r3, [r6, #0]
 80035ec:	2000      	movs	r0, #0
 80035ee:	f8c3 8024 	str.w	r8, [r3, #36]	; 0x24
 80035f2:	f886 80a1 	strb.w	r8, [r6, #161]	; 0xa1
 80035f6:	f886 00a0 	strb.w	r0, [r6, #160]	; 0xa0
 80035fa:	e8bd 81f0 	ldmia.w	sp!, {r4, r5, r6, r7, r8, pc}

080035fe <HAL_PCD_Init>:
 80035fe:	b5f0      	push	{r4, r5, r6, r7, lr}
 8003600:	4604      	mov	r4, r0
 8003602:	b08b      	sub	sp, #44	; 0x2c
 8003604:	b360      	cbz	r0, 8003660 <HAL_PCD_Init+0x62>
 8003606:	f890 34bd 	ldrb.w	r3, [r0, #1213]	; 0x4bd
 800360a:	6805      	ldr	r5, [r0, #0]
 800360c:	f003 02ff 	and.w	r2, r3, #255	; 0xff
 8003610:	b91b      	cbnz	r3, 800361a <HAL_PCD_Init+0x1c>
 8003612:	f880 24bc 	strb.w	r2, [r0, #1212]	; 0x4bc
 8003616:	f7fe f983 	bl	8001920 <HAL_PCD_MspInit>
 800361a:	2303      	movs	r3, #3
 800361c:	466e      	mov	r6, sp
 800361e:	1d27      	adds	r7, r4, #4
 8003620:	f884 34bd 	strb.w	r3, [r4, #1213]	; 0x4bd
 8003624:	6beb      	ldr	r3, [r5, #60]	; 0x3c
 8003626:	4625      	mov	r5, r4
 8003628:	f413 7380 	ands.w	r3, r3, #256	; 0x100
 800362c:	f855 0b10 	ldr.w	r0, [r5], #16
 8003630:	bf08      	it	eq
 8003632:	60e3      	streq	r3, [r4, #12]
 8003634:	f002 ff86 	bl	8006544 <USB_DisableGlobalInt>
 8003638:	cd0f      	ldmia	r5!, {r0, r1, r2, r3}
 800363a:	c60f      	stmia	r6!, {r0, r1, r2, r3}
 800363c:	cd0f      	ldmia	r5!, {r0, r1, r2, r3}
 800363e:	c60f      	stmia	r6!, {r0, r1, r2, r3}
 8003640:	e895 0003 	ldmia.w	r5, {r0, r1}
 8003644:	4625      	mov	r5, r4
 8003646:	e886 0003 	stmia.w	r6, {r0, r1}
 800364a:	e897 000e 	ldmia.w	r7, {r1, r2, r3}
 800364e:	f855 0b10 	ldr.w	r0, [r5], #16
 8003652:	f002 ff2d 	bl	80064b0 <USB_CoreInit>
 8003656:	4606      	mov	r6, r0
 8003658:	b120      	cbz	r0, 8003664 <HAL_PCD_Init+0x66>
 800365a:	2302      	movs	r3, #2
 800365c:	f884 34bd 	strb.w	r3, [r4, #1213]	; 0x4bd
 8003660:	2501      	movs	r5, #1
 8003662:	e052      	b.n	800370a <HAL_PCD_Init+0x10c>
 8003664:	4601      	mov	r1, r0
 8003666:	6820      	ldr	r0, [r4, #0]
 8003668:	f002 ff72 	bl	8006550 <USB_SetCurrentMode>
 800366c:	4630      	mov	r0, r6
 800366e:	f8d4 c004 	ldr.w	ip, [r4, #4]
 8003672:	2624      	movs	r6, #36	; 0x24
 8003674:	f04f 0e01 	mov.w	lr, #1
 8003678:	4601      	mov	r1, r0
 800367a:	b2c2      	uxtb	r2, r0
 800367c:	3001      	adds	r0, #1
 800367e:	4594      	cmp	ip, r2
 8003680:	d81b      	bhi.n	80036ba <HAL_PCD_Init+0xbc>
 8003682:	2300      	movs	r3, #0
 8003684:	2624      	movs	r6, #36	; 0x24
 8003686:	4619      	mov	r1, r3
 8003688:	b2d8      	uxtb	r0, r3
 800368a:	3301      	adds	r3, #1
 800368c:	4584      	cmp	ip, r0
 800368e:	d822      	bhi.n	80036d6 <HAL_PCD_Init+0xd8>
 8003690:	466e      	mov	r6, sp
 8003692:	cd0f      	ldmia	r5!, {r0, r1, r2, r3}
 8003694:	c60f      	stmia	r6!, {r0, r1, r2, r3}
 8003696:	cd0f      	ldmia	r5!, {r0, r1, r2, r3}
 8003698:	c60f      	stmia	r6!, {r0, r1, r2, r3}
 800369a:	e895 0003 	ldmia.w	r5, {r0, r1}
 800369e:	e886 0003 	stmia.w	r6, {r0, r1}
 80036a2:	e897 000e 	ldmia.w	r7, {r1, r2, r3}
 80036a6:	6820      	ldr	r0, [r4, #0]
 80036a8:	f002 ffd2 	bl	8006650 <USB_DevInit>
 80036ac:	2301      	movs	r3, #1
 80036ae:	4605      	mov	r5, r0
 80036b0:	b1f0      	cbz	r0, 80036f0 <HAL_PCD_Init+0xf2>
 80036b2:	2202      	movs	r2, #2
 80036b4:	f884 24bd 	strb.w	r2, [r4, #1213]	; 0x4bd
 80036b8:	e7d2      	b.n	8003660 <HAL_PCD_Init+0x62>
 80036ba:	fb06 4302 	mla	r3, r6, r2, r4
 80036be:	f883 e03d 	strb.w	lr, [r3, #61]	; 0x3d
 80036c2:	f883 203c 	strb.w	r2, [r3, #60]	; 0x3c
 80036c6:	f8a3 2056 	strh.w	r2, [r3, #86]	; 0x56
 80036ca:	f883 1040 	strb.w	r1, [r3, #64]	; 0x40
 80036ce:	64d9      	str	r1, [r3, #76]	; 0x4c
 80036d0:	e9c3 1111 	strd	r1, r1, [r3, #68]	; 0x44
 80036d4:	e7d1      	b.n	800367a <HAL_PCD_Init+0x7c>
 80036d6:	fb06 4200 	mla	r2, r6, r0, r4
 80036da:	f882 127d 	strb.w	r1, [r2, #637]	; 0x27d
 80036de:	f882 027c 	strb.w	r0, [r2, #636]	; 0x27c
 80036e2:	f882 1280 	strb.w	r1, [r2, #640]	; 0x280
 80036e6:	f8c2 128c 	str.w	r1, [r2, #652]	; 0x28c
 80036ea:	e9c2 11a1 	strd	r1, r1, [r2, #644]	; 0x284
 80036ee:	e7cb      	b.n	8003688 <HAL_PCD_Init+0x8a>
 80036f0:	f884 0038 	strb.w	r0, [r4, #56]	; 0x38
 80036f4:	f884 34bd 	strb.w	r3, [r4, #1213]	; 0x4bd
 80036f8:	6a63      	ldr	r3, [r4, #36]	; 0x24
 80036fa:	2b01      	cmp	r3, #1
 80036fc:	d102      	bne.n	8003704 <HAL_PCD_Init+0x106>
 80036fe:	4620      	mov	r0, r4
 8003700:	f000 f806 	bl	8003710 <HAL_PCDEx_ActivateLPM>
 8003704:	6820      	ldr	r0, [r4, #0]
 8003706:	f003 f859 	bl	80067bc <USB_DevDisconnect>
 800370a:	4628      	mov	r0, r5
 800370c:	b00b      	add	sp, #44	; 0x2c
 800370e:	bdf0      	pop	{r4, r5, r6, r7, pc}

08003710 <HAL_PCDEx_ActivateLPM>:
 8003710:	6802      	ldr	r2, [r0, #0]
 8003712:	2100      	movs	r1, #0
 8003714:	2301      	movs	r3, #1
 8003716:	f880 14f4 	strb.w	r1, [r0, #1268]	; 0x4f4
 800371a:	f8c0 3500 	str.w	r3, [r0, #1280]	; 0x500
 800371e:	4608      	mov	r0, r1
 8003720:	6993      	ldr	r3, [r2, #24]
 8003722:	f043 6300 	orr.w	r3, r3, #134217728	; 0x8000000
 8003726:	6193      	str	r3, [r2, #24]
 8003728:	6d53      	ldr	r3, [r2, #84]	; 0x54
 800372a:	f043 5380 	orr.w	r3, r3, #268435456	; 0x10000000
 800372e:	f043 0303 	orr.w	r3, r3, #3
 8003732:	6553      	str	r3, [r2, #84]	; 0x54
 8003734:	4770      	bx	lr
	...

08003738 <HAL_PWREx_ConfigSupply>:
 8003738:	b538      	push	{r3, r4, r5, lr}
 800373a:	4c10      	ldr	r4, [pc, #64]	; (800377c <HAL_PWREx_ConfigSupply+0x44>)
 800373c:	68e3      	ldr	r3, [r4, #12]
 800373e:	f013 0f04 	tst.w	r3, #4
 8003742:	68e3      	ldr	r3, [r4, #12]
 8003744:	d105      	bne.n	8003752 <HAL_PWREx_ConfigSupply+0x1a>
 8003746:	f003 0307 	and.w	r3, r3, #7
 800374a:	1a18      	subs	r0, r3, r0
 800374c:	bf18      	it	ne
 800374e:	2001      	movne	r0, #1
 8003750:	bd38      	pop	{r3, r4, r5, pc}
 8003752:	f023 0307 	bic.w	r3, r3, #7
 8003756:	4318      	orrs	r0, r3
 8003758:	60e0      	str	r0, [r4, #12]
 800375a:	f7fe fb19 	bl	8001d90 <HAL_GetTick>
 800375e:	4605      	mov	r5, r0
 8003760:	6863      	ldr	r3, [r4, #4]
 8003762:	049b      	lsls	r3, r3, #18
 8003764:	d501      	bpl.n	800376a <HAL_PWREx_ConfigSupply+0x32>
 8003766:	2000      	movs	r0, #0
 8003768:	e7f2      	b.n	8003750 <HAL_PWREx_ConfigSupply+0x18>
 800376a:	f7fe fb11 	bl	8001d90 <HAL_GetTick>
 800376e:	1b40      	subs	r0, r0, r5
 8003770:	f5b0 7f7a 	cmp.w	r0, #1000	; 0x3e8
 8003774:	d9f4      	bls.n	8003760 <HAL_PWREx_ConfigSupply+0x28>
 8003776:	2001      	movs	r0, #1
 8003778:	e7ea      	b.n	8003750 <HAL_PWREx_ConfigSupply+0x18>
 800377a:	bf00      	nop
 800377c:	58024800 	.word	0x58024800

08003780 <HAL_PWREx_EnableUSBVoltageDetector>:
 8003780:	4a02      	ldr	r2, [pc, #8]	; (800378c <HAL_PWREx_EnableUSBVoltageDetector+0xc>)
 8003782:	68d3      	ldr	r3, [r2, #12]
 8003784:	f043 7380 	orr.w	r3, r3, #16777216	; 0x1000000
 8003788:	60d3      	str	r3, [r2, #12]
 800378a:	4770      	bx	lr
 800378c:	58024800 	.word	0x58024800

08003790 <QSPI_WaitFlagStateUntilTimeout>:
 8003790:	e92d 41f0 	stmdb	sp!, {r4, r5, r6, r7, r8, lr}
 8003794:	f8dd 8018 	ldr.w	r8, [sp, #24]
 8003798:	4604      	mov	r4, r0
 800379a:	460e      	mov	r6, r1
 800379c:	4615      	mov	r5, r2
 800379e:	461f      	mov	r7, r3
 80037a0:	6822      	ldr	r2, [r4, #0]
 80037a2:	6893      	ldr	r3, [r2, #8]
 80037a4:	4233      	tst	r3, r6
 80037a6:	bf14      	ite	ne
 80037a8:	2301      	movne	r3, #1
 80037aa:	2300      	moveq	r3, #0
 80037ac:	42ab      	cmp	r3, r5
 80037ae:	d101      	bne.n	80037b4 <QSPI_WaitFlagStateUntilTimeout+0x24>
 80037b0:	2000      	movs	r0, #0
 80037b2:	e012      	b.n	80037da <QSPI_WaitFlagStateUntilTimeout+0x4a>
 80037b4:	f1b8 3fff 	cmp.w	r8, #4294967295
 80037b8:	d0f3      	beq.n	80037a2 <QSPI_WaitFlagStateUntilTimeout+0x12>
 80037ba:	f7fe fae9 	bl	8001d90 <HAL_GetTick>
 80037be:	1bc0      	subs	r0, r0, r7
 80037c0:	4540      	cmp	r0, r8
 80037c2:	d802      	bhi.n	80037ca <QSPI_WaitFlagStateUntilTimeout+0x3a>
 80037c4:	f1b8 0f00 	cmp.w	r8, #0
 80037c8:	d1ea      	bne.n	80037a0 <QSPI_WaitFlagStateUntilTimeout+0x10>
 80037ca:	2304      	movs	r3, #4
 80037cc:	2001      	movs	r0, #1
 80037ce:	f884 3041 	strb.w	r3, [r4, #65]	; 0x41
 80037d2:	6c63      	ldr	r3, [r4, #68]	; 0x44
 80037d4:	f043 0301 	orr.w	r3, r3, #1
 80037d8:	6463      	str	r3, [r4, #68]	; 0x44
 80037da:	e8bd 81f0 	ldmia.w	sp!, {r4, r5, r6, r7, r8, pc}
	...

080037e0 <HAL_QSPI_Init>:
 80037e0:	b530      	push	{r4, r5, lr}
 80037e2:	4604      	mov	r4, r0
 80037e4:	b085      	sub	sp, #20
 80037e6:	f7fe fad3 	bl	8001d90 <HAL_GetTick>
 80037ea:	4603      	mov	r3, r0
 80037ec:	2c00      	cmp	r4, #0
 80037ee:	d040      	beq.n	8003872 <HAL_QSPI_Init+0x92>
 80037f0:	f894 2041 	ldrb.w	r2, [r4, #65]	; 0x41
 80037f4:	b93a      	cbnz	r2, 8003806 <HAL_QSPI_Init+0x26>
 80037f6:	9003      	str	r0, [sp, #12]
 80037f8:	4620      	mov	r0, r4
 80037fa:	f7fd ff0f 	bl	800161c <HAL_QSPI_MspInit>
 80037fe:	f241 3288 	movw	r2, #5000	; 0x1388
 8003802:	9b03      	ldr	r3, [sp, #12]
 8003804:	64a2      	str	r2, [r4, #72]	; 0x48
 8003806:	6820      	ldr	r0, [r4, #0]
 8003808:	68a1      	ldr	r1, [r4, #8]
 800380a:	6802      	ldr	r2, [r0, #0]
 800380c:	3901      	subs	r1, #1
 800380e:	f422 52f8 	bic.w	r2, r2, #7936	; 0x1f00
 8003812:	ea42 2201 	orr.w	r2, r2, r1, lsl #8
 8003816:	2120      	movs	r1, #32
 8003818:	6002      	str	r2, [r0, #0]
 800381a:	4620      	mov	r0, r4
 800381c:	6ca2      	ldr	r2, [r4, #72]	; 0x48
 800381e:	9200      	str	r2, [sp, #0]
 8003820:	2200      	movs	r2, #0
 8003822:	f7ff ffb5 	bl	8003790 <QSPI_WaitFlagStateUntilTimeout>
 8003826:	bb10      	cbnz	r0, 800386e <HAL_QSPI_Init+0x8e>
 8003828:	6822      	ldr	r2, [r4, #0]
 800382a:	69e5      	ldr	r5, [r4, #28]
 800382c:	68e3      	ldr	r3, [r4, #12]
 800382e:	6811      	ldr	r1, [r2, #0]
 8003830:	432b      	orrs	r3, r5
 8003832:	6a25      	ldr	r5, [r4, #32]
 8003834:	f021 417f 	bic.w	r1, r1, #4278190080	; 0xff000000
 8003838:	432b      	orrs	r3, r5
 800383a:	6865      	ldr	r5, [r4, #4]
 800383c:	f021 01d0 	bic.w	r1, r1, #208	; 0xd0
 8003840:	ea43 6305 	orr.w	r3, r3, r5, lsl #24
 8003844:	430b      	orrs	r3, r1
 8003846:	6013      	str	r3, [r2, #0]
 8003848:	6855      	ldr	r5, [r2, #4]
 800384a:	e9d4 3105 	ldrd	r3, r1, [r4, #20]
 800384e:	430b      	orrs	r3, r1
 8003850:	6921      	ldr	r1, [r4, #16]
 8003852:	ea43 4301 	orr.w	r3, r3, r1, lsl #16
 8003856:	4908      	ldr	r1, [pc, #32]	; (8003878 <HAL_QSPI_Init+0x98>)
 8003858:	4029      	ands	r1, r5
 800385a:	430b      	orrs	r3, r1
 800385c:	6053      	str	r3, [r2, #4]
 800385e:	6813      	ldr	r3, [r2, #0]
 8003860:	f043 0301 	orr.w	r3, r3, #1
 8003864:	6013      	str	r3, [r2, #0]
 8003866:	2301      	movs	r3, #1
 8003868:	6460      	str	r0, [r4, #68]	; 0x44
 800386a:	f884 3041 	strb.w	r3, [r4, #65]	; 0x41
 800386e:	b005      	add	sp, #20
 8003870:	bd30      	pop	{r4, r5, pc}
 8003872:	2001      	movs	r0, #1
 8003874:	e7fb      	b.n	800386e <HAL_QSPI_Init+0x8e>
 8003876:	bf00      	nop
 8003878:	ffe0f8fe 	.word	0xffe0f8fe

0800387c <HAL_RCC_OscConfig>:
 800387c:	b5f8      	push	{r3, r4, r5, r6, r7, lr}
 800387e:	4604      	mov	r4, r0
 8003880:	b908      	cbnz	r0, 8003886 <HAL_RCC_OscConfig+0xa>
 8003882:	2001      	movs	r0, #1
 8003884:	e08c      	b.n	80039a0 <HAL_RCC_OscConfig+0x124>
 8003886:	6803      	ldr	r3, [r0, #0]
 8003888:	07d8      	lsls	r0, r3, #31
 800388a:	d45e      	bmi.n	800394a <HAL_RCC_OscConfig+0xce>
 800388c:	6823      	ldr	r3, [r4, #0]
 800388e:	0799      	lsls	r1, r3, #30
 8003890:	f100 80ac 	bmi.w	80039ec <HAL_RCC_OscConfig+0x170>
 8003894:	6823      	ldr	r3, [r4, #0]
 8003896:	06da      	lsls	r2, r3, #27
 8003898:	d527      	bpl.n	80038ea <HAL_RCC_OscConfig+0x6e>
 800389a:	4a9c      	ldr	r2, [pc, #624]	; (8003b0c <HAL_RCC_OscConfig+0x290>)
 800389c:	6913      	ldr	r3, [r2, #16]
 800389e:	6a91      	ldr	r1, [r2, #40]	; 0x28
 80038a0:	f003 0338 	and.w	r3, r3, #56	; 0x38
 80038a4:	2b08      	cmp	r3, #8
 80038a6:	d007      	beq.n	80038b8 <HAL_RCC_OscConfig+0x3c>
 80038a8:	2b18      	cmp	r3, #24
 80038aa:	f040 8103 	bne.w	8003ab4 <HAL_RCC_OscConfig+0x238>
 80038ae:	f001 0303 	and.w	r3, r1, #3
 80038b2:	2b01      	cmp	r3, #1
 80038b4:	f040 80fe 	bne.w	8003ab4 <HAL_RCC_OscConfig+0x238>
 80038b8:	6813      	ldr	r3, [r2, #0]
 80038ba:	05db      	lsls	r3, r3, #23
 80038bc:	d502      	bpl.n	80038c4 <HAL_RCC_OscConfig+0x48>
 80038be:	69e3      	ldr	r3, [r4, #28]
 80038c0:	2b80      	cmp	r3, #128	; 0x80
 80038c2:	d1de      	bne.n	8003882 <HAL_RCC_OscConfig+0x6>
 80038c4:	f7fe fa7c 	bl	8001dc0 <HAL_GetREVID>
 80038c8:	f241 0303 	movw	r3, #4099	; 0x1003
 80038cc:	6a21      	ldr	r1, [r4, #32]
 80038ce:	4298      	cmp	r0, r3
 80038d0:	4b8e      	ldr	r3, [pc, #568]	; (8003b0c <HAL_RCC_OscConfig+0x290>)
 80038d2:	f200 80e8 	bhi.w	8003aa6 <HAL_RCC_OscConfig+0x22a>
 80038d6:	685a      	ldr	r2, [r3, #4]
 80038d8:	2920      	cmp	r1, #32
 80038da:	f022 42f8 	bic.w	r2, r2, #2080374784	; 0x7c000000
 80038de:	bf0c      	ite	eq
 80038e0:	f042 4280 	orreq.w	r2, r2, #1073741824	; 0x40000000
 80038e4:	ea42 6281 	orrne.w	r2, r2, r1, lsl #26
 80038e8:	605a      	str	r2, [r3, #4]
 80038ea:	6823      	ldr	r3, [r4, #0]
 80038ec:	0719      	lsls	r1, r3, #28
 80038ee:	f100 8122 	bmi.w	8003b36 <HAL_RCC_OscConfig+0x2ba>
 80038f2:	6823      	ldr	r3, [r4, #0]
 80038f4:	069a      	lsls	r2, r3, #26
 80038f6:	f100 8143 	bmi.w	8003b80 <HAL_RCC_OscConfig+0x304>
 80038fa:	6823      	ldr	r3, [r4, #0]
 80038fc:	075d      	lsls	r5, r3, #29
 80038fe:	d51e      	bpl.n	800393e <HAL_RCC_OscConfig+0xc2>
 8003900:	4d83      	ldr	r5, [pc, #524]	; (8003b10 <HAL_RCC_OscConfig+0x294>)
 8003902:	682b      	ldr	r3, [r5, #0]
 8003904:	f443 7380 	orr.w	r3, r3, #256	; 0x100
 8003908:	602b      	str	r3, [r5, #0]
 800390a:	f7fe fa41 	bl	8001d90 <HAL_GetTick>
 800390e:	4606      	mov	r6, r0
 8003910:	682b      	ldr	r3, [r5, #0]
 8003912:	05da      	lsls	r2, r3, #23
 8003914:	f140 8159 	bpl.w	8003bca <HAL_RCC_OscConfig+0x34e>
 8003918:	68a3      	ldr	r3, [r4, #8]
 800391a:	4d7c      	ldr	r5, [pc, #496]	; (8003b0c <HAL_RCC_OscConfig+0x290>)
 800391c:	2b01      	cmp	r3, #1
 800391e:	f040 815b 	bne.w	8003bd8 <HAL_RCC_OscConfig+0x35c>
 8003922:	6f2b      	ldr	r3, [r5, #112]	; 0x70
 8003924:	f043 0301 	orr.w	r3, r3, #1
 8003928:	672b      	str	r3, [r5, #112]	; 0x70
 800392a:	f241 3788 	movw	r7, #5000	; 0x1388
 800392e:	f7fe fa2f 	bl	8001d90 <HAL_GetTick>
 8003932:	4e76      	ldr	r6, [pc, #472]	; (8003b0c <HAL_RCC_OscConfig+0x290>)
 8003934:	4605      	mov	r5, r0
 8003936:	6f33      	ldr	r3, [r6, #112]	; 0x70
 8003938:	079b      	lsls	r3, r3, #30
 800393a:	f140 8173 	bpl.w	8003c24 <HAL_RCC_OscConfig+0x3a8>
 800393e:	6a60      	ldr	r0, [r4, #36]	; 0x24
 8003940:	2800      	cmp	r0, #0
 8003942:	f040 8176 	bne.w	8003c32 <HAL_RCC_OscConfig+0x3b6>
 8003946:	2000      	movs	r0, #0
 8003948:	e02a      	b.n	80039a0 <HAL_RCC_OscConfig+0x124>
 800394a:	4a70      	ldr	r2, [pc, #448]	; (8003b0c <HAL_RCC_OscConfig+0x290>)
 800394c:	6913      	ldr	r3, [r2, #16]
 800394e:	6a91      	ldr	r1, [r2, #40]	; 0x28
 8003950:	f003 0338 	and.w	r3, r3, #56	; 0x38
 8003954:	2b10      	cmp	r3, #16
 8003956:	d005      	beq.n	8003964 <HAL_RCC_OscConfig+0xe8>
 8003958:	2b18      	cmp	r3, #24
 800395a:	d10a      	bne.n	8003972 <HAL_RCC_OscConfig+0xf6>
 800395c:	f001 0303 	and.w	r3, r1, #3
 8003960:	2b02      	cmp	r3, #2
 8003962:	d106      	bne.n	8003972 <HAL_RCC_OscConfig+0xf6>
 8003964:	6813      	ldr	r3, [r2, #0]
 8003966:	039a      	lsls	r2, r3, #14
 8003968:	d590      	bpl.n	800388c <HAL_RCC_OscConfig+0x10>
 800396a:	6863      	ldr	r3, [r4, #4]
 800396c:	2b00      	cmp	r3, #0
 800396e:	d18d      	bne.n	800388c <HAL_RCC_OscConfig+0x10>
 8003970:	e787      	b.n	8003882 <HAL_RCC_OscConfig+0x6>
 8003972:	6863      	ldr	r3, [r4, #4]
 8003974:	4d65      	ldr	r5, [pc, #404]	; (8003b0c <HAL_RCC_OscConfig+0x290>)
 8003976:	f5b3 3f80 	cmp.w	r3, #65536	; 0x10000
 800397a:	d112      	bne.n	80039a2 <HAL_RCC_OscConfig+0x126>
 800397c:	682b      	ldr	r3, [r5, #0]
 800397e:	f443 3380 	orr.w	r3, r3, #65536	; 0x10000
 8003982:	602b      	str	r3, [r5, #0]
 8003984:	f7fe fa04 	bl	8001d90 <HAL_GetTick>
 8003988:	4e60      	ldr	r6, [pc, #384]	; (8003b0c <HAL_RCC_OscConfig+0x290>)
 800398a:	4605      	mov	r5, r0
 800398c:	6833      	ldr	r3, [r6, #0]
 800398e:	039b      	lsls	r3, r3, #14
 8003990:	f53f af7c 	bmi.w	800388c <HAL_RCC_OscConfig+0x10>
 8003994:	f7fe f9fc 	bl	8001d90 <HAL_GetTick>
 8003998:	1b40      	subs	r0, r0, r5
 800399a:	2864      	cmp	r0, #100	; 0x64
 800399c:	d9f6      	bls.n	800398c <HAL_RCC_OscConfig+0x110>
 800399e:	2003      	movs	r0, #3
 80039a0:	bdf8      	pop	{r3, r4, r5, r6, r7, pc}
 80039a2:	b9a3      	cbnz	r3, 80039ce <HAL_RCC_OscConfig+0x152>
 80039a4:	682b      	ldr	r3, [r5, #0]
 80039a6:	f423 3380 	bic.w	r3, r3, #65536	; 0x10000
 80039aa:	602b      	str	r3, [r5, #0]
 80039ac:	682b      	ldr	r3, [r5, #0]
 80039ae:	f423 2380 	bic.w	r3, r3, #262144	; 0x40000
 80039b2:	602b      	str	r3, [r5, #0]
 80039b4:	f7fe f9ec 	bl	8001d90 <HAL_GetTick>
 80039b8:	4606      	mov	r6, r0
 80039ba:	682b      	ldr	r3, [r5, #0]
 80039bc:	039f      	lsls	r7, r3, #14
 80039be:	f57f af65 	bpl.w	800388c <HAL_RCC_OscConfig+0x10>
 80039c2:	f7fe f9e5 	bl	8001d90 <HAL_GetTick>
 80039c6:	1b80      	subs	r0, r0, r6
 80039c8:	2864      	cmp	r0, #100	; 0x64
 80039ca:	d9f6      	bls.n	80039ba <HAL_RCC_OscConfig+0x13e>
 80039cc:	e7e7      	b.n	800399e <HAL_RCC_OscConfig+0x122>
 80039ce:	f5b3 2fa0 	cmp.w	r3, #327680	; 0x50000
 80039d2:	682b      	ldr	r3, [r5, #0]
 80039d4:	d103      	bne.n	80039de <HAL_RCC_OscConfig+0x162>
 80039d6:	f443 2380 	orr.w	r3, r3, #262144	; 0x40000
 80039da:	602b      	str	r3, [r5, #0]
 80039dc:	e7ce      	b.n	800397c <HAL_RCC_OscConfig+0x100>
 80039de:	f423 3380 	bic.w	r3, r3, #65536	; 0x10000
 80039e2:	602b      	str	r3, [r5, #0]
 80039e4:	682b      	ldr	r3, [r5, #0]
 80039e6:	f423 2380 	bic.w	r3, r3, #262144	; 0x40000
 80039ea:	e7ca      	b.n	8003982 <HAL_RCC_OscConfig+0x106>
 80039ec:	4947      	ldr	r1, [pc, #284]	; (8003b0c <HAL_RCC_OscConfig+0x290>)
 80039ee:	68e2      	ldr	r2, [r4, #12]
 80039f0:	690b      	ldr	r3, [r1, #16]
 80039f2:	6a88      	ldr	r0, [r1, #40]	; 0x28
 80039f4:	f013 0338 	ands.w	r3, r3, #56	; 0x38
 80039f8:	d003      	beq.n	8003a02 <HAL_RCC_OscConfig+0x186>
 80039fa:	2b18      	cmp	r3, #24
 80039fc:	d12b      	bne.n	8003a56 <HAL_RCC_OscConfig+0x1da>
 80039fe:	0780      	lsls	r0, r0, #30
 8003a00:	d129      	bne.n	8003a56 <HAL_RCC_OscConfig+0x1da>
 8003a02:	680b      	ldr	r3, [r1, #0]
 8003a04:	075b      	lsls	r3, r3, #29
 8003a06:	d502      	bpl.n	8003a0e <HAL_RCC_OscConfig+0x192>
 8003a08:	2a00      	cmp	r2, #0
 8003a0a:	f43f af3a 	beq.w	8003882 <HAL_RCC_OscConfig+0x6>
 8003a0e:	4d3f      	ldr	r5, [pc, #252]	; (8003b0c <HAL_RCC_OscConfig+0x290>)
 8003a10:	682b      	ldr	r3, [r5, #0]
 8003a12:	f023 0319 	bic.w	r3, r3, #25
 8003a16:	4313      	orrs	r3, r2
 8003a18:	602b      	str	r3, [r5, #0]
 8003a1a:	f7fe f9b9 	bl	8001d90 <HAL_GetTick>
 8003a1e:	4606      	mov	r6, r0
 8003a20:	682b      	ldr	r3, [r5, #0]
 8003a22:	075f      	lsls	r7, r3, #29
 8003a24:	d511      	bpl.n	8003a4a <HAL_RCC_OscConfig+0x1ce>
 8003a26:	f7fe f9cb 	bl	8001dc0 <HAL_GetREVID>
 8003a2a:	f241 0303 	movw	r3, #4099	; 0x1003
 8003a2e:	6922      	ldr	r2, [r4, #16]
 8003a30:	4298      	cmp	r0, r3
 8003a32:	686b      	ldr	r3, [r5, #4]
 8003a34:	d822      	bhi.n	8003a7c <HAL_RCC_OscConfig+0x200>
 8003a36:	f423 337c 	bic.w	r3, r3, #258048	; 0x3f000
 8003a3a:	2a40      	cmp	r2, #64	; 0x40
 8003a3c:	bf0c      	ite	eq
 8003a3e:	f443 3300 	orreq.w	r3, r3, #131072	; 0x20000
 8003a42:	ea43 3302 	orrne.w	r3, r3, r2, lsl #12
 8003a46:	606b      	str	r3, [r5, #4]
 8003a48:	e724      	b.n	8003894 <HAL_RCC_OscConfig+0x18>
 8003a4a:	f7fe f9a1 	bl	8001d90 <HAL_GetTick>
 8003a4e:	1b80      	subs	r0, r0, r6
 8003a50:	2802      	cmp	r0, #2
 8003a52:	d9e5      	bls.n	8003a20 <HAL_RCC_OscConfig+0x1a4>
 8003a54:	e7a3      	b.n	800399e <HAL_RCC_OscConfig+0x122>
 8003a56:	4d2d      	ldr	r5, [pc, #180]	; (8003b0c <HAL_RCC_OscConfig+0x290>)
 8003a58:	682b      	ldr	r3, [r5, #0]
 8003a5a:	b1a2      	cbz	r2, 8003a86 <HAL_RCC_OscConfig+0x20a>
 8003a5c:	f023 0319 	bic.w	r3, r3, #25
 8003a60:	4313      	orrs	r3, r2
 8003a62:	602b      	str	r3, [r5, #0]
 8003a64:	f7fe f994 	bl	8001d90 <HAL_GetTick>
 8003a68:	4606      	mov	r6, r0
 8003a6a:	682b      	ldr	r3, [r5, #0]
 8003a6c:	0758      	lsls	r0, r3, #29
 8003a6e:	d4da      	bmi.n	8003a26 <HAL_RCC_OscConfig+0x1aa>
 8003a70:	f7fe f98e 	bl	8001d90 <HAL_GetTick>
 8003a74:	1b80      	subs	r0, r0, r6
 8003a76:	2802      	cmp	r0, #2
 8003a78:	d9f7      	bls.n	8003a6a <HAL_RCC_OscConfig+0x1ee>
 8003a7a:	e790      	b.n	800399e <HAL_RCC_OscConfig+0x122>
 8003a7c:	f023 43fe 	bic.w	r3, r3, #2130706432	; 0x7f000000
 8003a80:	ea43 6302 	orr.w	r3, r3, r2, lsl #24
 8003a84:	e7df      	b.n	8003a46 <HAL_RCC_OscConfig+0x1ca>
 8003a86:	f023 0301 	bic.w	r3, r3, #1
 8003a8a:	602b      	str	r3, [r5, #0]
 8003a8c:	f7fe f980 	bl	8001d90 <HAL_GetTick>
 8003a90:	4606      	mov	r6, r0
 8003a92:	682b      	ldr	r3, [r5, #0]
 8003a94:	0759      	lsls	r1, r3, #29
 8003a96:	f57f aefd 	bpl.w	8003894 <HAL_RCC_OscConfig+0x18>
 8003a9a:	f7fe f979 	bl	8001d90 <HAL_GetTick>
 8003a9e:	1b80      	subs	r0, r0, r6
 8003aa0:	2802      	cmp	r0, #2
 8003aa2:	d9f6      	bls.n	8003a92 <HAL_RCC_OscConfig+0x216>
 8003aa4:	e77b      	b.n	800399e <HAL_RCC_OscConfig+0x122>
 8003aa6:	68da      	ldr	r2, [r3, #12]
 8003aa8:	f022 527c 	bic.w	r2, r2, #1056964608	; 0x3f000000
 8003aac:	ea42 6201 	orr.w	r2, r2, r1, lsl #24
 8003ab0:	60da      	str	r2, [r3, #12]
 8003ab2:	e71a      	b.n	80038ea <HAL_RCC_OscConfig+0x6e>
 8003ab4:	69e3      	ldr	r3, [r4, #28]
 8003ab6:	4d15      	ldr	r5, [pc, #84]	; (8003b0c <HAL_RCC_OscConfig+0x290>)
 8003ab8:	b363      	cbz	r3, 8003b14 <HAL_RCC_OscConfig+0x298>
 8003aba:	682b      	ldr	r3, [r5, #0]
 8003abc:	f043 0380 	orr.w	r3, r3, #128	; 0x80
 8003ac0:	602b      	str	r3, [r5, #0]
 8003ac2:	f7fe f965 	bl	8001d90 <HAL_GetTick>
 8003ac6:	4606      	mov	r6, r0
 8003ac8:	682b      	ldr	r3, [r5, #0]
 8003aca:	05df      	lsls	r7, r3, #23
 8003acc:	d511      	bpl.n	8003af2 <HAL_RCC_OscConfig+0x276>
 8003ace:	f7fe f977 	bl	8001dc0 <HAL_GetREVID>
 8003ad2:	f241 0303 	movw	r3, #4099	; 0x1003
 8003ad6:	6a22      	ldr	r2, [r4, #32]
 8003ad8:	4298      	cmp	r0, r3
 8003ada:	d810      	bhi.n	8003afe <HAL_RCC_OscConfig+0x282>
 8003adc:	686b      	ldr	r3, [r5, #4]
 8003ade:	2a20      	cmp	r2, #32
 8003ae0:	f023 43f8 	bic.w	r3, r3, #2080374784	; 0x7c000000
 8003ae4:	bf0c      	ite	eq
 8003ae6:	f043 4380 	orreq.w	r3, r3, #1073741824	; 0x40000000
 8003aea:	ea43 6382 	orrne.w	r3, r3, r2, lsl #26
 8003aee:	606b      	str	r3, [r5, #4]
 8003af0:	e6fb      	b.n	80038ea <HAL_RCC_OscConfig+0x6e>
 8003af2:	f7fe f94d 	bl	8001d90 <HAL_GetTick>
 8003af6:	1b80      	subs	r0, r0, r6
 8003af8:	2802      	cmp	r0, #2
 8003afa:	d9e5      	bls.n	8003ac8 <HAL_RCC_OscConfig+0x24c>
 8003afc:	e74f      	b.n	800399e <HAL_RCC_OscConfig+0x122>
 8003afe:	68eb      	ldr	r3, [r5, #12]
 8003b00:	f023 537c 	bic.w	r3, r3, #1056964608	; 0x3f000000
 8003b04:	ea43 6302 	orr.w	r3, r3, r2, lsl #24
 8003b08:	60eb      	str	r3, [r5, #12]
 8003b0a:	e6ee      	b.n	80038ea <HAL_RCC_OscConfig+0x6e>
 8003b0c:	58024400 	.word	0x58024400
 8003b10:	58024800 	.word	0x58024800
 8003b14:	682b      	ldr	r3, [r5, #0]
 8003b16:	f023 0380 	bic.w	r3, r3, #128	; 0x80
 8003b1a:	602b      	str	r3, [r5, #0]
 8003b1c:	f7fe f938 	bl	8001d90 <HAL_GetTick>
 8003b20:	4606      	mov	r6, r0
 8003b22:	682b      	ldr	r3, [r5, #0]
 8003b24:	05d8      	lsls	r0, r3, #23
 8003b26:	f57f aee0 	bpl.w	80038ea <HAL_RCC_OscConfig+0x6e>
 8003b2a:	f7fe f931 	bl	8001d90 <HAL_GetTick>
 8003b2e:	1b80      	subs	r0, r0, r6
 8003b30:	2802      	cmp	r0, #2
 8003b32:	d9f6      	bls.n	8003b22 <HAL_RCC_OscConfig+0x2a6>
 8003b34:	e733      	b.n	800399e <HAL_RCC_OscConfig+0x122>
 8003b36:	6963      	ldr	r3, [r4, #20]
 8003b38:	4da5      	ldr	r5, [pc, #660]	; (8003dd0 <HAL_RCC_OscConfig+0x554>)
 8003b3a:	b183      	cbz	r3, 8003b5e <HAL_RCC_OscConfig+0x2e2>
 8003b3c:	6f6b      	ldr	r3, [r5, #116]	; 0x74
 8003b3e:	f043 0301 	orr.w	r3, r3, #1
 8003b42:	676b      	str	r3, [r5, #116]	; 0x74
 8003b44:	f7fe f924 	bl	8001d90 <HAL_GetTick>
 8003b48:	4606      	mov	r6, r0
 8003b4a:	6f6b      	ldr	r3, [r5, #116]	; 0x74
 8003b4c:	079b      	lsls	r3, r3, #30
 8003b4e:	f53f aed0 	bmi.w	80038f2 <HAL_RCC_OscConfig+0x76>
 8003b52:	f7fe f91d 	bl	8001d90 <HAL_GetTick>
 8003b56:	1b80      	subs	r0, r0, r6
 8003b58:	2802      	cmp	r0, #2
 8003b5a:	d9f6      	bls.n	8003b4a <HAL_RCC_OscConfig+0x2ce>
 8003b5c:	e71f      	b.n	800399e <HAL_RCC_OscConfig+0x122>
 8003b5e:	6f6b      	ldr	r3, [r5, #116]	; 0x74
 8003b60:	f023 0301 	bic.w	r3, r3, #1
 8003b64:	676b      	str	r3, [r5, #116]	; 0x74
 8003b66:	f7fe f913 	bl	8001d90 <HAL_GetTick>
 8003b6a:	4606      	mov	r6, r0
 8003b6c:	6f6b      	ldr	r3, [r5, #116]	; 0x74
 8003b6e:	079f      	lsls	r7, r3, #30
 8003b70:	f57f aebf 	bpl.w	80038f2 <HAL_RCC_OscConfig+0x76>
 8003b74:	f7fe f90c 	bl	8001d90 <HAL_GetTick>
 8003b78:	1b80      	subs	r0, r0, r6
 8003b7a:	2802      	cmp	r0, #2
 8003b7c:	d9f6      	bls.n	8003b6c <HAL_RCC_OscConfig+0x2f0>
 8003b7e:	e70e      	b.n	800399e <HAL_RCC_OscConfig+0x122>
 8003b80:	69a3      	ldr	r3, [r4, #24]
 8003b82:	4d93      	ldr	r5, [pc, #588]	; (8003dd0 <HAL_RCC_OscConfig+0x554>)
 8003b84:	b183      	cbz	r3, 8003ba8 <HAL_RCC_OscConfig+0x32c>
 8003b86:	682b      	ldr	r3, [r5, #0]
 8003b88:	f443 5380 	orr.w	r3, r3, #4096	; 0x1000
 8003b8c:	602b      	str	r3, [r5, #0]
 8003b8e:	f7fe f8ff 	bl	8001d90 <HAL_GetTick>
 8003b92:	4606      	mov	r6, r0
 8003b94:	682b      	ldr	r3, [r5, #0]
 8003b96:	0498      	lsls	r0, r3, #18
 8003b98:	f53f aeaf 	bmi.w	80038fa <HAL_RCC_OscConfig+0x7e>
 8003b9c:	f7fe f8f8 	bl	8001d90 <HAL_GetTick>
 8003ba0:	1b80      	subs	r0, r0, r6
 8003ba2:	2802      	cmp	r0, #2
 8003ba4:	d9f6      	bls.n	8003b94 <HAL_RCC_OscConfig+0x318>
 8003ba6:	e6fa      	b.n	800399e <HAL_RCC_OscConfig+0x122>
 8003ba8:	682b      	ldr	r3, [r5, #0]
 8003baa:	f423 5380 	bic.w	r3, r3, #4096	; 0x1000
 8003bae:	602b      	str	r3, [r5, #0]
 8003bb0:	f7fe f8ee 	bl	8001d90 <HAL_GetTick>
 8003bb4:	4606      	mov	r6, r0
 8003bb6:	682b      	ldr	r3, [r5, #0]
 8003bb8:	0499      	lsls	r1, r3, #18
 8003bba:	f57f ae9e 	bpl.w	80038fa <HAL_RCC_OscConfig+0x7e>
 8003bbe:	f7fe f8e7 	bl	8001d90 <HAL_GetTick>
 8003bc2:	1b80      	subs	r0, r0, r6
 8003bc4:	2802      	cmp	r0, #2
 8003bc6:	d9f6      	bls.n	8003bb6 <HAL_RCC_OscConfig+0x33a>
 8003bc8:	e6e9      	b.n	800399e <HAL_RCC_OscConfig+0x122>
 8003bca:	f7fe f8e1 	bl	8001d90 <HAL_GetTick>
 8003bce:	1b80      	subs	r0, r0, r6
 8003bd0:	2864      	cmp	r0, #100	; 0x64
 8003bd2:	f67f ae9d 	bls.w	8003910 <HAL_RCC_OscConfig+0x94>
 8003bd6:	e6e2      	b.n	800399e <HAL_RCC_OscConfig+0x122>
 8003bd8:	b9b3      	cbnz	r3, 8003c08 <HAL_RCC_OscConfig+0x38c>
 8003bda:	6f2b      	ldr	r3, [r5, #112]	; 0x70
 8003bdc:	f241 3788 	movw	r7, #5000	; 0x1388
 8003be0:	f023 0301 	bic.w	r3, r3, #1
 8003be4:	672b      	str	r3, [r5, #112]	; 0x70
 8003be6:	6f2b      	ldr	r3, [r5, #112]	; 0x70
 8003be8:	f023 0304 	bic.w	r3, r3, #4
 8003bec:	672b      	str	r3, [r5, #112]	; 0x70
 8003bee:	f7fe f8cf 	bl	8001d90 <HAL_GetTick>
 8003bf2:	4606      	mov	r6, r0
 8003bf4:	6f2b      	ldr	r3, [r5, #112]	; 0x70
 8003bf6:	0798      	lsls	r0, r3, #30
 8003bf8:	f57f aea1 	bpl.w	800393e <HAL_RCC_OscConfig+0xc2>
 8003bfc:	f7fe f8c8 	bl	8001d90 <HAL_GetTick>
 8003c00:	1b80      	subs	r0, r0, r6
 8003c02:	42b8      	cmp	r0, r7
 8003c04:	d9f6      	bls.n	8003bf4 <HAL_RCC_OscConfig+0x378>
 8003c06:	e6ca      	b.n	800399e <HAL_RCC_OscConfig+0x122>
 8003c08:	2b05      	cmp	r3, #5
 8003c0a:	6f2b      	ldr	r3, [r5, #112]	; 0x70
 8003c0c:	d103      	bne.n	8003c16 <HAL_RCC_OscConfig+0x39a>
 8003c0e:	f043 0304 	orr.w	r3, r3, #4
 8003c12:	672b      	str	r3, [r5, #112]	; 0x70
 8003c14:	e685      	b.n	8003922 <HAL_RCC_OscConfig+0xa6>
 8003c16:	f023 0301 	bic.w	r3, r3, #1
 8003c1a:	672b      	str	r3, [r5, #112]	; 0x70
 8003c1c:	6f2b      	ldr	r3, [r5, #112]	; 0x70
 8003c1e:	f023 0304 	bic.w	r3, r3, #4
 8003c22:	e681      	b.n	8003928 <HAL_RCC_OscConfig+0xac>
 8003c24:	f7fe f8b4 	bl	8001d90 <HAL_GetTick>
 8003c28:	1b40      	subs	r0, r0, r5
 8003c2a:	42b8      	cmp	r0, r7
 8003c2c:	f67f ae83 	bls.w	8003936 <HAL_RCC_OscConfig+0xba>
 8003c30:	e6b5      	b.n	800399e <HAL_RCC_OscConfig+0x122>
 8003c32:	4d67      	ldr	r5, [pc, #412]	; (8003dd0 <HAL_RCC_OscConfig+0x554>)
 8003c34:	692b      	ldr	r3, [r5, #16]
 8003c36:	f003 0338 	and.w	r3, r3, #56	; 0x38
 8003c3a:	2b18      	cmp	r3, #24
 8003c3c:	d07a      	beq.n	8003d34 <HAL_RCC_OscConfig+0x4b8>
 8003c3e:	682b      	ldr	r3, [r5, #0]
 8003c40:	2802      	cmp	r0, #2
 8003c42:	f023 7380 	bic.w	r3, r3, #16777216	; 0x1000000
 8003c46:	602b      	str	r3, [r5, #0]
 8003c48:	d167      	bne.n	8003d1a <HAL_RCC_OscConfig+0x49e>
 8003c4a:	f7fe f8a1 	bl	8001d90 <HAL_GetTick>
 8003c4e:	4606      	mov	r6, r0
 8003c50:	682b      	ldr	r3, [r5, #0]
 8003c52:	0199      	lsls	r1, r3, #6
 8003c54:	d45b      	bmi.n	8003d0e <HAL_RCC_OscConfig+0x492>
 8003c56:	6aab      	ldr	r3, [r5, #40]	; 0x28
 8003c58:	6aa2      	ldr	r2, [r4, #40]	; 0x28
 8003c5a:	f423 737c 	bic.w	r3, r3, #1008	; 0x3f0
 8003c5e:	f023 0303 	bic.w	r3, r3, #3
 8003c62:	4313      	orrs	r3, r2
 8003c64:	6ae2      	ldr	r2, [r4, #44]	; 0x2c
 8003c66:	ea43 1302 	orr.w	r3, r3, r2, lsl #4
 8003c6a:	62ab      	str	r3, [r5, #40]	; 0x28
 8003c6c:	6b63      	ldr	r3, [r4, #52]	; 0x34
 8003c6e:	6ba2      	ldr	r2, [r4, #56]	; 0x38
 8003c70:	3b01      	subs	r3, #1
 8003c72:	3a01      	subs	r2, #1
 8003c74:	025b      	lsls	r3, r3, #9
 8003c76:	0412      	lsls	r2, r2, #16
 8003c78:	b29b      	uxth	r3, r3
 8003c7a:	f402 02fe 	and.w	r2, r2, #8323072	; 0x7f0000
 8003c7e:	4313      	orrs	r3, r2
 8003c80:	6b22      	ldr	r2, [r4, #48]	; 0x30
 8003c82:	3a01      	subs	r2, #1
 8003c84:	f3c2 0208 	ubfx	r2, r2, #0, #9
 8003c88:	4313      	orrs	r3, r2
 8003c8a:	6be2      	ldr	r2, [r4, #60]	; 0x3c
 8003c8c:	3a01      	subs	r2, #1
 8003c8e:	0612      	lsls	r2, r2, #24
 8003c90:	f002 42fe 	and.w	r2, r2, #2130706432	; 0x7f000000
 8003c94:	4313      	orrs	r3, r2
 8003c96:	632b      	str	r3, [r5, #48]	; 0x30
 8003c98:	6aeb      	ldr	r3, [r5, #44]	; 0x2c
 8003c9a:	f023 0301 	bic.w	r3, r3, #1
 8003c9e:	62eb      	str	r3, [r5, #44]	; 0x2c
 8003ca0:	6b6b      	ldr	r3, [r5, #52]	; 0x34
 8003ca2:	6ca2      	ldr	r2, [r4, #72]	; 0x48
 8003ca4:	f423 437f 	bic.w	r3, r3, #65280	; 0xff00
 8003ca8:	f023 03f8 	bic.w	r3, r3, #248	; 0xf8
 8003cac:	ea43 03c2 	orr.w	r3, r3, r2, lsl #3
 8003cb0:	636b      	str	r3, [r5, #52]	; 0x34
 8003cb2:	6aeb      	ldr	r3, [r5, #44]	; 0x2c
 8003cb4:	6c22      	ldr	r2, [r4, #64]	; 0x40
 8003cb6:	f023 030c 	bic.w	r3, r3, #12
 8003cba:	4313      	orrs	r3, r2
 8003cbc:	62eb      	str	r3, [r5, #44]	; 0x2c
 8003cbe:	6aeb      	ldr	r3, [r5, #44]	; 0x2c
 8003cc0:	6c62      	ldr	r2, [r4, #68]	; 0x44
 8003cc2:	f023 0302 	bic.w	r3, r3, #2
 8003cc6:	4313      	orrs	r3, r2
 8003cc8:	62eb      	str	r3, [r5, #44]	; 0x2c
 8003cca:	6aeb      	ldr	r3, [r5, #44]	; 0x2c
 8003ccc:	f443 3380 	orr.w	r3, r3, #65536	; 0x10000
 8003cd0:	62eb      	str	r3, [r5, #44]	; 0x2c
 8003cd2:	6aeb      	ldr	r3, [r5, #44]	; 0x2c
 8003cd4:	f443 3300 	orr.w	r3, r3, #131072	; 0x20000
 8003cd8:	62eb      	str	r3, [r5, #44]	; 0x2c
 8003cda:	6aeb      	ldr	r3, [r5, #44]	; 0x2c
 8003cdc:	f443 2380 	orr.w	r3, r3, #262144	; 0x40000
 8003ce0:	62eb      	str	r3, [r5, #44]	; 0x2c
 8003ce2:	6aeb      	ldr	r3, [r5, #44]	; 0x2c
 8003ce4:	f043 0301 	orr.w	r3, r3, #1
 8003ce8:	62eb      	str	r3, [r5, #44]	; 0x2c
 8003cea:	682b      	ldr	r3, [r5, #0]
 8003cec:	f043 7380 	orr.w	r3, r3, #16777216	; 0x1000000
 8003cf0:	602b      	str	r3, [r5, #0]
 8003cf2:	f7fe f84d 	bl	8001d90 <HAL_GetTick>
 8003cf6:	4d36      	ldr	r5, [pc, #216]	; (8003dd0 <HAL_RCC_OscConfig+0x554>)
 8003cf8:	4604      	mov	r4, r0
 8003cfa:	682b      	ldr	r3, [r5, #0]
 8003cfc:	019a      	lsls	r2, r3, #6
 8003cfe:	f53f ae22 	bmi.w	8003946 <HAL_RCC_OscConfig+0xca>
 8003d02:	f7fe f845 	bl	8001d90 <HAL_GetTick>
 8003d06:	1b00      	subs	r0, r0, r4
 8003d08:	2802      	cmp	r0, #2
 8003d0a:	d9f6      	bls.n	8003cfa <HAL_RCC_OscConfig+0x47e>
 8003d0c:	e647      	b.n	800399e <HAL_RCC_OscConfig+0x122>
 8003d0e:	f7fe f83f 	bl	8001d90 <HAL_GetTick>
 8003d12:	1b80      	subs	r0, r0, r6
 8003d14:	2802      	cmp	r0, #2
 8003d16:	d99b      	bls.n	8003c50 <HAL_RCC_OscConfig+0x3d4>
 8003d18:	e641      	b.n	800399e <HAL_RCC_OscConfig+0x122>
 8003d1a:	f7fe f839 	bl	8001d90 <HAL_GetTick>
 8003d1e:	4604      	mov	r4, r0
 8003d20:	682b      	ldr	r3, [r5, #0]
 8003d22:	019b      	lsls	r3, r3, #6
 8003d24:	f57f ae0f 	bpl.w	8003946 <HAL_RCC_OscConfig+0xca>
 8003d28:	f7fe f832 	bl	8001d90 <HAL_GetTick>
 8003d2c:	1b00      	subs	r0, r0, r4
 8003d2e:	2802      	cmp	r0, #2
 8003d30:	d9f6      	bls.n	8003d20 <HAL_RCC_OscConfig+0x4a4>
 8003d32:	e634      	b.n	800399e <HAL_RCC_OscConfig+0x122>
 8003d34:	2801      	cmp	r0, #1
 8003d36:	6aaa      	ldr	r2, [r5, #40]	; 0x28
 8003d38:	6b2b      	ldr	r3, [r5, #48]	; 0x30
 8003d3a:	f43f ae31 	beq.w	80039a0 <HAL_RCC_OscConfig+0x124>
 8003d3e:	f002 0103 	and.w	r1, r2, #3
 8003d42:	6aa0      	ldr	r0, [r4, #40]	; 0x28
 8003d44:	4281      	cmp	r1, r0
 8003d46:	f47f ad9c 	bne.w	8003882 <HAL_RCC_OscConfig+0x6>
 8003d4a:	f3c2 1205 	ubfx	r2, r2, #4, #6
 8003d4e:	6ae1      	ldr	r1, [r4, #44]	; 0x2c
 8003d50:	428a      	cmp	r2, r1
 8003d52:	f47f ad96 	bne.w	8003882 <HAL_RCC_OscConfig+0x6>
 8003d56:	6b22      	ldr	r2, [r4, #48]	; 0x30
 8003d58:	f3c3 0108 	ubfx	r1, r3, #0, #9
 8003d5c:	3a01      	subs	r2, #1
 8003d5e:	4291      	cmp	r1, r2
 8003d60:	f47f ad8f 	bne.w	8003882 <HAL_RCC_OscConfig+0x6>
 8003d64:	6b62      	ldr	r2, [r4, #52]	; 0x34
 8003d66:	f3c3 2146 	ubfx	r1, r3, #9, #7
 8003d6a:	3a01      	subs	r2, #1
 8003d6c:	4291      	cmp	r1, r2
 8003d6e:	f47f ad88 	bne.w	8003882 <HAL_RCC_OscConfig+0x6>
 8003d72:	6ba2      	ldr	r2, [r4, #56]	; 0x38
 8003d74:	f3c3 4106 	ubfx	r1, r3, #16, #7
 8003d78:	3a01      	subs	r2, #1
 8003d7a:	4291      	cmp	r1, r2
 8003d7c:	f47f ad81 	bne.w	8003882 <HAL_RCC_OscConfig+0x6>
 8003d80:	6be2      	ldr	r2, [r4, #60]	; 0x3c
 8003d82:	f3c3 6306 	ubfx	r3, r3, #24, #7
 8003d86:	3a01      	subs	r2, #1
 8003d88:	4293      	cmp	r3, r2
 8003d8a:	f47f ad7a 	bne.w	8003882 <HAL_RCC_OscConfig+0x6>
 8003d8e:	6b6b      	ldr	r3, [r5, #52]	; 0x34
 8003d90:	6ca2      	ldr	r2, [r4, #72]	; 0x48
 8003d92:	f3c3 03cc 	ubfx	r3, r3, #3, #13
 8003d96:	429a      	cmp	r2, r3
 8003d98:	f43f add5 	beq.w	8003946 <HAL_RCC_OscConfig+0xca>
 8003d9c:	4d0c      	ldr	r5, [pc, #48]	; (8003dd0 <HAL_RCC_OscConfig+0x554>)
 8003d9e:	6aeb      	ldr	r3, [r5, #44]	; 0x2c
 8003da0:	f023 0301 	bic.w	r3, r3, #1
 8003da4:	62eb      	str	r3, [r5, #44]	; 0x2c
 8003da6:	f7fd fff3 	bl	8001d90 <HAL_GetTick>
 8003daa:	4606      	mov	r6, r0
 8003dac:	f7fd fff0 	bl	8001d90 <HAL_GetTick>
 8003db0:	42b0      	cmp	r0, r6
 8003db2:	d0fb      	beq.n	8003dac <HAL_RCC_OscConfig+0x530>
 8003db4:	6b6b      	ldr	r3, [r5, #52]	; 0x34
 8003db6:	6ca2      	ldr	r2, [r4, #72]	; 0x48
 8003db8:	f423 437f 	bic.w	r3, r3, #65280	; 0xff00
 8003dbc:	f023 03f8 	bic.w	r3, r3, #248	; 0xf8
 8003dc0:	ea43 03c2 	orr.w	r3, r3, r2, lsl #3
 8003dc4:	636b      	str	r3, [r5, #52]	; 0x34
 8003dc6:	6aeb      	ldr	r3, [r5, #44]	; 0x2c
 8003dc8:	f043 0301 	orr.w	r3, r3, #1
 8003dcc:	62eb      	str	r3, [r5, #44]	; 0x2c
 8003dce:	e5ba      	b.n	8003946 <HAL_RCC_OscConfig+0xca>
 8003dd0:	58024400 	.word	0x58024400

08003dd4 <HAL_RCC_GetSysClockFreq>:
 8003dd4:	4b49      	ldr	r3, [pc, #292]	; (8003efc <HAL_RCC_GetSysClockFreq+0x128>)
 8003dd6:	691a      	ldr	r2, [r3, #16]
 8003dd8:	f002 0238 	and.w	r2, r2, #56	; 0x38
 8003ddc:	2a10      	cmp	r2, #16
 8003dde:	b530      	push	{r4, r5, lr}
 8003de0:	f000 8088 	beq.w	8003ef4 <HAL_RCC_GetSysClockFreq+0x120>
 8003de4:	2a18      	cmp	r2, #24
 8003de6:	d00c      	beq.n	8003e02 <HAL_RCC_GetSysClockFreq+0x2e>
 8003de8:	2a00      	cmp	r2, #0
 8003dea:	f040 8085 	bne.w	8003ef8 <HAL_RCC_GetSysClockFreq+0x124>
 8003dee:	681a      	ldr	r2, [r3, #0]
 8003df0:	4843      	ldr	r0, [pc, #268]	; (8003f00 <HAL_RCC_GetSysClockFreq+0x12c>)
 8003df2:	f012 0f20 	tst.w	r2, #32
 8003df6:	d003      	beq.n	8003e00 <HAL_RCC_GetSysClockFreq+0x2c>
 8003df8:	681b      	ldr	r3, [r3, #0]
 8003dfa:	f3c3 03c1 	ubfx	r3, r3, #3, #2
 8003dfe:	40d8      	lsrs	r0, r3
 8003e00:	bd30      	pop	{r4, r5, pc}
 8003e02:	6a99      	ldr	r1, [r3, #40]	; 0x28
 8003e04:	6a9d      	ldr	r5, [r3, #40]	; 0x28
 8003e06:	6adc      	ldr	r4, [r3, #44]	; 0x2c
 8003e08:	f415 7f7c 	tst.w	r5, #1008	; 0x3f0
 8003e0c:	f3c5 1005 	ubfx	r0, r5, #4, #6
 8003e10:	6b5a      	ldr	r2, [r3, #52]	; 0x34
 8003e12:	d0f5      	beq.n	8003e00 <HAL_RCC_GetSysClockFreq+0x2c>
 8003e14:	f3c2 02cc 	ubfx	r2, r2, #3, #13
 8003e18:	f004 0401 	and.w	r4, r4, #1
 8003e1c:	f001 0103 	and.w	r1, r1, #3
 8003e20:	ee07 0a90 	vmov	s15, r0
 8003e24:	4362      	muls	r2, r4
 8003e26:	eeb7 6a00 	vmov.f32	s12, #112	; 0x3f800000  1.0
 8003e2a:	2901      	cmp	r1, #1
 8003e2c:	eeb8 7ae7 	vcvt.f32.s32	s14, s15
 8003e30:	ee06 2a90 	vmov	s13, r2
 8003e34:	eefa 6ae9 	vcvt.f32.s32	s13, s13, #13
 8003e38:	d04e      	beq.n	8003ed8 <HAL_RCC_GetSysClockFreq+0x104>
 8003e3a:	2902      	cmp	r1, #2
 8003e3c:	d03e      	beq.n	8003ebc <HAL_RCC_GetSysClockFreq+0xe8>
 8003e3e:	2900      	cmp	r1, #0
 8003e40:	d14a      	bne.n	8003ed8 <HAL_RCC_GetSysClockFreq+0x104>
 8003e42:	681a      	ldr	r2, [r3, #0]
 8003e44:	0692      	lsls	r2, r2, #26
 8003e46:	d527      	bpl.n	8003e98 <HAL_RCC_GetSysClockFreq+0xc4>
 8003e48:	6819      	ldr	r1, [r3, #0]
 8003e4a:	4a2d      	ldr	r2, [pc, #180]	; (8003f00 <HAL_RCC_GetSysClockFreq+0x12c>)
 8003e4c:	f3c1 01c1 	ubfx	r1, r1, #3, #2
 8003e50:	6b1b      	ldr	r3, [r3, #48]	; 0x30
 8003e52:	40ca      	lsrs	r2, r1
 8003e54:	f3c3 0308 	ubfx	r3, r3, #0, #9
 8003e58:	ee07 2a90 	vmov	s15, r2
 8003e5c:	eef8 5ae7 	vcvt.f32.s32	s11, s15
 8003e60:	eec5 7a87 	vdiv.f32	s15, s11, s14
 8003e64:	ee07 3a10 	vmov	s14, r3
 8003e68:	eeb8 7ac7 	vcvt.f32.s32	s14, s14
 8003e6c:	ee37 7a26 	vadd.f32	s14, s14, s13
 8003e70:	ee37 7a06 	vadd.f32	s14, s14, s12
 8003e74:	ee67 7a87 	vmul.f32	s15, s15, s14
 8003e78:	4b20      	ldr	r3, [pc, #128]	; (8003efc <HAL_RCC_GetSysClockFreq+0x128>)
 8003e7a:	6b1b      	ldr	r3, [r3, #48]	; 0x30
 8003e7c:	f3c3 2346 	ubfx	r3, r3, #9, #7
 8003e80:	3301      	adds	r3, #1
 8003e82:	ee07 3a10 	vmov	s14, r3
 8003e86:	eef8 6ac7 	vcvt.f32.s32	s13, s14
 8003e8a:	ee87 7aa6 	vdiv.f32	s14, s15, s13
 8003e8e:	eefc 7ac7 	vcvt.u32.f32	s15, s14
 8003e92:	ee17 0a90 	vmov	r0, s15
 8003e96:	e7b3      	b.n	8003e00 <HAL_RCC_GetSysClockFreq+0x2c>
 8003e98:	6b1b      	ldr	r3, [r3, #48]	; 0x30
 8003e9a:	f3c3 0308 	ubfx	r3, r3, #0, #9
 8003e9e:	ee07 3a90 	vmov	s15, r3
 8003ea2:	eef8 7ae7 	vcvt.f32.s32	s15, s15
 8003ea6:	ee77 7aa6 	vadd.f32	s15, s15, s13
 8003eaa:	ee77 7a86 	vadd.f32	s15, s15, s12
 8003eae:	ed9f 6a15 	vldr	s12, [pc, #84]	; 8003f04 <HAL_RCC_GetSysClockFreq+0x130>
 8003eb2:	eec6 6a07 	vdiv.f32	s13, s12, s14
 8003eb6:	ee67 7aa6 	vmul.f32	s15, s15, s13
 8003eba:	e7dd      	b.n	8003e78 <HAL_RCC_GetSysClockFreq+0xa4>
 8003ebc:	6b1b      	ldr	r3, [r3, #48]	; 0x30
 8003ebe:	f3c3 0308 	ubfx	r3, r3, #0, #9
 8003ec2:	ee07 3a90 	vmov	s15, r3
 8003ec6:	eef8 7ae7 	vcvt.f32.s32	s15, s15
 8003eca:	ee77 7aa6 	vadd.f32	s15, s15, s13
 8003ece:	ee77 7a86 	vadd.f32	s15, s15, s12
 8003ed2:	ed9f 6a0d 	vldr	s12, [pc, #52]	; 8003f08 <HAL_RCC_GetSysClockFreq+0x134>
 8003ed6:	e7ec      	b.n	8003eb2 <HAL_RCC_GetSysClockFreq+0xde>
 8003ed8:	6b1b      	ldr	r3, [r3, #48]	; 0x30
 8003eda:	f3c3 0308 	ubfx	r3, r3, #0, #9
 8003ede:	ee07 3a90 	vmov	s15, r3
 8003ee2:	eef8 7ae7 	vcvt.f32.s32	s15, s15
 8003ee6:	ee77 7aa6 	vadd.f32	s15, s15, s13
 8003eea:	ee77 7a86 	vadd.f32	s15, s15, s12
 8003eee:	ed9f 6a07 	vldr	s12, [pc, #28]	; 8003f0c <HAL_RCC_GetSysClockFreq+0x138>
 8003ef2:	e7de      	b.n	8003eb2 <HAL_RCC_GetSysClockFreq+0xde>
 8003ef4:	4806      	ldr	r0, [pc, #24]	; (8003f10 <HAL_RCC_GetSysClockFreq+0x13c>)
 8003ef6:	e783      	b.n	8003e00 <HAL_RCC_GetSysClockFreq+0x2c>
 8003ef8:	4806      	ldr	r0, [pc, #24]	; (8003f14 <HAL_RCC_GetSysClockFreq+0x140>)
 8003efa:	e781      	b.n	8003e00 <HAL_RCC_GetSysClockFreq+0x2c>
 8003efc:	58024400 	.word	0x58024400
 8003f00:	03d09000 	.word	0x03d09000
 8003f04:	4c742400 	.word	0x4c742400
 8003f08:	4bbebc20 	.word	0x4bbebc20
 8003f0c:	4a742400 	.word	0x4a742400
 8003f10:	017d7840 	.word	0x017d7840
 8003f14:	003d0900 	.word	0x003d0900

08003f18 <HAL_RCC_ClockConfig>:
 8003f18:	e92d 41f0 	stmdb	sp!, {r4, r5, r6, r7, r8, lr}
 8003f1c:	460d      	mov	r5, r1
 8003f1e:	4604      	mov	r4, r0
 8003f20:	b910      	cbnz	r0, 8003f28 <HAL_RCC_ClockConfig+0x10>
 8003f22:	2001      	movs	r0, #1
 8003f24:	e8bd 81f0 	ldmia.w	sp!, {r4, r5, r6, r7, r8, pc}
 8003f28:	4a88      	ldr	r2, [pc, #544]	; (800414c <HAL_RCC_ClockConfig+0x234>)
 8003f2a:	6813      	ldr	r3, [r2, #0]
 8003f2c:	f003 030f 	and.w	r3, r3, #15
 8003f30:	428b      	cmp	r3, r1
 8003f32:	f0c0 8093 	bcc.w	800405c <HAL_RCC_ClockConfig+0x144>
 8003f36:	6823      	ldr	r3, [r4, #0]
 8003f38:	075f      	lsls	r7, r3, #29
 8003f3a:	f100 809b 	bmi.w	8004074 <HAL_RCC_ClockConfig+0x15c>
 8003f3e:	071e      	lsls	r6, r3, #28
 8003f40:	d50b      	bpl.n	8003f5a <HAL_RCC_ClockConfig+0x42>
 8003f42:	4983      	ldr	r1, [pc, #524]	; (8004150 <HAL_RCC_ClockConfig+0x238>)
 8003f44:	6960      	ldr	r0, [r4, #20]
 8003f46:	69ca      	ldr	r2, [r1, #28]
 8003f48:	f002 0270 	and.w	r2, r2, #112	; 0x70
 8003f4c:	4290      	cmp	r0, r2
 8003f4e:	d904      	bls.n	8003f5a <HAL_RCC_ClockConfig+0x42>
 8003f50:	69ca      	ldr	r2, [r1, #28]
 8003f52:	f022 0270 	bic.w	r2, r2, #112	; 0x70
 8003f56:	4302      	orrs	r2, r0
 8003f58:	61ca      	str	r2, [r1, #28]
 8003f5a:	06d8      	lsls	r0, r3, #27
 8003f5c:	d50b      	bpl.n	8003f76 <HAL_RCC_ClockConfig+0x5e>
 8003f5e:	497c      	ldr	r1, [pc, #496]	; (8004150 <HAL_RCC_ClockConfig+0x238>)
 8003f60:	69a0      	ldr	r0, [r4, #24]
 8003f62:	69ca      	ldr	r2, [r1, #28]
 8003f64:	f402 62e0 	and.w	r2, r2, #1792	; 0x700
 8003f68:	4290      	cmp	r0, r2
 8003f6a:	d904      	bls.n	8003f76 <HAL_RCC_ClockConfig+0x5e>
 8003f6c:	69ca      	ldr	r2, [r1, #28]
 8003f6e:	f422 62e0 	bic.w	r2, r2, #1792	; 0x700
 8003f72:	4302      	orrs	r2, r0
 8003f74:	61ca      	str	r2, [r1, #28]
 8003f76:	0699      	lsls	r1, r3, #26
 8003f78:	d50b      	bpl.n	8003f92 <HAL_RCC_ClockConfig+0x7a>
 8003f7a:	4975      	ldr	r1, [pc, #468]	; (8004150 <HAL_RCC_ClockConfig+0x238>)
 8003f7c:	69e0      	ldr	r0, [r4, #28]
 8003f7e:	6a0a      	ldr	r2, [r1, #32]
 8003f80:	f002 0270 	and.w	r2, r2, #112	; 0x70
 8003f84:	4290      	cmp	r0, r2
 8003f86:	d904      	bls.n	8003f92 <HAL_RCC_ClockConfig+0x7a>
 8003f88:	6a0a      	ldr	r2, [r1, #32]
 8003f8a:	f022 0270 	bic.w	r2, r2, #112	; 0x70
 8003f8e:	4302      	orrs	r2, r0
 8003f90:	620a      	str	r2, [r1, #32]
 8003f92:	079a      	lsls	r2, r3, #30
 8003f94:	d50b      	bpl.n	8003fae <HAL_RCC_ClockConfig+0x96>
 8003f96:	496e      	ldr	r1, [pc, #440]	; (8004150 <HAL_RCC_ClockConfig+0x238>)
 8003f98:	68e0      	ldr	r0, [r4, #12]
 8003f9a:	698a      	ldr	r2, [r1, #24]
 8003f9c:	f002 020f 	and.w	r2, r2, #15
 8003fa0:	4290      	cmp	r0, r2
 8003fa2:	d904      	bls.n	8003fae <HAL_RCC_ClockConfig+0x96>
 8003fa4:	698a      	ldr	r2, [r1, #24]
 8003fa6:	f022 020f 	bic.w	r2, r2, #15
 8003faa:	4302      	orrs	r2, r0
 8003fac:	618a      	str	r2, [r1, #24]
 8003fae:	07df      	lsls	r7, r3, #31
 8003fb0:	d46e      	bmi.n	8004090 <HAL_RCC_ClockConfig+0x178>
 8003fb2:	6823      	ldr	r3, [r4, #0]
 8003fb4:	079e      	lsls	r6, r3, #30
 8003fb6:	f100 80a1 	bmi.w	80040fc <HAL_RCC_ClockConfig+0x1e4>
 8003fba:	4964      	ldr	r1, [pc, #400]	; (800414c <HAL_RCC_ClockConfig+0x234>)
 8003fbc:	680a      	ldr	r2, [r1, #0]
 8003fbe:	f002 020f 	and.w	r2, r2, #15
 8003fc2:	42aa      	cmp	r2, r5
 8003fc4:	f200 80a8 	bhi.w	8004118 <HAL_RCC_ClockConfig+0x200>
 8003fc8:	0758      	lsls	r0, r3, #29
 8003fca:	f100 80b1 	bmi.w	8004130 <HAL_RCC_ClockConfig+0x218>
 8003fce:	0719      	lsls	r1, r3, #28
 8003fd0:	d50b      	bpl.n	8003fea <HAL_RCC_ClockConfig+0xd2>
 8003fd2:	495f      	ldr	r1, [pc, #380]	; (8004150 <HAL_RCC_ClockConfig+0x238>)
 8003fd4:	6960      	ldr	r0, [r4, #20]
 8003fd6:	69ca      	ldr	r2, [r1, #28]
 8003fd8:	f002 0270 	and.w	r2, r2, #112	; 0x70
 8003fdc:	4290      	cmp	r0, r2
 8003fde:	d204      	bcs.n	8003fea <HAL_RCC_ClockConfig+0xd2>
 8003fe0:	69ca      	ldr	r2, [r1, #28]
 8003fe2:	f022 0270 	bic.w	r2, r2, #112	; 0x70
 8003fe6:	4302      	orrs	r2, r0
 8003fe8:	61ca      	str	r2, [r1, #28]
 8003fea:	06da      	lsls	r2, r3, #27
 8003fec:	d50b      	bpl.n	8004006 <HAL_RCC_ClockConfig+0xee>
 8003fee:	4958      	ldr	r1, [pc, #352]	; (8004150 <HAL_RCC_ClockConfig+0x238>)
 8003ff0:	69a0      	ldr	r0, [r4, #24]
 8003ff2:	69ca      	ldr	r2, [r1, #28]
 8003ff4:	f402 62e0 	and.w	r2, r2, #1792	; 0x700
 8003ff8:	4290      	cmp	r0, r2
 8003ffa:	d204      	bcs.n	8004006 <HAL_RCC_ClockConfig+0xee>
 8003ffc:	69ca      	ldr	r2, [r1, #28]
 8003ffe:	f422 62e0 	bic.w	r2, r2, #1792	; 0x700
 8004002:	4302      	orrs	r2, r0
 8004004:	61ca      	str	r2, [r1, #28]
 8004006:	069b      	lsls	r3, r3, #26
 8004008:	d50b      	bpl.n	8004022 <HAL_RCC_ClockConfig+0x10a>
 800400a:	4a51      	ldr	r2, [pc, #324]	; (8004150 <HAL_RCC_ClockConfig+0x238>)
 800400c:	69e1      	ldr	r1, [r4, #28]
 800400e:	6a13      	ldr	r3, [r2, #32]
 8004010:	f003 0370 	and.w	r3, r3, #112	; 0x70
 8004014:	4299      	cmp	r1, r3
 8004016:	d204      	bcs.n	8004022 <HAL_RCC_ClockConfig+0x10a>
 8004018:	6a13      	ldr	r3, [r2, #32]
 800401a:	f023 0370 	bic.w	r3, r3, #112	; 0x70
 800401e:	430b      	orrs	r3, r1
 8004020:	6213      	str	r3, [r2, #32]
 8004022:	f7ff fed7 	bl	8003dd4 <HAL_RCC_GetSysClockFreq>
 8004026:	494a      	ldr	r1, [pc, #296]	; (8004150 <HAL_RCC_ClockConfig+0x238>)
 8004028:	4a4a      	ldr	r2, [pc, #296]	; (8004154 <HAL_RCC_ClockConfig+0x23c>)
 800402a:	698b      	ldr	r3, [r1, #24]
 800402c:	f3c3 2303 	ubfx	r3, r3, #8, #4
 8004030:	5cd3      	ldrb	r3, [r2, r3]
 8004032:	f003 031f 	and.w	r3, r3, #31
 8004036:	40d8      	lsrs	r0, r3
 8004038:	698b      	ldr	r3, [r1, #24]
 800403a:	f003 030f 	and.w	r3, r3, #15
 800403e:	5cd3      	ldrb	r3, [r2, r3]
 8004040:	4a45      	ldr	r2, [pc, #276]	; (8004158 <HAL_RCC_ClockConfig+0x240>)
 8004042:	f003 031f 	and.w	r3, r3, #31
 8004046:	fa20 f303 	lsr.w	r3, r0, r3
 800404a:	6013      	str	r3, [r2, #0]
 800404c:	4b43      	ldr	r3, [pc, #268]	; (800415c <HAL_RCC_ClockConfig+0x244>)
 800404e:	6018      	str	r0, [r3, #0]
 8004050:	4b43      	ldr	r3, [pc, #268]	; (8004160 <HAL_RCC_ClockConfig+0x248>)
 8004052:	e8bd 41f0 	ldmia.w	sp!, {r4, r5, r6, r7, r8, lr}
 8004056:	6818      	ldr	r0, [r3, #0]
 8004058:	f7fd be3a 	b.w	8001cd0 <HAL_InitTick>
 800405c:	6813      	ldr	r3, [r2, #0]
 800405e:	f023 030f 	bic.w	r3, r3, #15
 8004062:	430b      	orrs	r3, r1
 8004064:	6013      	str	r3, [r2, #0]
 8004066:	6813      	ldr	r3, [r2, #0]
 8004068:	f003 030f 	and.w	r3, r3, #15
 800406c:	428b      	cmp	r3, r1
 800406e:	f47f af58 	bne.w	8003f22 <HAL_RCC_ClockConfig+0xa>
 8004072:	e760      	b.n	8003f36 <HAL_RCC_ClockConfig+0x1e>
 8004074:	4936      	ldr	r1, [pc, #216]	; (8004150 <HAL_RCC_ClockConfig+0x238>)
 8004076:	6920      	ldr	r0, [r4, #16]
 8004078:	698a      	ldr	r2, [r1, #24]
 800407a:	f002 0270 	and.w	r2, r2, #112	; 0x70
 800407e:	4290      	cmp	r0, r2
 8004080:	f67f af5d 	bls.w	8003f3e <HAL_RCC_ClockConfig+0x26>
 8004084:	698a      	ldr	r2, [r1, #24]
 8004086:	f022 0270 	bic.w	r2, r2, #112	; 0x70
 800408a:	4302      	orrs	r2, r0
 800408c:	618a      	str	r2, [r1, #24]
 800408e:	e756      	b.n	8003f3e <HAL_RCC_ClockConfig+0x26>
 8004090:	4b2f      	ldr	r3, [pc, #188]	; (8004150 <HAL_RCC_ClockConfig+0x238>)
 8004092:	68a1      	ldr	r1, [r4, #8]
 8004094:	699a      	ldr	r2, [r3, #24]
 8004096:	f422 6270 	bic.w	r2, r2, #3840	; 0xf00
 800409a:	430a      	orrs	r2, r1
 800409c:	619a      	str	r2, [r3, #24]
 800409e:	6861      	ldr	r1, [r4, #4]
 80040a0:	681a      	ldr	r2, [r3, #0]
 80040a2:	2902      	cmp	r1, #2
 80040a4:	d11d      	bne.n	80040e2 <HAL_RCC_ClockConfig+0x1ca>
 80040a6:	f412 3f00 	tst.w	r2, #131072	; 0x20000
 80040aa:	f43f af3a 	beq.w	8003f22 <HAL_RCC_ClockConfig+0xa>
 80040ae:	691a      	ldr	r2, [r3, #16]
 80040b0:	f241 3888 	movw	r8, #5000	; 0x1388
 80040b4:	4f26      	ldr	r7, [pc, #152]	; (8004150 <HAL_RCC_ClockConfig+0x238>)
 80040b6:	f022 0207 	bic.w	r2, r2, #7
 80040ba:	430a      	orrs	r2, r1
 80040bc:	611a      	str	r2, [r3, #16]
 80040be:	f7fd fe67 	bl	8001d90 <HAL_GetTick>
 80040c2:	4606      	mov	r6, r0
 80040c4:	693b      	ldr	r3, [r7, #16]
 80040c6:	6862      	ldr	r2, [r4, #4]
 80040c8:	f003 0338 	and.w	r3, r3, #56	; 0x38
 80040cc:	ebb3 0fc2 	cmp.w	r3, r2, lsl #3
 80040d0:	f43f af6f 	beq.w	8003fb2 <HAL_RCC_ClockConfig+0x9a>
 80040d4:	f7fd fe5c 	bl	8001d90 <HAL_GetTick>
 80040d8:	1b80      	subs	r0, r0, r6
 80040da:	4540      	cmp	r0, r8
 80040dc:	d9f2      	bls.n	80040c4 <HAL_RCC_ClockConfig+0x1ac>
 80040de:	2003      	movs	r0, #3
 80040e0:	e720      	b.n	8003f24 <HAL_RCC_ClockConfig+0xc>
 80040e2:	2903      	cmp	r1, #3
 80040e4:	d102      	bne.n	80040ec <HAL_RCC_ClockConfig+0x1d4>
 80040e6:	f012 7f00 	tst.w	r2, #33554432	; 0x2000000
 80040ea:	e7de      	b.n	80040aa <HAL_RCC_ClockConfig+0x192>
 80040ec:	2901      	cmp	r1, #1
 80040ee:	d102      	bne.n	80040f6 <HAL_RCC_ClockConfig+0x1de>
 80040f0:	f412 7f80 	tst.w	r2, #256	; 0x100
 80040f4:	e7d9      	b.n	80040aa <HAL_RCC_ClockConfig+0x192>
 80040f6:	f012 0f04 	tst.w	r2, #4
 80040fa:	e7d6      	b.n	80040aa <HAL_RCC_ClockConfig+0x192>
 80040fc:	4914      	ldr	r1, [pc, #80]	; (8004150 <HAL_RCC_ClockConfig+0x238>)
 80040fe:	68e0      	ldr	r0, [r4, #12]
 8004100:	698a      	ldr	r2, [r1, #24]
 8004102:	f002 020f 	and.w	r2, r2, #15
 8004106:	4290      	cmp	r0, r2
 8004108:	f4bf af57 	bcs.w	8003fba <HAL_RCC_ClockConfig+0xa2>
 800410c:	698a      	ldr	r2, [r1, #24]
 800410e:	f022 020f 	bic.w	r2, r2, #15
 8004112:	4302      	orrs	r2, r0
 8004114:	618a      	str	r2, [r1, #24]
 8004116:	e750      	b.n	8003fba <HAL_RCC_ClockConfig+0xa2>
 8004118:	680a      	ldr	r2, [r1, #0]
 800411a:	f022 020f 	bic.w	r2, r2, #15
 800411e:	432a      	orrs	r2, r5
 8004120:	600a      	str	r2, [r1, #0]
 8004122:	680a      	ldr	r2, [r1, #0]
 8004124:	f002 020f 	and.w	r2, r2, #15
 8004128:	42aa      	cmp	r2, r5
 800412a:	f47f aefa 	bne.w	8003f22 <HAL_RCC_ClockConfig+0xa>
 800412e:	e74b      	b.n	8003fc8 <HAL_RCC_ClockConfig+0xb0>
 8004130:	4907      	ldr	r1, [pc, #28]	; (8004150 <HAL_RCC_ClockConfig+0x238>)
 8004132:	6920      	ldr	r0, [r4, #16]
 8004134:	698a      	ldr	r2, [r1, #24]
 8004136:	f002 0270 	and.w	r2, r2, #112	; 0x70
 800413a:	4290      	cmp	r0, r2
 800413c:	f4bf af47 	bcs.w	8003fce <HAL_RCC_ClockConfig+0xb6>
 8004140:	698a      	ldr	r2, [r1, #24]
 8004142:	f022 0270 	bic.w	r2, r2, #112	; 0x70
 8004146:	4302      	orrs	r2, r0
 8004148:	618a      	str	r2, [r1, #24]
 800414a:	e740      	b.n	8003fce <HAL_RCC_ClockConfig+0xb6>
 800414c:	52002000 	.word	0x52002000
 8004150:	58024400 	.word	0x58024400
 8004154:	080068e2 	.word	0x080068e2
 8004158:	24000004 	.word	0x24000004
 800415c:	24000000 	.word	0x24000000
 8004160:	2400000c 	.word	0x2400000c

08004164 <HAL_RCC_GetHCLKFreq>:
 8004164:	b510      	push	{r4, lr}
 8004166:	4c0c      	ldr	r4, [pc, #48]	; (8004198 <HAL_RCC_GetHCLKFreq+0x34>)
 8004168:	f7ff fe34 	bl	8003dd4 <HAL_RCC_GetSysClockFreq>
 800416c:	490b      	ldr	r1, [pc, #44]	; (800419c <HAL_RCC_GetHCLKFreq+0x38>)
 800416e:	69a3      	ldr	r3, [r4, #24]
 8004170:	f3c3 2303 	ubfx	r3, r3, #8, #4
 8004174:	5ccb      	ldrb	r3, [r1, r3]
 8004176:	f003 031f 	and.w	r3, r3, #31
 800417a:	fa20 f203 	lsr.w	r2, r0, r3
 800417e:	69a3      	ldr	r3, [r4, #24]
 8004180:	f003 030f 	and.w	r3, r3, #15
 8004184:	5ccb      	ldrb	r3, [r1, r3]
 8004186:	f003 031f 	and.w	r3, r3, #31
 800418a:	fa22 f003 	lsr.w	r0, r2, r3
 800418e:	4b04      	ldr	r3, [pc, #16]	; (80041a0 <HAL_RCC_GetHCLKFreq+0x3c>)
 8004190:	6018      	str	r0, [r3, #0]
 8004192:	4b04      	ldr	r3, [pc, #16]	; (80041a4 <HAL_RCC_GetHCLKFreq+0x40>)
 8004194:	601a      	str	r2, [r3, #0]
 8004196:	bd10      	pop	{r4, pc}
 8004198:	58024400 	.word	0x58024400
 800419c:	080068e2 	.word	0x080068e2
 80041a0:	24000004 	.word	0x24000004
 80041a4:	24000000 	.word	0x24000000

080041a8 <HAL_RCC_GetPCLK1Freq>:
 80041a8:	b508      	push	{r3, lr}
 80041aa:	f7ff ffdb 	bl	8004164 <HAL_RCC_GetHCLKFreq>
 80041ae:	4b05      	ldr	r3, [pc, #20]	; (80041c4 <HAL_RCC_GetPCLK1Freq+0x1c>)
 80041b0:	4a05      	ldr	r2, [pc, #20]	; (80041c8 <HAL_RCC_GetPCLK1Freq+0x20>)
 80041b2:	69db      	ldr	r3, [r3, #28]
 80041b4:	f3c3 1302 	ubfx	r3, r3, #4, #3
 80041b8:	5cd3      	ldrb	r3, [r2, r3]
 80041ba:	f003 031f 	and.w	r3, r3, #31
 80041be:	40d8      	lsrs	r0, r3
 80041c0:	bd08      	pop	{r3, pc}
 80041c2:	bf00      	nop
 80041c4:	58024400 	.word	0x58024400
 80041c8:	080068e2 	.word	0x080068e2

080041cc <HAL_RCC_GetPCLK2Freq>:
 80041cc:	b508      	push	{r3, lr}
 80041ce:	f7ff ffc9 	bl	8004164 <HAL_RCC_GetHCLKFreq>
 80041d2:	4b05      	ldr	r3, [pc, #20]	; (80041e8 <HAL_RCC_GetPCLK2Freq+0x1c>)
 80041d4:	4a05      	ldr	r2, [pc, #20]	; (80041ec <HAL_RCC_GetPCLK2Freq+0x20>)
 80041d6:	69db      	ldr	r3, [r3, #28]
 80041d8:	f3c3 2302 	ubfx	r3, r3, #8, #3
 80041dc:	5cd3      	ldrb	r3, [r2, r3]
 80041de:	f003 031f 	and.w	r3, r3, #31
 80041e2:	40d8      	lsrs	r0, r3
 80041e4:	bd08      	pop	{r3, pc}
 80041e6:	bf00      	nop
 80041e8:	58024400 	.word	0x58024400
 80041ec:	080068e2 	.word	0x080068e2

080041f0 <RCCEx_PLL2_Config>:
 80041f0:	b5f8      	push	{r3, r4, r5, r6, r7, lr}
 80041f2:	4c3a      	ldr	r4, [pc, #232]	; (80042dc <RCCEx_PLL2_Config+0xec>)
 80041f4:	4606      	mov	r6, r0
 80041f6:	460d      	mov	r5, r1
 80041f8:	6aa3      	ldr	r3, [r4, #40]	; 0x28
 80041fa:	f003 0303 	and.w	r3, r3, #3
 80041fe:	2b03      	cmp	r3, #3
 8004200:	d069      	beq.n	80042d6 <RCCEx_PLL2_Config+0xe6>
 8004202:	6823      	ldr	r3, [r4, #0]
 8004204:	f023 6380 	bic.w	r3, r3, #67108864	; 0x4000000
 8004208:	6023      	str	r3, [r4, #0]
 800420a:	f7fd fdc1 	bl	8001d90 <HAL_GetTick>
 800420e:	4607      	mov	r7, r0
 8004210:	6823      	ldr	r3, [r4, #0]
 8004212:	011a      	lsls	r2, r3, #4
 8004214:	d44b      	bmi.n	80042ae <RCCEx_PLL2_Config+0xbe>
 8004216:	6aa3      	ldr	r3, [r4, #40]	; 0x28
 8004218:	6832      	ldr	r2, [r6, #0]
 800421a:	f423 337c 	bic.w	r3, r3, #258048	; 0x3f000
 800421e:	ea43 3302 	orr.w	r3, r3, r2, lsl #12
 8004222:	62a3      	str	r3, [r4, #40]	; 0x28
 8004224:	68b3      	ldr	r3, [r6, #8]
 8004226:	68f2      	ldr	r2, [r6, #12]
 8004228:	3b01      	subs	r3, #1
 800422a:	3a01      	subs	r2, #1
 800422c:	025b      	lsls	r3, r3, #9
 800422e:	0412      	lsls	r2, r2, #16
 8004230:	b29b      	uxth	r3, r3
 8004232:	f402 02fe 	and.w	r2, r2, #8323072	; 0x7f0000
 8004236:	4313      	orrs	r3, r2
 8004238:	6872      	ldr	r2, [r6, #4]
 800423a:	3a01      	subs	r2, #1
 800423c:	f3c2 0208 	ubfx	r2, r2, #0, #9
 8004240:	4313      	orrs	r3, r2
 8004242:	6932      	ldr	r2, [r6, #16]
 8004244:	3a01      	subs	r2, #1
 8004246:	0612      	lsls	r2, r2, #24
 8004248:	f002 42fe 	and.w	r2, r2, #2130706432	; 0x7f000000
 800424c:	4313      	orrs	r3, r2
 800424e:	63a3      	str	r3, [r4, #56]	; 0x38
 8004250:	6ae3      	ldr	r3, [r4, #44]	; 0x2c
 8004252:	6972      	ldr	r2, [r6, #20]
 8004254:	f023 03c0 	bic.w	r3, r3, #192	; 0xc0
 8004258:	4313      	orrs	r3, r2
 800425a:	62e3      	str	r3, [r4, #44]	; 0x2c
 800425c:	6ae3      	ldr	r3, [r4, #44]	; 0x2c
 800425e:	69b2      	ldr	r2, [r6, #24]
 8004260:	f023 0320 	bic.w	r3, r3, #32
 8004264:	4313      	orrs	r3, r2
 8004266:	62e3      	str	r3, [r4, #44]	; 0x2c
 8004268:	6ae3      	ldr	r3, [r4, #44]	; 0x2c
 800426a:	f023 0310 	bic.w	r3, r3, #16
 800426e:	62e3      	str	r3, [r4, #44]	; 0x2c
 8004270:	6be3      	ldr	r3, [r4, #60]	; 0x3c
 8004272:	69f2      	ldr	r2, [r6, #28]
 8004274:	f423 437f 	bic.w	r3, r3, #65280	; 0xff00
 8004278:	f023 03f8 	bic.w	r3, r3, #248	; 0xf8
 800427c:	ea43 03c2 	orr.w	r3, r3, r2, lsl #3
 8004280:	63e3      	str	r3, [r4, #60]	; 0x3c
 8004282:	6ae3      	ldr	r3, [r4, #44]	; 0x2c
 8004284:	f043 0310 	orr.w	r3, r3, #16
 8004288:	62e3      	str	r3, [r4, #44]	; 0x2c
 800428a:	6ae3      	ldr	r3, [r4, #44]	; 0x2c
 800428c:	b9b5      	cbnz	r5, 80042bc <RCCEx_PLL2_Config+0xcc>
 800428e:	f443 2300 	orr.w	r3, r3, #524288	; 0x80000
 8004292:	62e3      	str	r3, [r4, #44]	; 0x2c
 8004294:	4c11      	ldr	r4, [pc, #68]	; (80042dc <RCCEx_PLL2_Config+0xec>)
 8004296:	6823      	ldr	r3, [r4, #0]
 8004298:	f043 6380 	orr.w	r3, r3, #67108864	; 0x4000000
 800429c:	6023      	str	r3, [r4, #0]
 800429e:	f7fd fd77 	bl	8001d90 <HAL_GetTick>
 80042a2:	4605      	mov	r5, r0
 80042a4:	6823      	ldr	r3, [r4, #0]
 80042a6:	011b      	lsls	r3, r3, #4
 80042a8:	d50f      	bpl.n	80042ca <RCCEx_PLL2_Config+0xda>
 80042aa:	2000      	movs	r0, #0
 80042ac:	e005      	b.n	80042ba <RCCEx_PLL2_Config+0xca>
 80042ae:	f7fd fd6f 	bl	8001d90 <HAL_GetTick>
 80042b2:	1bc0      	subs	r0, r0, r7
 80042b4:	2802      	cmp	r0, #2
 80042b6:	d9ab      	bls.n	8004210 <RCCEx_PLL2_Config+0x20>
 80042b8:	2003      	movs	r0, #3
 80042ba:	bdf8      	pop	{r3, r4, r5, r6, r7, pc}
 80042bc:	2d01      	cmp	r5, #1
 80042be:	bf0c      	ite	eq
 80042c0:	f443 1380 	orreq.w	r3, r3, #1048576	; 0x100000
 80042c4:	f443 1300 	orrne.w	r3, r3, #2097152	; 0x200000
 80042c8:	e7e3      	b.n	8004292 <RCCEx_PLL2_Config+0xa2>
 80042ca:	f7fd fd61 	bl	8001d90 <HAL_GetTick>
 80042ce:	1b40      	subs	r0, r0, r5
 80042d0:	2802      	cmp	r0, #2
 80042d2:	d9e7      	bls.n	80042a4 <RCCEx_PLL2_Config+0xb4>
 80042d4:	e7f0      	b.n	80042b8 <RCCEx_PLL2_Config+0xc8>
 80042d6:	2001      	movs	r0, #1
 80042d8:	e7ef      	b.n	80042ba <RCCEx_PLL2_Config+0xca>
 80042da:	bf00      	nop
 80042dc:	58024400 	.word	0x58024400

080042e0 <RCCEx_PLL3_Config>:
 80042e0:	b5f8      	push	{r3, r4, r5, r6, r7, lr}
 80042e2:	4c3a      	ldr	r4, [pc, #232]	; (80043cc <RCCEx_PLL3_Config+0xec>)
 80042e4:	4606      	mov	r6, r0
 80042e6:	460d      	mov	r5, r1
 80042e8:	6aa3      	ldr	r3, [r4, #40]	; 0x28
 80042ea:	f003 0303 	and.w	r3, r3, #3
 80042ee:	2b03      	cmp	r3, #3
 80042f0:	d069      	beq.n	80043c6 <RCCEx_PLL3_Config+0xe6>
 80042f2:	6823      	ldr	r3, [r4, #0]
 80042f4:	f023 5380 	bic.w	r3, r3, #268435456	; 0x10000000
 80042f8:	6023      	str	r3, [r4, #0]
 80042fa:	f7fd fd49 	bl	8001d90 <HAL_GetTick>
 80042fe:	4607      	mov	r7, r0
 8004300:	6823      	ldr	r3, [r4, #0]
 8004302:	009a      	lsls	r2, r3, #2
 8004304:	d44b      	bmi.n	800439e <RCCEx_PLL3_Config+0xbe>
 8004306:	6aa3      	ldr	r3, [r4, #40]	; 0x28
 8004308:	6832      	ldr	r2, [r6, #0]
 800430a:	f023 737c 	bic.w	r3, r3, #66060288	; 0x3f00000
 800430e:	ea43 5302 	orr.w	r3, r3, r2, lsl #20
 8004312:	62a3      	str	r3, [r4, #40]	; 0x28
 8004314:	68b3      	ldr	r3, [r6, #8]
 8004316:	68f2      	ldr	r2, [r6, #12]
 8004318:	3b01      	subs	r3, #1
 800431a:	3a01      	subs	r2, #1
 800431c:	025b      	lsls	r3, r3, #9
 800431e:	0412      	lsls	r2, r2, #16
 8004320:	b29b      	uxth	r3, r3
 8004322:	f402 02fe 	and.w	r2, r2, #8323072	; 0x7f0000
 8004326:	4313      	orrs	r3, r2
 8004328:	6872      	ldr	r2, [r6, #4]
 800432a:	3a01      	subs	r2, #1
 800432c:	f3c2 0208 	ubfx	r2, r2, #0, #9
 8004330:	4313      	orrs	r3, r2
 8004332:	6932      	ldr	r2, [r6, #16]
 8004334:	3a01      	subs	r2, #1
 8004336:	0612      	lsls	r2, r2, #24
 8004338:	f002 42fe 	and.w	r2, r2, #2130706432	; 0x7f000000
 800433c:	4313      	orrs	r3, r2
 800433e:	6423      	str	r3, [r4, #64]	; 0x40
 8004340:	6ae3      	ldr	r3, [r4, #44]	; 0x2c
 8004342:	6972      	ldr	r2, [r6, #20]
 8004344:	f423 6340 	bic.w	r3, r3, #3072	; 0xc00
 8004348:	4313      	orrs	r3, r2
 800434a:	62e3      	str	r3, [r4, #44]	; 0x2c
 800434c:	6ae3      	ldr	r3, [r4, #44]	; 0x2c
 800434e:	69b2      	ldr	r2, [r6, #24]
 8004350:	f423 7300 	bic.w	r3, r3, #512	; 0x200
 8004354:	4313      	orrs	r3, r2
 8004356:	62e3      	str	r3, [r4, #44]	; 0x2c
 8004358:	6ae3      	ldr	r3, [r4, #44]	; 0x2c
 800435a:	f423 7380 	bic.w	r3, r3, #256	; 0x100
 800435e:	62e3      	str	r3, [r4, #44]	; 0x2c
 8004360:	6c63      	ldr	r3, [r4, #68]	; 0x44
 8004362:	69f2      	ldr	r2, [r6, #28]
 8004364:	f423 437f 	bic.w	r3, r3, #65280	; 0xff00
 8004368:	f023 03f8 	bic.w	r3, r3, #248	; 0xf8
 800436c:	ea43 03c2 	orr.w	r3, r3, r2, lsl #3
 8004370:	6463      	str	r3, [r4, #68]	; 0x44
 8004372:	6ae3      	ldr	r3, [r4, #44]	; 0x2c
 8004374:	f443 7380 	orr.w	r3, r3, #256	; 0x100
 8004378:	62e3      	str	r3, [r4, #44]	; 0x2c
 800437a:	6ae3      	ldr	r3, [r4, #44]	; 0x2c
 800437c:	b9b5      	cbnz	r5, 80043ac <RCCEx_PLL3_Config+0xcc>
 800437e:	f443 0380 	orr.w	r3, r3, #4194304	; 0x400000
 8004382:	62e3      	str	r3, [r4, #44]	; 0x2c
 8004384:	4c11      	ldr	r4, [pc, #68]	; (80043cc <RCCEx_PLL3_Config+0xec>)
 8004386:	6823      	ldr	r3, [r4, #0]
 8004388:	f043 5380 	orr.w	r3, r3, #268435456	; 0x10000000
 800438c:	6023      	str	r3, [r4, #0]
 800438e:	f7fd fcff 	bl	8001d90 <HAL_GetTick>
 8004392:	4605      	mov	r5, r0
 8004394:	6823      	ldr	r3, [r4, #0]
 8004396:	009b      	lsls	r3, r3, #2
 8004398:	d50f      	bpl.n	80043ba <RCCEx_PLL3_Config+0xda>
 800439a:	2000      	movs	r0, #0
 800439c:	e005      	b.n	80043aa <RCCEx_PLL3_Config+0xca>
 800439e:	f7fd fcf7 	bl	8001d90 <HAL_GetTick>
 80043a2:	1bc0      	subs	r0, r0, r7
 80043a4:	2802      	cmp	r0, #2
 80043a6:	d9ab      	bls.n	8004300 <RCCEx_PLL3_Config+0x20>
 80043a8:	2003      	movs	r0, #3
 80043aa:	bdf8      	pop	{r3, r4, r5, r6, r7, pc}
 80043ac:	2d01      	cmp	r5, #1
 80043ae:	bf0c      	ite	eq
 80043b0:	f443 0300 	orreq.w	r3, r3, #8388608	; 0x800000
 80043b4:	f043 7380 	orrne.w	r3, r3, #16777216	; 0x1000000
 80043b8:	e7e3      	b.n	8004382 <RCCEx_PLL3_Config+0xa2>
 80043ba:	f7fd fce9 	bl	8001d90 <HAL_GetTick>
 80043be:	1b40      	subs	r0, r0, r5
 80043c0:	2802      	cmp	r0, #2
 80043c2:	d9e7      	bls.n	8004394 <RCCEx_PLL3_Config+0xb4>
 80043c4:	e7f0      	b.n	80043a8 <RCCEx_PLL3_Config+0xc8>
 80043c6:	2001      	movs	r0, #1
 80043c8:	e7ef      	b.n	80043aa <RCCEx_PLL3_Config+0xca>
 80043ca:	bf00      	nop
 80043cc:	58024400 	.word	0x58024400

080043d0 <HAL_RCCEx_PeriphCLKConfig>:
 80043d0:	e92d 43f8 	stmdb	sp!, {r3, r4, r5, r6, r7, r8, r9, lr}
 80043d4:	6803      	ldr	r3, [r0, #0]
 80043d6:	4605      	mov	r5, r0
 80043d8:	0118      	lsls	r0, r3, #4
 80043da:	f003 6600 	and.w	r6, r3, #134217728	; 0x8000000
 80043de:	d509      	bpl.n	80043f4 <HAL_RCCEx_PeriphCLKConfig+0x24>
 80043e0:	6eab      	ldr	r3, [r5, #104]	; 0x68
 80043e2:	f5b3 1f00 	cmp.w	r3, #2097152	; 0x200000
 80043e6:	d02f      	beq.n	8004448 <HAL_RCCEx_PeriphCLKConfig+0x78>
 80043e8:	d813      	bhi.n	8004412 <HAL_RCCEx_PeriphCLKConfig+0x42>
 80043ea:	b1f3      	cbz	r3, 800442a <HAL_RCCEx_PeriphCLKConfig+0x5a>
 80043ec:	f5b3 1f80 	cmp.w	r3, #1048576	; 0x100000
 80043f0:	d021      	beq.n	8004436 <HAL_RCCEx_PeriphCLKConfig+0x66>
 80043f2:	2601      	movs	r6, #1
 80043f4:	682b      	ldr	r3, [r5, #0]
 80043f6:	05d9      	lsls	r1, r3, #23
 80043f8:	f140 80ed 	bpl.w	80045d6 <HAL_RCCEx_PeriphCLKConfig+0x206>
 80043fc:	6dab      	ldr	r3, [r5, #88]	; 0x58
 80043fe:	2b04      	cmp	r3, #4
 8004400:	f200 80e8 	bhi.w	80045d4 <HAL_RCCEx_PeriphCLKConfig+0x204>
 8004404:	e8df f013 	tbh	[pc, r3, lsl #1]
 8004408:	002d0026 	.word	0x002d0026
 800440c:	002b00e0 	.word	0x002b00e0
 8004410:	002b      	.short	0x002b
 8004412:	f5b3 1f40 	cmp.w	r3, #3145728	; 0x300000
 8004416:	d1ec      	bne.n	80043f2 <HAL_RCCEx_PeriphCLKConfig+0x22>
 8004418:	4aa9      	ldr	r2, [pc, #676]	; (80046c0 <HAL_RCCEx_PeriphCLKConfig+0x2f0>)
 800441a:	2600      	movs	r6, #0
 800441c:	6ea9      	ldr	r1, [r5, #104]	; 0x68
 800441e:	6d13      	ldr	r3, [r2, #80]	; 0x50
 8004420:	f423 1340 	bic.w	r3, r3, #3145728	; 0x300000
 8004424:	430b      	orrs	r3, r1
 8004426:	6513      	str	r3, [r2, #80]	; 0x50
 8004428:	e7e4      	b.n	80043f4 <HAL_RCCEx_PeriphCLKConfig+0x24>
 800442a:	4aa5      	ldr	r2, [pc, #660]	; (80046c0 <HAL_RCCEx_PeriphCLKConfig+0x2f0>)
 800442c:	6ad3      	ldr	r3, [r2, #44]	; 0x2c
 800442e:	f443 3300 	orr.w	r3, r3, #131072	; 0x20000
 8004432:	62d3      	str	r3, [r2, #44]	; 0x2c
 8004434:	e7f0      	b.n	8004418 <HAL_RCCEx_PeriphCLKConfig+0x48>
 8004436:	2102      	movs	r1, #2
 8004438:	f105 0008 	add.w	r0, r5, #8
 800443c:	f7ff fed8 	bl	80041f0 <RCCEx_PLL2_Config>
 8004440:	4606      	mov	r6, r0
 8004442:	2800      	cmp	r0, #0
 8004444:	d1d6      	bne.n	80043f4 <HAL_RCCEx_PeriphCLKConfig+0x24>
 8004446:	e7e7      	b.n	8004418 <HAL_RCCEx_PeriphCLKConfig+0x48>
 8004448:	2102      	movs	r1, #2
 800444a:	f105 0028 	add.w	r0, r5, #40	; 0x28
 800444e:	f7ff ff47 	bl	80042e0 <RCCEx_PLL3_Config>
 8004452:	e7f5      	b.n	8004440 <HAL_RCCEx_PeriphCLKConfig+0x70>
 8004454:	4a9a      	ldr	r2, [pc, #616]	; (80046c0 <HAL_RCCEx_PeriphCLKConfig+0x2f0>)
 8004456:	6ad3      	ldr	r3, [r2, #44]	; 0x2c
 8004458:	f443 3300 	orr.w	r3, r3, #131072	; 0x20000
 800445c:	62d3      	str	r3, [r2, #44]	; 0x2c
 800445e:	4634      	mov	r4, r6
 8004460:	e005      	b.n	800446e <HAL_RCCEx_PeriphCLKConfig+0x9e>
 8004462:	2100      	movs	r1, #0
 8004464:	f105 0008 	add.w	r0, r5, #8
 8004468:	f7ff fec2 	bl	80041f0 <RCCEx_PLL2_Config>
 800446c:	4604      	mov	r4, r0
 800446e:	2c00      	cmp	r4, #0
 8004470:	f040 80b3 	bne.w	80045da <HAL_RCCEx_PeriphCLKConfig+0x20a>
 8004474:	4a92      	ldr	r2, [pc, #584]	; (80046c0 <HAL_RCCEx_PeriphCLKConfig+0x2f0>)
 8004476:	6da9      	ldr	r1, [r5, #88]	; 0x58
 8004478:	6d13      	ldr	r3, [r2, #80]	; 0x50
 800447a:	f023 0307 	bic.w	r3, r3, #7
 800447e:	430b      	orrs	r3, r1
 8004480:	6513      	str	r3, [r2, #80]	; 0x50
 8004482:	682b      	ldr	r3, [r5, #0]
 8004484:	059a      	lsls	r2, r3, #22
 8004486:	d50d      	bpl.n	80044a4 <HAL_RCCEx_PeriphCLKConfig+0xd4>
 8004488:	6deb      	ldr	r3, [r5, #92]	; 0x5c
 800448a:	2b80      	cmp	r3, #128	; 0x80
 800448c:	f000 80c3 	beq.w	8004616 <HAL_RCCEx_PeriphCLKConfig+0x246>
 8004490:	f200 80a5 	bhi.w	80045de <HAL_RCCEx_PeriphCLKConfig+0x20e>
 8004494:	2b00      	cmp	r3, #0
 8004496:	f000 80b1 	beq.w	80045fc <HAL_RCCEx_PeriphCLKConfig+0x22c>
 800449a:	2b40      	cmp	r3, #64	; 0x40
 800449c:	f000 80b4 	beq.w	8004608 <HAL_RCCEx_PeriphCLKConfig+0x238>
 80044a0:	2601      	movs	r6, #1
 80044a2:	4634      	mov	r4, r6
 80044a4:	682b      	ldr	r3, [r5, #0]
 80044a6:	055b      	lsls	r3, r3, #21
 80044a8:	d510      	bpl.n	80044cc <HAL_RCCEx_PeriphCLKConfig+0xfc>
 80044aa:	f8d5 30a8 	ldr.w	r3, [r5, #168]	; 0xa8
 80044ae:	f5b3 0f80 	cmp.w	r3, #4194304	; 0x400000
 80044b2:	f000 80d6 	beq.w	8004662 <HAL_RCCEx_PeriphCLKConfig+0x292>
 80044b6:	f200 80b6 	bhi.w	8004626 <HAL_RCCEx_PeriphCLKConfig+0x256>
 80044ba:	2b00      	cmp	r3, #0
 80044bc:	f000 80c4 	beq.w	8004648 <HAL_RCCEx_PeriphCLKConfig+0x278>
 80044c0:	f5b3 1f00 	cmp.w	r3, #2097152	; 0x200000
 80044c4:	f000 80c6 	beq.w	8004654 <HAL_RCCEx_PeriphCLKConfig+0x284>
 80044c8:	2601      	movs	r6, #1
 80044ca:	4634      	mov	r4, r6
 80044cc:	682b      	ldr	r3, [r5, #0]
 80044ce:	051f      	lsls	r7, r3, #20
 80044d0:	d510      	bpl.n	80044f4 <HAL_RCCEx_PeriphCLKConfig+0x124>
 80044d2:	f8d5 30ac 	ldr.w	r3, [r5, #172]	; 0xac
 80044d6:	f1b3 7f00 	cmp.w	r3, #33554432	; 0x2000000
 80044da:	f000 80e8 	beq.w	80046ae <HAL_RCCEx_PeriphCLKConfig+0x2de>
 80044de:	f200 80c8 	bhi.w	8004672 <HAL_RCCEx_PeriphCLKConfig+0x2a2>
 80044e2:	2b00      	cmp	r3, #0
 80044e4:	f000 80d6 	beq.w	8004694 <HAL_RCCEx_PeriphCLKConfig+0x2c4>
 80044e8:	f1b3 7f80 	cmp.w	r3, #16777216	; 0x1000000
 80044ec:	f000 80d8 	beq.w	80046a0 <HAL_RCCEx_PeriphCLKConfig+0x2d0>
 80044f0:	2601      	movs	r6, #1
 80044f2:	4634      	mov	r4, r6
 80044f4:	682b      	ldr	r3, [r5, #0]
 80044f6:	0198      	lsls	r0, r3, #6
 80044f8:	d50d      	bpl.n	8004516 <HAL_RCCEx_PeriphCLKConfig+0x146>
 80044fa:	6ceb      	ldr	r3, [r5, #76]	; 0x4c
 80044fc:	2b20      	cmp	r3, #32
 80044fe:	f000 80f3 	beq.w	80046e8 <HAL_RCCEx_PeriphCLKConfig+0x318>
 8004502:	f200 80df 	bhi.w	80046c4 <HAL_RCCEx_PeriphCLKConfig+0x2f4>
 8004506:	2b00      	cmp	r3, #0
 8004508:	f000 80df 	beq.w	80046ca <HAL_RCCEx_PeriphCLKConfig+0x2fa>
 800450c:	2b10      	cmp	r3, #16
 800450e:	f000 80e5 	beq.w	80046dc <HAL_RCCEx_PeriphCLKConfig+0x30c>
 8004512:	2601      	movs	r6, #1
 8004514:	4634      	mov	r4, r6
 8004516:	682b      	ldr	r3, [r5, #0]
 8004518:	04d9      	lsls	r1, r3, #19
 800451a:	d50f      	bpl.n	800453c <HAL_RCCEx_PeriphCLKConfig+0x16c>
 800451c:	6e2b      	ldr	r3, [r5, #96]	; 0x60
 800451e:	f5b3 5f00 	cmp.w	r3, #8192	; 0x2000
 8004522:	f000 8107 	beq.w	8004734 <HAL_RCCEx_PeriphCLKConfig+0x364>
 8004526:	f200 80e8 	bhi.w	80046fa <HAL_RCCEx_PeriphCLKConfig+0x32a>
 800452a:	2b00      	cmp	r3, #0
 800452c:	f000 80f5 	beq.w	800471a <HAL_RCCEx_PeriphCLKConfig+0x34a>
 8004530:	f5b3 5f80 	cmp.w	r3, #4096	; 0x1000
 8004534:	f000 80f7 	beq.w	8004726 <HAL_RCCEx_PeriphCLKConfig+0x356>
 8004538:	2601      	movs	r6, #1
 800453a:	4634      	mov	r4, r6
 800453c:	682b      	ldr	r3, [r5, #0]
 800453e:	049a      	lsls	r2, r3, #18
 8004540:	d50f      	bpl.n	8004562 <HAL_RCCEx_PeriphCLKConfig+0x192>
 8004542:	6e6b      	ldr	r3, [r5, #100]	; 0x64
 8004544:	f5b3 3f00 	cmp.w	r3, #131072	; 0x20000
 8004548:	f000 8115 	beq.w	8004776 <HAL_RCCEx_PeriphCLKConfig+0x3a6>
 800454c:	f200 80fa 	bhi.w	8004744 <HAL_RCCEx_PeriphCLKConfig+0x374>
 8004550:	2b00      	cmp	r3, #0
 8004552:	f000 8100 	beq.w	8004756 <HAL_RCCEx_PeriphCLKConfig+0x386>
 8004556:	f5b3 3f80 	cmp.w	r3, #65536	; 0x10000
 800455a:	f000 8105 	beq.w	8004768 <HAL_RCCEx_PeriphCLKConfig+0x398>
 800455e:	2601      	movs	r6, #1
 8004560:	4634      	mov	r4, r6
 8004562:	682b      	ldr	r3, [r5, #0]
 8004564:	045b      	lsls	r3, r3, #17
 8004566:	d510      	bpl.n	800458a <HAL_RCCEx_PeriphCLKConfig+0x1ba>
 8004568:	f8d5 30b0 	ldr.w	r3, [r5, #176]	; 0xb0
 800456c:	f1b3 5f00 	cmp.w	r3, #536870912	; 0x20000000
 8004570:	f000 8123 	beq.w	80047ba <HAL_RCCEx_PeriphCLKConfig+0x3ea>
 8004574:	f200 8107 	bhi.w	8004786 <HAL_RCCEx_PeriphCLKConfig+0x3b6>
 8004578:	2b00      	cmp	r3, #0
 800457a:	f000 810d 	beq.w	8004798 <HAL_RCCEx_PeriphCLKConfig+0x3c8>
 800457e:	f1b3 5f80 	cmp.w	r3, #268435456	; 0x10000000
 8004582:	f000 8113 	beq.w	80047ac <HAL_RCCEx_PeriphCLKConfig+0x3dc>
 8004586:	2601      	movs	r6, #1
 8004588:	4634      	mov	r4, r6
 800458a:	682b      	ldr	r3, [r5, #0]
 800458c:	041f      	lsls	r7, r3, #16
 800458e:	d50d      	bpl.n	80045ac <HAL_RCCEx_PeriphCLKConfig+0x1dc>
 8004590:	6f2b      	ldr	r3, [r5, #112]	; 0x70
 8004592:	f1b3 5f80 	cmp.w	r3, #268435456	; 0x10000000
 8004596:	f000 8118 	beq.w	80047ca <HAL_RCCEx_PeriphCLKConfig+0x3fa>
 800459a:	f1b3 5f00 	cmp.w	r3, #536870912	; 0x20000000
 800459e:	f000 8122 	beq.w	80047e6 <HAL_RCCEx_PeriphCLKConfig+0x416>
 80045a2:	2b00      	cmp	r3, #0
 80045a4:	f000 8116 	beq.w	80047d4 <HAL_RCCEx_PeriphCLKConfig+0x404>
 80045a8:	2601      	movs	r6, #1
 80045aa:	4634      	mov	r4, r6
 80045ac:	682b      	ldr	r3, [r5, #0]
 80045ae:	01d8      	lsls	r0, r3, #7
 80045b0:	f140 8130 	bpl.w	8004814 <HAL_RCCEx_PeriphCLKConfig+0x444>
 80045b4:	6cab      	ldr	r3, [r5, #72]	; 0x48
 80045b6:	2b03      	cmp	r3, #3
 80045b8:	f200 8171 	bhi.w	800489e <HAL_RCCEx_PeriphCLKConfig+0x4ce>
 80045bc:	e8df f013 	tbh	[pc, r3, lsl #1]
 80045c0:	011c0121 	.word	0x011c0121
 80045c4:	01210168 	.word	0x01210168
 80045c8:	2100      	movs	r1, #0
 80045ca:	f105 0028 	add.w	r0, r5, #40	; 0x28
 80045ce:	f7ff fe87 	bl	80042e0 <RCCEx_PLL3_Config>
 80045d2:	e74b      	b.n	800446c <HAL_RCCEx_PeriphCLKConfig+0x9c>
 80045d4:	2601      	movs	r6, #1
 80045d6:	4634      	mov	r4, r6
 80045d8:	e753      	b.n	8004482 <HAL_RCCEx_PeriphCLKConfig+0xb2>
 80045da:	4626      	mov	r6, r4
 80045dc:	e751      	b.n	8004482 <HAL_RCCEx_PeriphCLKConfig+0xb2>
 80045de:	2bc0      	cmp	r3, #192	; 0xc0
 80045e0:	d003      	beq.n	80045ea <HAL_RCCEx_PeriphCLKConfig+0x21a>
 80045e2:	f5b3 7f80 	cmp.w	r3, #256	; 0x100
 80045e6:	f47f af5b 	bne.w	80044a0 <HAL_RCCEx_PeriphCLKConfig+0xd0>
 80045ea:	b9d4      	cbnz	r4, 8004622 <HAL_RCCEx_PeriphCLKConfig+0x252>
 80045ec:	4a34      	ldr	r2, [pc, #208]	; (80046c0 <HAL_RCCEx_PeriphCLKConfig+0x2f0>)
 80045ee:	6de9      	ldr	r1, [r5, #92]	; 0x5c
 80045f0:	6d13      	ldr	r3, [r2, #80]	; 0x50
 80045f2:	f423 73e0 	bic.w	r3, r3, #448	; 0x1c0
 80045f6:	430b      	orrs	r3, r1
 80045f8:	6513      	str	r3, [r2, #80]	; 0x50
 80045fa:	e753      	b.n	80044a4 <HAL_RCCEx_PeriphCLKConfig+0xd4>
 80045fc:	4a30      	ldr	r2, [pc, #192]	; (80046c0 <HAL_RCCEx_PeriphCLKConfig+0x2f0>)
 80045fe:	6ad3      	ldr	r3, [r2, #44]	; 0x2c
 8004600:	f443 3300 	orr.w	r3, r3, #131072	; 0x20000
 8004604:	62d3      	str	r3, [r2, #44]	; 0x2c
 8004606:	e7f0      	b.n	80045ea <HAL_RCCEx_PeriphCLKConfig+0x21a>
 8004608:	2100      	movs	r1, #0
 800460a:	f105 0008 	add.w	r0, r5, #8
 800460e:	f7ff fdef 	bl	80041f0 <RCCEx_PLL2_Config>
 8004612:	4604      	mov	r4, r0
 8004614:	e7e9      	b.n	80045ea <HAL_RCCEx_PeriphCLKConfig+0x21a>
 8004616:	2100      	movs	r1, #0
 8004618:	f105 0028 	add.w	r0, r5, #40	; 0x28
 800461c:	f7ff fe60 	bl	80042e0 <RCCEx_PLL3_Config>
 8004620:	e7f7      	b.n	8004612 <HAL_RCCEx_PeriphCLKConfig+0x242>
 8004622:	4626      	mov	r6, r4
 8004624:	e73e      	b.n	80044a4 <HAL_RCCEx_PeriphCLKConfig+0xd4>
 8004626:	f5b3 0fc0 	cmp.w	r3, #6291456	; 0x600000
 800462a:	d003      	beq.n	8004634 <HAL_RCCEx_PeriphCLKConfig+0x264>
 800462c:	f5b3 0f00 	cmp.w	r3, #8388608	; 0x800000
 8004630:	f47f af4a 	bne.w	80044c8 <HAL_RCCEx_PeriphCLKConfig+0xf8>
 8004634:	b9dc      	cbnz	r4, 800466e <HAL_RCCEx_PeriphCLKConfig+0x29e>
 8004636:	4a22      	ldr	r2, [pc, #136]	; (80046c0 <HAL_RCCEx_PeriphCLKConfig+0x2f0>)
 8004638:	f8d5 10a8 	ldr.w	r1, [r5, #168]	; 0xa8
 800463c:	6d93      	ldr	r3, [r2, #88]	; 0x58
 800463e:	f423 0360 	bic.w	r3, r3, #14680064	; 0xe00000
 8004642:	430b      	orrs	r3, r1
 8004644:	6593      	str	r3, [r2, #88]	; 0x58
 8004646:	e741      	b.n	80044cc <HAL_RCCEx_PeriphCLKConfig+0xfc>
 8004648:	4a1d      	ldr	r2, [pc, #116]	; (80046c0 <HAL_RCCEx_PeriphCLKConfig+0x2f0>)
 800464a:	6ad3      	ldr	r3, [r2, #44]	; 0x2c
 800464c:	f443 3300 	orr.w	r3, r3, #131072	; 0x20000
 8004650:	62d3      	str	r3, [r2, #44]	; 0x2c
 8004652:	e7ef      	b.n	8004634 <HAL_RCCEx_PeriphCLKConfig+0x264>
 8004654:	2100      	movs	r1, #0
 8004656:	f105 0008 	add.w	r0, r5, #8
 800465a:	f7ff fdc9 	bl	80041f0 <RCCEx_PLL2_Config>
 800465e:	4604      	mov	r4, r0
 8004660:	e7e8      	b.n	8004634 <HAL_RCCEx_PeriphCLKConfig+0x264>
 8004662:	2100      	movs	r1, #0
 8004664:	f105 0028 	add.w	r0, r5, #40	; 0x28
 8004668:	f7ff fe3a 	bl	80042e0 <RCCEx_PLL3_Config>
 800466c:	e7f7      	b.n	800465e <HAL_RCCEx_PeriphCLKConfig+0x28e>
 800466e:	4626      	mov	r6, r4
 8004670:	e72c      	b.n	80044cc <HAL_RCCEx_PeriphCLKConfig+0xfc>
 8004672:	f1b3 7f40 	cmp.w	r3, #50331648	; 0x3000000
 8004676:	d003      	beq.n	8004680 <HAL_RCCEx_PeriphCLKConfig+0x2b0>
 8004678:	f1b3 6f80 	cmp.w	r3, #67108864	; 0x4000000
 800467c:	f47f af38 	bne.w	80044f0 <HAL_RCCEx_PeriphCLKConfig+0x120>
 8004680:	b9dc      	cbnz	r4, 80046ba <HAL_RCCEx_PeriphCLKConfig+0x2ea>
 8004682:	4a0f      	ldr	r2, [pc, #60]	; (80046c0 <HAL_RCCEx_PeriphCLKConfig+0x2f0>)
 8004684:	f8d5 10ac 	ldr.w	r1, [r5, #172]	; 0xac
 8004688:	6d93      	ldr	r3, [r2, #88]	; 0x58
 800468a:	f023 63e0 	bic.w	r3, r3, #117440512	; 0x7000000
 800468e:	430b      	orrs	r3, r1
 8004690:	6593      	str	r3, [r2, #88]	; 0x58
 8004692:	e72f      	b.n	80044f4 <HAL_RCCEx_PeriphCLKConfig+0x124>
 8004694:	4a0a      	ldr	r2, [pc, #40]	; (80046c0 <HAL_RCCEx_PeriphCLKConfig+0x2f0>)
 8004696:	6ad3      	ldr	r3, [r2, #44]	; 0x2c
 8004698:	f443 3300 	orr.w	r3, r3, #131072	; 0x20000
 800469c:	62d3      	str	r3, [r2, #44]	; 0x2c
 800469e:	e7ef      	b.n	8004680 <HAL_RCCEx_PeriphCLKConfig+0x2b0>
 80046a0:	2100      	movs	r1, #0
 80046a2:	f105 0008 	add.w	r0, r5, #8
 80046a6:	f7ff fda3 	bl	80041f0 <RCCEx_PLL2_Config>
 80046aa:	4604      	mov	r4, r0
 80046ac:	e7e8      	b.n	8004680 <HAL_RCCEx_PeriphCLKConfig+0x2b0>
 80046ae:	2100      	movs	r1, #0
 80046b0:	f105 0028 	add.w	r0, r5, #40	; 0x28
 80046b4:	f7ff fe14 	bl	80042e0 <RCCEx_PLL3_Config>
 80046b8:	e7f7      	b.n	80046aa <HAL_RCCEx_PeriphCLKConfig+0x2da>
 80046ba:	4626      	mov	r6, r4
 80046bc:	e71a      	b.n	80044f4 <HAL_RCCEx_PeriphCLKConfig+0x124>
 80046be:	bf00      	nop
 80046c0:	58024400 	.word	0x58024400
 80046c4:	2b30      	cmp	r3, #48	; 0x30
 80046c6:	f47f af24 	bne.w	8004512 <HAL_RCCEx_PeriphCLKConfig+0x142>
 80046ca:	b9a4      	cbnz	r4, 80046f6 <HAL_RCCEx_PeriphCLKConfig+0x326>
 80046cc:	4aa0      	ldr	r2, [pc, #640]	; (8004950 <HAL_RCCEx_PeriphCLKConfig+0x580>)
 80046ce:	6ce9      	ldr	r1, [r5, #76]	; 0x4c
 80046d0:	6cd3      	ldr	r3, [r2, #76]	; 0x4c
 80046d2:	f023 0330 	bic.w	r3, r3, #48	; 0x30
 80046d6:	430b      	orrs	r3, r1
 80046d8:	64d3      	str	r3, [r2, #76]	; 0x4c
 80046da:	e71c      	b.n	8004516 <HAL_RCCEx_PeriphCLKConfig+0x146>
 80046dc:	4a9c      	ldr	r2, [pc, #624]	; (8004950 <HAL_RCCEx_PeriphCLKConfig+0x580>)
 80046de:	6ad3      	ldr	r3, [r2, #44]	; 0x2c
 80046e0:	f443 3300 	orr.w	r3, r3, #131072	; 0x20000
 80046e4:	62d3      	str	r3, [r2, #44]	; 0x2c
 80046e6:	e7f0      	b.n	80046ca <HAL_RCCEx_PeriphCLKConfig+0x2fa>
 80046e8:	2102      	movs	r1, #2
 80046ea:	f105 0008 	add.w	r0, r5, #8
 80046ee:	f7ff fd7f 	bl	80041f0 <RCCEx_PLL2_Config>
 80046f2:	4604      	mov	r4, r0
 80046f4:	e7e9      	b.n	80046ca <HAL_RCCEx_PeriphCLKConfig+0x2fa>
 80046f6:	4626      	mov	r6, r4
 80046f8:	e70d      	b.n	8004516 <HAL_RCCEx_PeriphCLKConfig+0x146>
 80046fa:	f5b3 5f40 	cmp.w	r3, #12288	; 0x3000
 80046fe:	d003      	beq.n	8004708 <HAL_RCCEx_PeriphCLKConfig+0x338>
 8004700:	f5b3 4f80 	cmp.w	r3, #16384	; 0x4000
 8004704:	f47f af18 	bne.w	8004538 <HAL_RCCEx_PeriphCLKConfig+0x168>
 8004708:	b9d4      	cbnz	r4, 8004740 <HAL_RCCEx_PeriphCLKConfig+0x370>
 800470a:	4a91      	ldr	r2, [pc, #580]	; (8004950 <HAL_RCCEx_PeriphCLKConfig+0x580>)
 800470c:	6e29      	ldr	r1, [r5, #96]	; 0x60
 800470e:	6d13      	ldr	r3, [r2, #80]	; 0x50
 8004710:	f423 43e0 	bic.w	r3, r3, #28672	; 0x7000
 8004714:	430b      	orrs	r3, r1
 8004716:	6513      	str	r3, [r2, #80]	; 0x50
 8004718:	e710      	b.n	800453c <HAL_RCCEx_PeriphCLKConfig+0x16c>
 800471a:	4a8d      	ldr	r2, [pc, #564]	; (8004950 <HAL_RCCEx_PeriphCLKConfig+0x580>)
 800471c:	6ad3      	ldr	r3, [r2, #44]	; 0x2c
 800471e:	f443 3300 	orr.w	r3, r3, #131072	; 0x20000
 8004722:	62d3      	str	r3, [r2, #44]	; 0x2c
 8004724:	e7f0      	b.n	8004708 <HAL_RCCEx_PeriphCLKConfig+0x338>
 8004726:	2100      	movs	r1, #0
 8004728:	f105 0008 	add.w	r0, r5, #8
 800472c:	f7ff fd60 	bl	80041f0 <RCCEx_PLL2_Config>
 8004730:	4604      	mov	r4, r0
 8004732:	e7e9      	b.n	8004708 <HAL_RCCEx_PeriphCLKConfig+0x338>
 8004734:	2100      	movs	r1, #0
 8004736:	f105 0028 	add.w	r0, r5, #40	; 0x28
 800473a:	f7ff fdd1 	bl	80042e0 <RCCEx_PLL3_Config>
 800473e:	e7f7      	b.n	8004730 <HAL_RCCEx_PeriphCLKConfig+0x360>
 8004740:	4626      	mov	r6, r4
 8004742:	e6fb      	b.n	800453c <HAL_RCCEx_PeriphCLKConfig+0x16c>
 8004744:	f423 3280 	bic.w	r2, r3, #65536	; 0x10000
 8004748:	f5b2 2f80 	cmp.w	r2, #262144	; 0x40000
 800474c:	d003      	beq.n	8004756 <HAL_RCCEx_PeriphCLKConfig+0x386>
 800474e:	f5b3 3f40 	cmp.w	r3, #196608	; 0x30000
 8004752:	f47f af04 	bne.w	800455e <HAL_RCCEx_PeriphCLKConfig+0x18e>
 8004756:	b9a4      	cbnz	r4, 8004782 <HAL_RCCEx_PeriphCLKConfig+0x3b2>
 8004758:	4a7d      	ldr	r2, [pc, #500]	; (8004950 <HAL_RCCEx_PeriphCLKConfig+0x580>)
 800475a:	6e69      	ldr	r1, [r5, #100]	; 0x64
 800475c:	6d13      	ldr	r3, [r2, #80]	; 0x50
 800475e:	f423 23e0 	bic.w	r3, r3, #458752	; 0x70000
 8004762:	430b      	orrs	r3, r1
 8004764:	6513      	str	r3, [r2, #80]	; 0x50
 8004766:	e6fc      	b.n	8004562 <HAL_RCCEx_PeriphCLKConfig+0x192>
 8004768:	2101      	movs	r1, #1
 800476a:	f105 0008 	add.w	r0, r5, #8
 800476e:	f7ff fd3f 	bl	80041f0 <RCCEx_PLL2_Config>
 8004772:	4604      	mov	r4, r0
 8004774:	e7ef      	b.n	8004756 <HAL_RCCEx_PeriphCLKConfig+0x386>
 8004776:	2101      	movs	r1, #1
 8004778:	f105 0028 	add.w	r0, r5, #40	; 0x28
 800477c:	f7ff fdb0 	bl	80042e0 <RCCEx_PLL3_Config>
 8004780:	e7f7      	b.n	8004772 <HAL_RCCEx_PeriphCLKConfig+0x3a2>
 8004782:	4626      	mov	r6, r4
 8004784:	e6ed      	b.n	8004562 <HAL_RCCEx_PeriphCLKConfig+0x192>
 8004786:	f023 5280 	bic.w	r2, r3, #268435456	; 0x10000000
 800478a:	f1b2 4f80 	cmp.w	r2, #1073741824	; 0x40000000
 800478e:	d003      	beq.n	8004798 <HAL_RCCEx_PeriphCLKConfig+0x3c8>
 8004790:	f1b3 5f40 	cmp.w	r3, #805306368	; 0x30000000
 8004794:	f47f aef7 	bne.w	8004586 <HAL_RCCEx_PeriphCLKConfig+0x1b6>
 8004798:	b9ac      	cbnz	r4, 80047c6 <HAL_RCCEx_PeriphCLKConfig+0x3f6>
 800479a:	4a6d      	ldr	r2, [pc, #436]	; (8004950 <HAL_RCCEx_PeriphCLKConfig+0x580>)
 800479c:	f8d5 10b0 	ldr.w	r1, [r5, #176]	; 0xb0
 80047a0:	6d93      	ldr	r3, [r2, #88]	; 0x58
 80047a2:	f023 43e0 	bic.w	r3, r3, #1879048192	; 0x70000000
 80047a6:	430b      	orrs	r3, r1
 80047a8:	6593      	str	r3, [r2, #88]	; 0x58
 80047aa:	e6ee      	b.n	800458a <HAL_RCCEx_PeriphCLKConfig+0x1ba>
 80047ac:	2101      	movs	r1, #1
 80047ae:	f105 0008 	add.w	r0, r5, #8
 80047b2:	f7ff fd1d 	bl	80041f0 <RCCEx_PLL2_Config>
 80047b6:	4604      	mov	r4, r0
 80047b8:	e7ee      	b.n	8004798 <HAL_RCCEx_PeriphCLKConfig+0x3c8>
 80047ba:	2101      	movs	r1, #1
 80047bc:	f105 0028 	add.w	r0, r5, #40	; 0x28
 80047c0:	f7ff fd8e 	bl	80042e0 <RCCEx_PLL3_Config>
 80047c4:	e7f7      	b.n	80047b6 <HAL_RCCEx_PeriphCLKConfig+0x3e6>
 80047c6:	4626      	mov	r6, r4
 80047c8:	e6df      	b.n	800458a <HAL_RCCEx_PeriphCLKConfig+0x1ba>
 80047ca:	4a61      	ldr	r2, [pc, #388]	; (8004950 <HAL_RCCEx_PeriphCLKConfig+0x580>)
 80047cc:	6ad3      	ldr	r3, [r2, #44]	; 0x2c
 80047ce:	f443 3300 	orr.w	r3, r3, #131072	; 0x20000
 80047d2:	62d3      	str	r3, [r2, #44]	; 0x2c
 80047d4:	b974      	cbnz	r4, 80047f4 <HAL_RCCEx_PeriphCLKConfig+0x424>
 80047d6:	4a5e      	ldr	r2, [pc, #376]	; (8004950 <HAL_RCCEx_PeriphCLKConfig+0x580>)
 80047d8:	6f29      	ldr	r1, [r5, #112]	; 0x70
 80047da:	6d13      	ldr	r3, [r2, #80]	; 0x50
 80047dc:	f023 5340 	bic.w	r3, r3, #805306368	; 0x30000000
 80047e0:	430b      	orrs	r3, r1
 80047e2:	6513      	str	r3, [r2, #80]	; 0x50
 80047e4:	e6e2      	b.n	80045ac <HAL_RCCEx_PeriphCLKConfig+0x1dc>
 80047e6:	2101      	movs	r1, #1
 80047e8:	f105 0008 	add.w	r0, r5, #8
 80047ec:	f7ff fd00 	bl	80041f0 <RCCEx_PLL2_Config>
 80047f0:	4604      	mov	r4, r0
 80047f2:	e7ef      	b.n	80047d4 <HAL_RCCEx_PeriphCLKConfig+0x404>
 80047f4:	4626      	mov	r6, r4
 80047f6:	e6d9      	b.n	80045ac <HAL_RCCEx_PeriphCLKConfig+0x1dc>
 80047f8:	4a55      	ldr	r2, [pc, #340]	; (8004950 <HAL_RCCEx_PeriphCLKConfig+0x580>)
 80047fa:	6ad3      	ldr	r3, [r2, #44]	; 0x2c
 80047fc:	f443 3300 	orr.w	r3, r3, #131072	; 0x20000
 8004800:	62d3      	str	r3, [r2, #44]	; 0x2c
 8004802:	2c00      	cmp	r4, #0
 8004804:	d14e      	bne.n	80048a4 <HAL_RCCEx_PeriphCLKConfig+0x4d4>
 8004806:	4a52      	ldr	r2, [pc, #328]	; (8004950 <HAL_RCCEx_PeriphCLKConfig+0x580>)
 8004808:	6ca9      	ldr	r1, [r5, #72]	; 0x48
 800480a:	6cd3      	ldr	r3, [r2, #76]	; 0x4c
 800480c:	f023 0303 	bic.w	r3, r3, #3
 8004810:	430b      	orrs	r3, r1
 8004812:	64d3      	str	r3, [r2, #76]	; 0x4c
 8004814:	682b      	ldr	r3, [r5, #0]
 8004816:	0259      	lsls	r1, r3, #9
 8004818:	d54e      	bpl.n	80048b8 <HAL_RCCEx_PeriphCLKConfig+0x4e8>
 800481a:	4f4e      	ldr	r7, [pc, #312]	; (8004954 <HAL_RCCEx_PeriphCLKConfig+0x584>)
 800481c:	683b      	ldr	r3, [r7, #0]
 800481e:	f443 7380 	orr.w	r3, r3, #256	; 0x100
 8004822:	603b      	str	r3, [r7, #0]
 8004824:	f7fd fab4 	bl	8001d90 <HAL_GetTick>
 8004828:	4680      	mov	r8, r0
 800482a:	683b      	ldr	r3, [r7, #0]
 800482c:	05da      	lsls	r2, r3, #23
 800482e:	d53b      	bpl.n	80048a8 <HAL_RCCEx_PeriphCLKConfig+0x4d8>
 8004830:	2c00      	cmp	r4, #0
 8004832:	d16d      	bne.n	8004910 <HAL_RCCEx_PeriphCLKConfig+0x540>
 8004834:	4b46      	ldr	r3, [pc, #280]	; (8004950 <HAL_RCCEx_PeriphCLKConfig+0x580>)
 8004836:	f8d5 00b4 	ldr.w	r0, [r5, #180]	; 0xb4
 800483a:	6f1a      	ldr	r2, [r3, #112]	; 0x70
 800483c:	4042      	eors	r2, r0
 800483e:	f412 7f40 	tst.w	r2, #768	; 0x300
 8004842:	d00b      	beq.n	800485c <HAL_RCCEx_PeriphCLKConfig+0x48c>
 8004844:	6f1a      	ldr	r2, [r3, #112]	; 0x70
 8004846:	6f19      	ldr	r1, [r3, #112]	; 0x70
 8004848:	f422 7240 	bic.w	r2, r2, #768	; 0x300
 800484c:	f441 3180 	orr.w	r1, r1, #65536	; 0x10000
 8004850:	6719      	str	r1, [r3, #112]	; 0x70
 8004852:	6f19      	ldr	r1, [r3, #112]	; 0x70
 8004854:	f421 3180 	bic.w	r1, r1, #65536	; 0x10000
 8004858:	6719      	str	r1, [r3, #112]	; 0x70
 800485a:	671a      	str	r2, [r3, #112]	; 0x70
 800485c:	f5b0 7f80 	cmp.w	r0, #256	; 0x100
 8004860:	d041      	beq.n	80048e6 <HAL_RCCEx_PeriphCLKConfig+0x516>
 8004862:	f8d5 30b4 	ldr.w	r3, [r5, #180]	; 0xb4
 8004866:	493a      	ldr	r1, [pc, #232]	; (8004950 <HAL_RCCEx_PeriphCLKConfig+0x580>)
 8004868:	f403 7240 	and.w	r2, r3, #768	; 0x300
 800486c:	f5b2 7f40 	cmp.w	r2, #768	; 0x300
 8004870:	d14a      	bne.n	8004908 <HAL_RCCEx_PeriphCLKConfig+0x538>
 8004872:	6908      	ldr	r0, [r1, #16]
 8004874:	4a38      	ldr	r2, [pc, #224]	; (8004958 <HAL_RCCEx_PeriphCLKConfig+0x588>)
 8004876:	f420 507c 	bic.w	r0, r0, #16128	; 0x3f00
 800487a:	ea02 1213 	and.w	r2, r2, r3, lsr #4
 800487e:	4302      	orrs	r2, r0
 8004880:	610a      	str	r2, [r1, #16]
 8004882:	f3c3 030b 	ubfx	r3, r3, #0, #12
 8004886:	4a32      	ldr	r2, [pc, #200]	; (8004950 <HAL_RCCEx_PeriphCLKConfig+0x580>)
 8004888:	6f11      	ldr	r1, [r2, #112]	; 0x70
 800488a:	430b      	orrs	r3, r1
 800488c:	6713      	str	r3, [r2, #112]	; 0x70
 800488e:	e013      	b.n	80048b8 <HAL_RCCEx_PeriphCLKConfig+0x4e8>
 8004890:	2102      	movs	r1, #2
 8004892:	f105 0008 	add.w	r0, r5, #8
 8004896:	f7ff fcab 	bl	80041f0 <RCCEx_PLL2_Config>
 800489a:	4604      	mov	r4, r0
 800489c:	e7b1      	b.n	8004802 <HAL_RCCEx_PeriphCLKConfig+0x432>
 800489e:	2601      	movs	r6, #1
 80048a0:	4634      	mov	r4, r6
 80048a2:	e7b7      	b.n	8004814 <HAL_RCCEx_PeriphCLKConfig+0x444>
 80048a4:	4626      	mov	r6, r4
 80048a6:	e7b5      	b.n	8004814 <HAL_RCCEx_PeriphCLKConfig+0x444>
 80048a8:	f7fd fa72 	bl	8001d90 <HAL_GetTick>
 80048ac:	eba0 0008 	sub.w	r0, r0, r8
 80048b0:	2864      	cmp	r0, #100	; 0x64
 80048b2:	d9ba      	bls.n	800482a <HAL_RCCEx_PeriphCLKConfig+0x45a>
 80048b4:	2603      	movs	r6, #3
 80048b6:	4634      	mov	r4, r6
 80048b8:	682b      	ldr	r3, [r5, #0]
 80048ba:	07d8      	lsls	r0, r3, #31
 80048bc:	d508      	bpl.n	80048d0 <HAL_RCCEx_PeriphCLKConfig+0x500>
 80048be:	6feb      	ldr	r3, [r5, #124]	; 0x7c
 80048c0:	2b10      	cmp	r3, #16
 80048c2:	d03d      	beq.n	8004940 <HAL_RCCEx_PeriphCLKConfig+0x570>
 80048c4:	d826      	bhi.n	8004914 <HAL_RCCEx_PeriphCLKConfig+0x544>
 80048c6:	b35b      	cbz	r3, 8004920 <HAL_RCCEx_PeriphCLKConfig+0x550>
 80048c8:	2b08      	cmp	r3, #8
 80048ca:	d032      	beq.n	8004932 <HAL_RCCEx_PeriphCLKConfig+0x562>
 80048cc:	2601      	movs	r6, #1
 80048ce:	4634      	mov	r4, r6
 80048d0:	682b      	ldr	r3, [r5, #0]
 80048d2:	0799      	lsls	r1, r3, #30
 80048d4:	d550      	bpl.n	8004978 <HAL_RCCEx_PeriphCLKConfig+0x5a8>
 80048d6:	6fab      	ldr	r3, [r5, #120]	; 0x78
 80048d8:	2b05      	cmp	r3, #5
 80048da:	d863      	bhi.n	80049a4 <HAL_RCCEx_PeriphCLKConfig+0x5d4>
 80048dc:	e8df f003 	tbb	[pc, r3]
 80048e0:	445c3e44 	.word	0x445c3e44
 80048e4:	4444      	.short	0x4444
 80048e6:	f7fd fa53 	bl	8001d90 <HAL_GetTick>
 80048ea:	f8df 8064 	ldr.w	r8, [pc, #100]	; 8004950 <HAL_RCCEx_PeriphCLKConfig+0x580>
 80048ee:	4607      	mov	r7, r0
 80048f0:	f241 3988 	movw	r9, #5000	; 0x1388
 80048f4:	f8d8 3070 	ldr.w	r3, [r8, #112]	; 0x70
 80048f8:	079b      	lsls	r3, r3, #30
 80048fa:	d4b2      	bmi.n	8004862 <HAL_RCCEx_PeriphCLKConfig+0x492>
 80048fc:	f7fd fa48 	bl	8001d90 <HAL_GetTick>
 8004900:	1bc0      	subs	r0, r0, r7
 8004902:	4548      	cmp	r0, r9
 8004904:	d9f6      	bls.n	80048f4 <HAL_RCCEx_PeriphCLKConfig+0x524>
 8004906:	e7d5      	b.n	80048b4 <HAL_RCCEx_PeriphCLKConfig+0x4e4>
 8004908:	690a      	ldr	r2, [r1, #16]
 800490a:	f422 527c 	bic.w	r2, r2, #16128	; 0x3f00
 800490e:	e7b7      	b.n	8004880 <HAL_RCCEx_PeriphCLKConfig+0x4b0>
 8004910:	4626      	mov	r6, r4
 8004912:	e7d1      	b.n	80048b8 <HAL_RCCEx_PeriphCLKConfig+0x4e8>
 8004914:	f023 0208 	bic.w	r2, r3, #8
 8004918:	2a20      	cmp	r2, #32
 800491a:	d001      	beq.n	8004920 <HAL_RCCEx_PeriphCLKConfig+0x550>
 800491c:	2b18      	cmp	r3, #24
 800491e:	d1d5      	bne.n	80048cc <HAL_RCCEx_PeriphCLKConfig+0x4fc>
 8004920:	b9a4      	cbnz	r4, 800494c <HAL_RCCEx_PeriphCLKConfig+0x57c>
 8004922:	4a0b      	ldr	r2, [pc, #44]	; (8004950 <HAL_RCCEx_PeriphCLKConfig+0x580>)
 8004924:	6fe9      	ldr	r1, [r5, #124]	; 0x7c
 8004926:	6d53      	ldr	r3, [r2, #84]	; 0x54
 8004928:	f023 0338 	bic.w	r3, r3, #56	; 0x38
 800492c:	430b      	orrs	r3, r1
 800492e:	6553      	str	r3, [r2, #84]	; 0x54
 8004930:	e7ce      	b.n	80048d0 <HAL_RCCEx_PeriphCLKConfig+0x500>
 8004932:	2101      	movs	r1, #1
 8004934:	f105 0008 	add.w	r0, r5, #8
 8004938:	f7ff fc5a 	bl	80041f0 <RCCEx_PLL2_Config>
 800493c:	4604      	mov	r4, r0
 800493e:	e7ef      	b.n	8004920 <HAL_RCCEx_PeriphCLKConfig+0x550>
 8004940:	2101      	movs	r1, #1
 8004942:	f105 0028 	add.w	r0, r5, #40	; 0x28
 8004946:	f7ff fccb 	bl	80042e0 <RCCEx_PLL3_Config>
 800494a:	e7f7      	b.n	800493c <HAL_RCCEx_PeriphCLKConfig+0x56c>
 800494c:	4626      	mov	r6, r4
 800494e:	e7bf      	b.n	80048d0 <HAL_RCCEx_PeriphCLKConfig+0x500>
 8004950:	58024400 	.word	0x58024400
 8004954:	58024800 	.word	0x58024800
 8004958:	00ffffcf 	.word	0x00ffffcf
 800495c:	2101      	movs	r1, #1
 800495e:	f105 0008 	add.w	r0, r5, #8
 8004962:	f7ff fc45 	bl	80041f0 <RCCEx_PLL2_Config>
 8004966:	4604      	mov	r4, r0
 8004968:	b9fc      	cbnz	r4, 80049aa <HAL_RCCEx_PeriphCLKConfig+0x5da>
 800496a:	4a11      	ldr	r2, [pc, #68]	; (80049b0 <HAL_RCCEx_PeriphCLKConfig+0x5e0>)
 800496c:	6fa9      	ldr	r1, [r5, #120]	; 0x78
 800496e:	6d53      	ldr	r3, [r2, #84]	; 0x54
 8004970:	f023 0307 	bic.w	r3, r3, #7
 8004974:	430b      	orrs	r3, r1
 8004976:	6553      	str	r3, [r2, #84]	; 0x54
 8004978:	682b      	ldr	r3, [r5, #0]
 800497a:	075a      	lsls	r2, r3, #29
 800497c:	d52b      	bpl.n	80049d6 <HAL_RCCEx_PeriphCLKConfig+0x606>
 800497e:	f8d5 3094 	ldr.w	r3, [r5, #148]	; 0x94
 8004982:	2b05      	cmp	r3, #5
 8004984:	f200 817c 	bhi.w	8004c80 <HAL_RCCEx_PeriphCLKConfig+0x8b0>
 8004988:	e8df f013 	tbh	[pc, r3, lsl #1]
 800498c:	0014001a 	.word	0x0014001a
 8004990:	001a0174 	.word	0x001a0174
 8004994:	001a001a 	.word	0x001a001a
 8004998:	2101      	movs	r1, #1
 800499a:	f105 0028 	add.w	r0, r5, #40	; 0x28
 800499e:	f7ff fc9f 	bl	80042e0 <RCCEx_PLL3_Config>
 80049a2:	e7e0      	b.n	8004966 <HAL_RCCEx_PeriphCLKConfig+0x596>
 80049a4:	2601      	movs	r6, #1
 80049a6:	4634      	mov	r4, r6
 80049a8:	e7e6      	b.n	8004978 <HAL_RCCEx_PeriphCLKConfig+0x5a8>
 80049aa:	4626      	mov	r6, r4
 80049ac:	e7e4      	b.n	8004978 <HAL_RCCEx_PeriphCLKConfig+0x5a8>
 80049ae:	bf00      	nop
 80049b0:	58024400 	.word	0x58024400
 80049b4:	2101      	movs	r1, #1
 80049b6:	f105 0008 	add.w	r0, r5, #8
 80049ba:	f7ff fc19 	bl	80041f0 <RCCEx_PLL2_Config>
 80049be:	4604      	mov	r4, r0
 80049c0:	2c00      	cmp	r4, #0
 80049c2:	f040 8160 	bne.w	8004c86 <HAL_RCCEx_PeriphCLKConfig+0x8b6>
 80049c6:	4aaa      	ldr	r2, [pc, #680]	; (8004c70 <HAL_RCCEx_PeriphCLKConfig+0x8a0>)
 80049c8:	f8d5 1094 	ldr.w	r1, [r5, #148]	; 0x94
 80049cc:	6d93      	ldr	r3, [r2, #88]	; 0x58
 80049ce:	f023 0307 	bic.w	r3, r3, #7
 80049d2:	430b      	orrs	r3, r1
 80049d4:	6593      	str	r3, [r2, #88]	; 0x58
 80049d6:	682b      	ldr	r3, [r5, #0]
 80049d8:	069b      	lsls	r3, r3, #26
 80049da:	d510      	bpl.n	80049fe <HAL_RCCEx_PeriphCLKConfig+0x62e>
 80049dc:	f8d5 3090 	ldr.w	r3, [r5, #144]	; 0x90
 80049e0:	f1b3 5f00 	cmp.w	r3, #536870912	; 0x20000000
 80049e4:	f000 816b 	beq.w	8004cbe <HAL_RCCEx_PeriphCLKConfig+0x8ee>
 80049e8:	f200 814f 	bhi.w	8004c8a <HAL_RCCEx_PeriphCLKConfig+0x8ba>
 80049ec:	2b00      	cmp	r3, #0
 80049ee:	f000 8155 	beq.w	8004c9c <HAL_RCCEx_PeriphCLKConfig+0x8cc>
 80049f2:	f1b3 5f80 	cmp.w	r3, #268435456	; 0x10000000
 80049f6:	f000 815b 	beq.w	8004cb0 <HAL_RCCEx_PeriphCLKConfig+0x8e0>
 80049fa:	2601      	movs	r6, #1
 80049fc:	4634      	mov	r4, r6
 80049fe:	682b      	ldr	r3, [r5, #0]
 8004a00:	065f      	lsls	r7, r3, #25
 8004a02:	d510      	bpl.n	8004a26 <HAL_RCCEx_PeriphCLKConfig+0x656>
 8004a04:	f8d5 309c 	ldr.w	r3, [r5, #156]	; 0x9c
 8004a08:	f5b3 6f00 	cmp.w	r3, #2048	; 0x800
 8004a0c:	f000 8179 	beq.w	8004d02 <HAL_RCCEx_PeriphCLKConfig+0x932>
 8004a10:	f200 815d 	bhi.w	8004cce <HAL_RCCEx_PeriphCLKConfig+0x8fe>
 8004a14:	2b00      	cmp	r3, #0
 8004a16:	f000 8163 	beq.w	8004ce0 <HAL_RCCEx_PeriphCLKConfig+0x910>
 8004a1a:	f5b3 6f80 	cmp.w	r3, #1024	; 0x400
 8004a1e:	f000 8169 	beq.w	8004cf4 <HAL_RCCEx_PeriphCLKConfig+0x924>
 8004a22:	2601      	movs	r6, #1
 8004a24:	4634      	mov	r4, r6
 8004a26:	682b      	ldr	r3, [r5, #0]
 8004a28:	0618      	lsls	r0, r3, #24
 8004a2a:	d510      	bpl.n	8004a4e <HAL_RCCEx_PeriphCLKConfig+0x67e>
 8004a2c:	f8d5 30a0 	ldr.w	r3, [r5, #160]	; 0xa0
 8004a30:	f5b3 4f80 	cmp.w	r3, #16384	; 0x4000
 8004a34:	f000 8187 	beq.w	8004d46 <HAL_RCCEx_PeriphCLKConfig+0x976>
 8004a38:	f200 816b 	bhi.w	8004d12 <HAL_RCCEx_PeriphCLKConfig+0x942>
 8004a3c:	2b00      	cmp	r3, #0
 8004a3e:	f000 8171 	beq.w	8004d24 <HAL_RCCEx_PeriphCLKConfig+0x954>
 8004a42:	f5b3 5f00 	cmp.w	r3, #8192	; 0x2000
 8004a46:	f000 8177 	beq.w	8004d38 <HAL_RCCEx_PeriphCLKConfig+0x968>
 8004a4a:	2601      	movs	r6, #1
 8004a4c:	4634      	mov	r4, r6
 8004a4e:	682b      	ldr	r3, [r5, #0]
 8004a50:	0719      	lsls	r1, r3, #28
 8004a52:	d514      	bpl.n	8004a7e <HAL_RCCEx_PeriphCLKConfig+0x6ae>
 8004a54:	f8d5 3084 	ldr.w	r3, [r5, #132]	; 0x84
 8004a58:	f5b3 5f80 	cmp.w	r3, #4096	; 0x1000
 8004a5c:	d107      	bne.n	8004a6e <HAL_RCCEx_PeriphCLKConfig+0x69e>
 8004a5e:	2102      	movs	r1, #2
 8004a60:	f105 0028 	add.w	r0, r5, #40	; 0x28
 8004a64:	f7ff fc3c 	bl	80042e0 <RCCEx_PLL3_Config>
 8004a68:	2800      	cmp	r0, #0
 8004a6a:	bf18      	it	ne
 8004a6c:	2601      	movne	r6, #1
 8004a6e:	4a80      	ldr	r2, [pc, #512]	; (8004c70 <HAL_RCCEx_PeriphCLKConfig+0x8a0>)
 8004a70:	f8d5 1084 	ldr.w	r1, [r5, #132]	; 0x84
 8004a74:	6d53      	ldr	r3, [r2, #84]	; 0x54
 8004a76:	f423 5340 	bic.w	r3, r3, #12288	; 0x3000
 8004a7a:	430b      	orrs	r3, r1
 8004a7c:	6553      	str	r3, [r2, #84]	; 0x54
 8004a7e:	682b      	ldr	r3, [r5, #0]
 8004a80:	06da      	lsls	r2, r3, #27
 8004a82:	d514      	bpl.n	8004aae <HAL_RCCEx_PeriphCLKConfig+0x6de>
 8004a84:	f8d5 3098 	ldr.w	r3, [r5, #152]	; 0x98
 8004a88:	f5b3 7f80 	cmp.w	r3, #256	; 0x100
 8004a8c:	d107      	bne.n	8004a9e <HAL_RCCEx_PeriphCLKConfig+0x6ce>
 8004a8e:	2102      	movs	r1, #2
 8004a90:	f105 0028 	add.w	r0, r5, #40	; 0x28
 8004a94:	f7ff fc24 	bl	80042e0 <RCCEx_PLL3_Config>
 8004a98:	2800      	cmp	r0, #0
 8004a9a:	bf18      	it	ne
 8004a9c:	2601      	movne	r6, #1
 8004a9e:	4a74      	ldr	r2, [pc, #464]	; (8004c70 <HAL_RCCEx_PeriphCLKConfig+0x8a0>)
 8004aa0:	f8d5 1098 	ldr.w	r1, [r5, #152]	; 0x98
 8004aa4:	6d93      	ldr	r3, [r2, #88]	; 0x58
 8004aa6:	f423 7340 	bic.w	r3, r3, #768	; 0x300
 8004aaa:	430b      	orrs	r3, r1
 8004aac:	6593      	str	r3, [r2, #88]	; 0x58
 8004aae:	682b      	ldr	r3, [r5, #0]
 8004ab0:	031b      	lsls	r3, r3, #12
 8004ab2:	d51b      	bpl.n	8004aec <HAL_RCCEx_PeriphCLKConfig+0x71c>
 8004ab4:	f8d5 10a4 	ldr.w	r1, [r5, #164]	; 0xa4
 8004ab8:	f5b1 3f80 	cmp.w	r1, #65536	; 0x10000
 8004abc:	f000 814b 	beq.w	8004d56 <HAL_RCCEx_PeriphCLKConfig+0x986>
 8004ac0:	f5b1 3f00 	cmp.w	r1, #131072	; 0x20000
 8004ac4:	d007      	beq.n	8004ad6 <HAL_RCCEx_PeriphCLKConfig+0x706>
 8004ac6:	2900      	cmp	r1, #0
 8004ac8:	f040 814b 	bne.w	8004d62 <HAL_RCCEx_PeriphCLKConfig+0x992>
 8004acc:	f105 0008 	add.w	r0, r5, #8
 8004ad0:	f7ff fb8e 	bl	80041f0 <RCCEx_PLL2_Config>
 8004ad4:	4604      	mov	r4, r0
 8004ad6:	2c00      	cmp	r4, #0
 8004ad8:	f040 8146 	bne.w	8004d68 <HAL_RCCEx_PeriphCLKConfig+0x998>
 8004adc:	4a64      	ldr	r2, [pc, #400]	; (8004c70 <HAL_RCCEx_PeriphCLKConfig+0x8a0>)
 8004ade:	f8d5 10a4 	ldr.w	r1, [r5, #164]	; 0xa4
 8004ae2:	6d93      	ldr	r3, [r2, #88]	; 0x58
 8004ae4:	f423 3340 	bic.w	r3, r3, #196608	; 0x30000
 8004ae8:	430b      	orrs	r3, r1
 8004aea:	6593      	str	r3, [r2, #88]	; 0x58
 8004aec:	682b      	ldr	r3, [r5, #0]
 8004aee:	035f      	lsls	r7, r3, #13
 8004af0:	d51c      	bpl.n	8004b2c <HAL_RCCEx_PeriphCLKConfig+0x75c>
 8004af2:	f8d5 3088 	ldr.w	r3, [r5, #136]	; 0x88
 8004af6:	f5b3 1f00 	cmp.w	r3, #2097152	; 0x200000
 8004afa:	f000 8137 	beq.w	8004d6c <HAL_RCCEx_PeriphCLKConfig+0x99c>
 8004afe:	f5b3 1f40 	cmp.w	r3, #3145728	; 0x300000
 8004b02:	d008      	beq.n	8004b16 <HAL_RCCEx_PeriphCLKConfig+0x746>
 8004b04:	f5b3 1f80 	cmp.w	r3, #1048576	; 0x100000
 8004b08:	f040 8137 	bne.w	8004d7a <HAL_RCCEx_PeriphCLKConfig+0x9aa>
 8004b0c:	4a58      	ldr	r2, [pc, #352]	; (8004c70 <HAL_RCCEx_PeriphCLKConfig+0x8a0>)
 8004b0e:	6ad3      	ldr	r3, [r2, #44]	; 0x2c
 8004b10:	f443 3300 	orr.w	r3, r3, #131072	; 0x20000
 8004b14:	62d3      	str	r3, [r2, #44]	; 0x2c
 8004b16:	2c00      	cmp	r4, #0
 8004b18:	f040 8132 	bne.w	8004d80 <HAL_RCCEx_PeriphCLKConfig+0x9b0>
 8004b1c:	4a54      	ldr	r2, [pc, #336]	; (8004c70 <HAL_RCCEx_PeriphCLKConfig+0x8a0>)
 8004b1e:	f8d5 1088 	ldr.w	r1, [r5, #136]	; 0x88
 8004b22:	6d53      	ldr	r3, [r2, #84]	; 0x54
 8004b24:	f423 1340 	bic.w	r3, r3, #3145728	; 0x300000
 8004b28:	430b      	orrs	r3, r1
 8004b2a:	6553      	str	r3, [r2, #84]	; 0x54
 8004b2c:	682b      	ldr	r3, [r5, #0]
 8004b2e:	03d8      	lsls	r0, r3, #15
 8004b30:	d509      	bpl.n	8004b46 <HAL_RCCEx_PeriphCLKConfig+0x776>
 8004b32:	6d2b      	ldr	r3, [r5, #80]	; 0x50
 8004b34:	2b00      	cmp	r3, #0
 8004b36:	f000 8125 	beq.w	8004d84 <HAL_RCCEx_PeriphCLKConfig+0x9b4>
 8004b3a:	f5b3 3f80 	cmp.w	r3, #65536	; 0x10000
 8004b3e:	f000 812f 	beq.w	8004da0 <HAL_RCCEx_PeriphCLKConfig+0x9d0>
 8004b42:	2601      	movs	r6, #1
 8004b44:	4634      	mov	r4, r6
 8004b46:	682b      	ldr	r3, [r5, #0]
 8004b48:	0099      	lsls	r1, r3, #2
 8004b4a:	d507      	bpl.n	8004b5c <HAL_RCCEx_PeriphCLKConfig+0x78c>
 8004b4c:	2102      	movs	r1, #2
 8004b4e:	f105 0028 	add.w	r0, r5, #40	; 0x28
 8004b52:	f7ff fbc5 	bl	80042e0 <RCCEx_PLL3_Config>
 8004b56:	2800      	cmp	r0, #0
 8004b58:	bf18      	it	ne
 8004b5a:	2601      	movne	r6, #1
 8004b5c:	e9d5 3100 	ldrd	r3, r1, [r5]
 8004b60:	039a      	lsls	r2, r3, #14
 8004b62:	d50b      	bpl.n	8004b7c <HAL_RCCEx_PeriphCLKConfig+0x7ac>
 8004b64:	f8d5 0080 	ldr.w	r0, [r5, #128]	; 0x80
 8004b68:	f5b0 7f80 	cmp.w	r0, #256	; 0x100
 8004b6c:	f000 812f 	beq.w	8004dce <HAL_RCCEx_PeriphCLKConfig+0x9fe>
 8004b70:	f200 811f 	bhi.w	8004db2 <HAL_RCCEx_PeriphCLKConfig+0x9e2>
 8004b74:	2800      	cmp	r0, #0
 8004b76:	f000 8122 	beq.w	8004dbe <HAL_RCCEx_PeriphCLKConfig+0x9ee>
 8004b7a:	2601      	movs	r6, #1
 8004b7c:	02df      	lsls	r7, r3, #11
 8004b7e:	d506      	bpl.n	8004b8e <HAL_RCCEx_PeriphCLKConfig+0x7be>
 8004b80:	483b      	ldr	r0, [pc, #236]	; (8004c70 <HAL_RCCEx_PeriphCLKConfig+0x8a0>)
 8004b82:	6f6c      	ldr	r4, [r5, #116]	; 0x74
 8004b84:	6d02      	ldr	r2, [r0, #80]	; 0x50
 8004b86:	f022 4200 	bic.w	r2, r2, #2147483648	; 0x80000000
 8004b8a:	4322      	orrs	r2, r4
 8004b8c:	6502      	str	r2, [r0, #80]	; 0x50
 8004b8e:	00dc      	lsls	r4, r3, #3
 8004b90:	d507      	bpl.n	8004ba2 <HAL_RCCEx_PeriphCLKConfig+0x7d2>
 8004b92:	4837      	ldr	r0, [pc, #220]	; (8004c70 <HAL_RCCEx_PeriphCLKConfig+0x8a0>)
 8004b94:	f8d5 40b8 	ldr.w	r4, [r5, #184]	; 0xb8
 8004b98:	6902      	ldr	r2, [r0, #16]
 8004b9a:	f422 4280 	bic.w	r2, r2, #16384	; 0x4000
 8004b9e:	4322      	orrs	r2, r4
 8004ba0:	6102      	str	r2, [r0, #16]
 8004ba2:	0298      	lsls	r0, r3, #10
 8004ba4:	d506      	bpl.n	8004bb4 <HAL_RCCEx_PeriphCLKConfig+0x7e4>
 8004ba6:	4832      	ldr	r0, [pc, #200]	; (8004c70 <HAL_RCCEx_PeriphCLKConfig+0x8a0>)
 8004ba8:	6eec      	ldr	r4, [r5, #108]	; 0x6c
 8004baa:	6d02      	ldr	r2, [r0, #80]	; 0x50
 8004bac:	f022 7280 	bic.w	r2, r2, #16777216	; 0x1000000
 8004bb0:	4322      	orrs	r2, r4
 8004bb2:	6502      	str	r2, [r0, #80]	; 0x50
 8004bb4:	005a      	lsls	r2, r3, #1
 8004bb6:	d509      	bpl.n	8004bcc <HAL_RCCEx_PeriphCLKConfig+0x7fc>
 8004bb8:	4a2d      	ldr	r2, [pc, #180]	; (8004c70 <HAL_RCCEx_PeriphCLKConfig+0x8a0>)
 8004bba:	6910      	ldr	r0, [r2, #16]
 8004bbc:	f420 4000 	bic.w	r0, r0, #32768	; 0x8000
 8004bc0:	6110      	str	r0, [r2, #16]
 8004bc2:	6910      	ldr	r0, [r2, #16]
 8004bc4:	f8d5 40bc 	ldr.w	r4, [r5, #188]	; 0xbc
 8004bc8:	4320      	orrs	r0, r4
 8004bca:	6110      	str	r0, [r2, #16]
 8004bcc:	2b00      	cmp	r3, #0
 8004bce:	da06      	bge.n	8004bde <HAL_RCCEx_PeriphCLKConfig+0x80e>
 8004bd0:	4827      	ldr	r0, [pc, #156]	; (8004c70 <HAL_RCCEx_PeriphCLKConfig+0x8a0>)
 8004bd2:	6d6c      	ldr	r4, [r5, #84]	; 0x54
 8004bd4:	6cc2      	ldr	r2, [r0, #76]	; 0x4c
 8004bd6:	f022 5240 	bic.w	r2, r2, #805306368	; 0x30000000
 8004bda:	4322      	orrs	r2, r4
 8004bdc:	64c2      	str	r2, [r0, #76]	; 0x4c
 8004bde:	021b      	lsls	r3, r3, #8
 8004be0:	d507      	bpl.n	8004bf2 <HAL_RCCEx_PeriphCLKConfig+0x822>
 8004be2:	4a23      	ldr	r2, [pc, #140]	; (8004c70 <HAL_RCCEx_PeriphCLKConfig+0x8a0>)
 8004be4:	f8d5 008c 	ldr.w	r0, [r5, #140]	; 0x8c
 8004be8:	6d53      	ldr	r3, [r2, #84]	; 0x54
 8004bea:	f423 0340 	bic.w	r3, r3, #12582912	; 0xc00000
 8004bee:	4303      	orrs	r3, r0
 8004bf0:	6553      	str	r3, [r2, #84]	; 0x54
 8004bf2:	07cf      	lsls	r7, r1, #31
 8004bf4:	d507      	bpl.n	8004c06 <HAL_RCCEx_PeriphCLKConfig+0x836>
 8004bf6:	2100      	movs	r1, #0
 8004bf8:	f105 0008 	add.w	r0, r5, #8
 8004bfc:	f7ff faf8 	bl	80041f0 <RCCEx_PLL2_Config>
 8004c00:	2800      	cmp	r0, #0
 8004c02:	bf18      	it	ne
 8004c04:	4606      	movne	r6, r0
 8004c06:	686b      	ldr	r3, [r5, #4]
 8004c08:	079c      	lsls	r4, r3, #30
 8004c0a:	d507      	bpl.n	8004c1c <HAL_RCCEx_PeriphCLKConfig+0x84c>
 8004c0c:	2101      	movs	r1, #1
 8004c0e:	f105 0008 	add.w	r0, r5, #8
 8004c12:	f7ff faed 	bl	80041f0 <RCCEx_PLL2_Config>
 8004c16:	2800      	cmp	r0, #0
 8004c18:	bf18      	it	ne
 8004c1a:	4606      	movne	r6, r0
 8004c1c:	686b      	ldr	r3, [r5, #4]
 8004c1e:	0758      	lsls	r0, r3, #29
 8004c20:	d507      	bpl.n	8004c32 <HAL_RCCEx_PeriphCLKConfig+0x862>
 8004c22:	2102      	movs	r1, #2
 8004c24:	f105 0008 	add.w	r0, r5, #8
 8004c28:	f7ff fae2 	bl	80041f0 <RCCEx_PLL2_Config>
 8004c2c:	2800      	cmp	r0, #0
 8004c2e:	bf18      	it	ne
 8004c30:	4606      	movne	r6, r0
 8004c32:	686b      	ldr	r3, [r5, #4]
 8004c34:	0719      	lsls	r1, r3, #28
 8004c36:	d507      	bpl.n	8004c48 <HAL_RCCEx_PeriphCLKConfig+0x878>
 8004c38:	2100      	movs	r1, #0
 8004c3a:	f105 0028 	add.w	r0, r5, #40	; 0x28
 8004c3e:	f7ff fb4f 	bl	80042e0 <RCCEx_PLL3_Config>
 8004c42:	2800      	cmp	r0, #0
 8004c44:	bf18      	it	ne
 8004c46:	4606      	movne	r6, r0
 8004c48:	686b      	ldr	r3, [r5, #4]
 8004c4a:	06da      	lsls	r2, r3, #27
 8004c4c:	d507      	bpl.n	8004c5e <HAL_RCCEx_PeriphCLKConfig+0x88e>
 8004c4e:	2101      	movs	r1, #1
 8004c50:	f105 0028 	add.w	r0, r5, #40	; 0x28
 8004c54:	f7ff fb44 	bl	80042e0 <RCCEx_PLL3_Config>
 8004c58:	2800      	cmp	r0, #0
 8004c5a:	bf18      	it	ne
 8004c5c:	4606      	movne	r6, r0
 8004c5e:	686b      	ldr	r3, [r5, #4]
 8004c60:	069b      	lsls	r3, r3, #26
 8004c62:	f100 80bc 	bmi.w	8004dde <HAL_RCCEx_PeriphCLKConfig+0xa0e>
 8004c66:	1e30      	subs	r0, r6, #0
 8004c68:	bf18      	it	ne
 8004c6a:	2001      	movne	r0, #1
 8004c6c:	e8bd 83f8 	ldmia.w	sp!, {r3, r4, r5, r6, r7, r8, r9, pc}
 8004c70:	58024400 	.word	0x58024400
 8004c74:	2101      	movs	r1, #1
 8004c76:	f105 0028 	add.w	r0, r5, #40	; 0x28
 8004c7a:	f7ff fb31 	bl	80042e0 <RCCEx_PLL3_Config>
 8004c7e:	e69e      	b.n	80049be <HAL_RCCEx_PeriphCLKConfig+0x5ee>
 8004c80:	2601      	movs	r6, #1
 8004c82:	4634      	mov	r4, r6
 8004c84:	e6a7      	b.n	80049d6 <HAL_RCCEx_PeriphCLKConfig+0x606>
 8004c86:	4626      	mov	r6, r4
 8004c88:	e6a5      	b.n	80049d6 <HAL_RCCEx_PeriphCLKConfig+0x606>
 8004c8a:	f023 5280 	bic.w	r2, r3, #268435456	; 0x10000000
 8004c8e:	f1b2 4f80 	cmp.w	r2, #1073741824	; 0x40000000
 8004c92:	d003      	beq.n	8004c9c <HAL_RCCEx_PeriphCLKConfig+0x8cc>
 8004c94:	f1b3 5f40 	cmp.w	r3, #805306368	; 0x30000000
 8004c98:	f47f aeaf 	bne.w	80049fa <HAL_RCCEx_PeriphCLKConfig+0x62a>
 8004c9c:	b9ac      	cbnz	r4, 8004cca <HAL_RCCEx_PeriphCLKConfig+0x8fa>
 8004c9e:	4a55      	ldr	r2, [pc, #340]	; (8004df4 <HAL_RCCEx_PeriphCLKConfig+0xa24>)
 8004ca0:	f8d5 1090 	ldr.w	r1, [r5, #144]	; 0x90
 8004ca4:	6d53      	ldr	r3, [r2, #84]	; 0x54
 8004ca6:	f023 43e0 	bic.w	r3, r3, #1879048192	; 0x70000000
 8004caa:	430b      	orrs	r3, r1
 8004cac:	6553      	str	r3, [r2, #84]	; 0x54
 8004cae:	e6a6      	b.n	80049fe <HAL_RCCEx_PeriphCLKConfig+0x62e>
 8004cb0:	2100      	movs	r1, #0
 8004cb2:	f105 0008 	add.w	r0, r5, #8
 8004cb6:	f7ff fa9b 	bl	80041f0 <RCCEx_PLL2_Config>
 8004cba:	4604      	mov	r4, r0
 8004cbc:	e7ee      	b.n	8004c9c <HAL_RCCEx_PeriphCLKConfig+0x8cc>
 8004cbe:	2102      	movs	r1, #2
 8004cc0:	f105 0028 	add.w	r0, r5, #40	; 0x28
 8004cc4:	f7ff fb0c 	bl	80042e0 <RCCEx_PLL3_Config>
 8004cc8:	e7f7      	b.n	8004cba <HAL_RCCEx_PeriphCLKConfig+0x8ea>
 8004cca:	4626      	mov	r6, r4
 8004ccc:	e697      	b.n	80049fe <HAL_RCCEx_PeriphCLKConfig+0x62e>
 8004cce:	f423 6280 	bic.w	r2, r3, #1024	; 0x400
 8004cd2:	f5b2 5f80 	cmp.w	r2, #4096	; 0x1000
 8004cd6:	d003      	beq.n	8004ce0 <HAL_RCCEx_PeriphCLKConfig+0x910>
 8004cd8:	f5b3 6f40 	cmp.w	r3, #3072	; 0xc00
 8004cdc:	f47f aea1 	bne.w	8004a22 <HAL_RCCEx_PeriphCLKConfig+0x652>
 8004ce0:	b9ac      	cbnz	r4, 8004d0e <HAL_RCCEx_PeriphCLKConfig+0x93e>
 8004ce2:	4a44      	ldr	r2, [pc, #272]	; (8004df4 <HAL_RCCEx_PeriphCLKConfig+0xa24>)
 8004ce4:	f8d5 109c 	ldr.w	r1, [r5, #156]	; 0x9c
 8004ce8:	6d93      	ldr	r3, [r2, #88]	; 0x58
 8004cea:	f423 53e0 	bic.w	r3, r3, #7168	; 0x1c00
 8004cee:	430b      	orrs	r3, r1
 8004cf0:	6593      	str	r3, [r2, #88]	; 0x58
 8004cf2:	e698      	b.n	8004a26 <HAL_RCCEx_PeriphCLKConfig+0x656>
 8004cf4:	2100      	movs	r1, #0
 8004cf6:	f105 0008 	add.w	r0, r5, #8
 8004cfa:	f7ff fa79 	bl	80041f0 <RCCEx_PLL2_Config>
 8004cfe:	4604      	mov	r4, r0
 8004d00:	e7ee      	b.n	8004ce0 <HAL_RCCEx_PeriphCLKConfig+0x910>
 8004d02:	2102      	movs	r1, #2
 8004d04:	f105 0028 	add.w	r0, r5, #40	; 0x28
 8004d08:	f7ff faea 	bl	80042e0 <RCCEx_PLL3_Config>
 8004d0c:	e7f7      	b.n	8004cfe <HAL_RCCEx_PeriphCLKConfig+0x92e>
 8004d0e:	4626      	mov	r6, r4
 8004d10:	e689      	b.n	8004a26 <HAL_RCCEx_PeriphCLKConfig+0x656>
 8004d12:	f423 5200 	bic.w	r2, r3, #8192	; 0x2000
 8004d16:	f5b2 4f00 	cmp.w	r2, #32768	; 0x8000
 8004d1a:	d003      	beq.n	8004d24 <HAL_RCCEx_PeriphCLKConfig+0x954>
 8004d1c:	f5b3 4fc0 	cmp.w	r3, #24576	; 0x6000
 8004d20:	f47f ae93 	bne.w	8004a4a <HAL_RCCEx_PeriphCLKConfig+0x67a>
 8004d24:	b9ac      	cbnz	r4, 8004d52 <HAL_RCCEx_PeriphCLKConfig+0x982>
 8004d26:	4a33      	ldr	r2, [pc, #204]	; (8004df4 <HAL_RCCEx_PeriphCLKConfig+0xa24>)
 8004d28:	f8d5 10a0 	ldr.w	r1, [r5, #160]	; 0xa0
 8004d2c:	6d93      	ldr	r3, [r2, #88]	; 0x58
 8004d2e:	f423 4360 	bic.w	r3, r3, #57344	; 0xe000
 8004d32:	430b      	orrs	r3, r1
 8004d34:	6593      	str	r3, [r2, #88]	; 0x58
 8004d36:	e68a      	b.n	8004a4e <HAL_RCCEx_PeriphCLKConfig+0x67e>
 8004d38:	2100      	movs	r1, #0
 8004d3a:	f105 0008 	add.w	r0, r5, #8
 8004d3e:	f7ff fa57 	bl	80041f0 <RCCEx_PLL2_Config>
 8004d42:	4604      	mov	r4, r0
 8004d44:	e7ee      	b.n	8004d24 <HAL_RCCEx_PeriphCLKConfig+0x954>
 8004d46:	2102      	movs	r1, #2
 8004d48:	f105 0028 	add.w	r0, r5, #40	; 0x28
 8004d4c:	f7ff fac8 	bl	80042e0 <RCCEx_PLL3_Config>
 8004d50:	e7f7      	b.n	8004d42 <HAL_RCCEx_PeriphCLKConfig+0x972>
 8004d52:	4626      	mov	r6, r4
 8004d54:	e67b      	b.n	8004a4e <HAL_RCCEx_PeriphCLKConfig+0x67e>
 8004d56:	2102      	movs	r1, #2
 8004d58:	f105 0028 	add.w	r0, r5, #40	; 0x28
 8004d5c:	f7ff fac0 	bl	80042e0 <RCCEx_PLL3_Config>
 8004d60:	e6b8      	b.n	8004ad4 <HAL_RCCEx_PeriphCLKConfig+0x704>
 8004d62:	2601      	movs	r6, #1
 8004d64:	4634      	mov	r4, r6
 8004d66:	e6c1      	b.n	8004aec <HAL_RCCEx_PeriphCLKConfig+0x71c>
 8004d68:	4626      	mov	r6, r4
 8004d6a:	e6bf      	b.n	8004aec <HAL_RCCEx_PeriphCLKConfig+0x71c>
 8004d6c:	2101      	movs	r1, #1
 8004d6e:	f105 0028 	add.w	r0, r5, #40	; 0x28
 8004d72:	f7ff fab5 	bl	80042e0 <RCCEx_PLL3_Config>
 8004d76:	4604      	mov	r4, r0
 8004d78:	e6cd      	b.n	8004b16 <HAL_RCCEx_PeriphCLKConfig+0x746>
 8004d7a:	2601      	movs	r6, #1
 8004d7c:	4634      	mov	r4, r6
 8004d7e:	e6d5      	b.n	8004b2c <HAL_RCCEx_PeriphCLKConfig+0x75c>
 8004d80:	4626      	mov	r6, r4
 8004d82:	e6d3      	b.n	8004b2c <HAL_RCCEx_PeriphCLKConfig+0x75c>
 8004d84:	4a1b      	ldr	r2, [pc, #108]	; (8004df4 <HAL_RCCEx_PeriphCLKConfig+0xa24>)
 8004d86:	6ad3      	ldr	r3, [r2, #44]	; 0x2c
 8004d88:	f443 3300 	orr.w	r3, r3, #131072	; 0x20000
 8004d8c:	62d3      	str	r3, [r2, #44]	; 0x2c
 8004d8e:	b974      	cbnz	r4, 8004dae <HAL_RCCEx_PeriphCLKConfig+0x9de>
 8004d90:	4a18      	ldr	r2, [pc, #96]	; (8004df4 <HAL_RCCEx_PeriphCLKConfig+0xa24>)
 8004d92:	6d29      	ldr	r1, [r5, #80]	; 0x50
 8004d94:	6cd3      	ldr	r3, [r2, #76]	; 0x4c
 8004d96:	f423 3380 	bic.w	r3, r3, #65536	; 0x10000
 8004d9a:	430b      	orrs	r3, r1
 8004d9c:	64d3      	str	r3, [r2, #76]	; 0x4c
 8004d9e:	e6d2      	b.n	8004b46 <HAL_RCCEx_PeriphCLKConfig+0x776>
 8004da0:	2102      	movs	r1, #2
 8004da2:	f105 0008 	add.w	r0, r5, #8
 8004da6:	f7ff fa23 	bl	80041f0 <RCCEx_PLL2_Config>
 8004daa:	4604      	mov	r4, r0
 8004dac:	e7ef      	b.n	8004d8e <HAL_RCCEx_PeriphCLKConfig+0x9be>
 8004dae:	4626      	mov	r6, r4
 8004db0:	e6c9      	b.n	8004b46 <HAL_RCCEx_PeriphCLKConfig+0x776>
 8004db2:	f420 7280 	bic.w	r2, r0, #256	; 0x100
 8004db6:	f5b2 7f00 	cmp.w	r2, #512	; 0x200
 8004dba:	f47f aede 	bne.w	8004b7a <HAL_RCCEx_PeriphCLKConfig+0x7aa>
 8004dbe:	b964      	cbnz	r4, 8004dda <HAL_RCCEx_PeriphCLKConfig+0xa0a>
 8004dc0:	4c0c      	ldr	r4, [pc, #48]	; (8004df4 <HAL_RCCEx_PeriphCLKConfig+0xa24>)
 8004dc2:	6d62      	ldr	r2, [r4, #84]	; 0x54
 8004dc4:	f422 7240 	bic.w	r2, r2, #768	; 0x300
 8004dc8:	4302      	orrs	r2, r0
 8004dca:	6562      	str	r2, [r4, #84]	; 0x54
 8004dcc:	e6d6      	b.n	8004b7c <HAL_RCCEx_PeriphCLKConfig+0x7ac>
 8004dce:	4f09      	ldr	r7, [pc, #36]	; (8004df4 <HAL_RCCEx_PeriphCLKConfig+0xa24>)
 8004dd0:	6afa      	ldr	r2, [r7, #44]	; 0x2c
 8004dd2:	f442 3200 	orr.w	r2, r2, #131072	; 0x20000
 8004dd6:	62fa      	str	r2, [r7, #44]	; 0x2c
 8004dd8:	e7f1      	b.n	8004dbe <HAL_RCCEx_PeriphCLKConfig+0x9ee>
 8004dda:	4626      	mov	r6, r4
 8004ddc:	e6ce      	b.n	8004b7c <HAL_RCCEx_PeriphCLKConfig+0x7ac>
 8004dde:	2102      	movs	r1, #2
 8004de0:	f105 0028 	add.w	r0, r5, #40	; 0x28
 8004de4:	f7ff fa7c 	bl	80042e0 <RCCEx_PLL3_Config>
 8004de8:	2800      	cmp	r0, #0
 8004dea:	f43f af3c 	beq.w	8004c66 <HAL_RCCEx_PeriphCLKConfig+0x896>
 8004dee:	2001      	movs	r0, #1
 8004df0:	e73c      	b.n	8004c6c <HAL_RCCEx_PeriphCLKConfig+0x89c>
 8004df2:	bf00      	nop
 8004df4:	58024400 	.word	0x58024400

08004df8 <HAL_RCCEx_GetD3PCLK1Freq>:
 8004df8:	b508      	push	{r3, lr}
 8004dfa:	f7ff f9b3 	bl	8004164 <HAL_RCC_GetHCLKFreq>
 8004dfe:	4b05      	ldr	r3, [pc, #20]	; (8004e14 <HAL_RCCEx_GetD3PCLK1Freq+0x1c>)
 8004e00:	4a05      	ldr	r2, [pc, #20]	; (8004e18 <HAL_RCCEx_GetD3PCLK1Freq+0x20>)
 8004e02:	6a1b      	ldr	r3, [r3, #32]
 8004e04:	f3c3 1302 	ubfx	r3, r3, #4, #3
 8004e08:	5cd3      	ldrb	r3, [r2, r3]
 8004e0a:	f003 031f 	and.w	r3, r3, #31
 8004e0e:	40d8      	lsrs	r0, r3
 8004e10:	bd08      	pop	{r3, pc}
 8004e12:	bf00      	nop
 8004e14:	58024400 	.word	0x58024400
 8004e18:	080068e2 	.word	0x080068e2

08004e1c <HAL_RCCEx_GetPLL2ClockFreq>:
 8004e1c:	494f      	ldr	r1, [pc, #316]	; (8004f5c <HAL_RCCEx_GetPLL2ClockFreq+0x140>)
 8004e1e:	b570      	push	{r4, r5, r6, lr}
 8004e20:	6a8c      	ldr	r4, [r1, #40]	; 0x28
 8004e22:	6a8e      	ldr	r6, [r1, #40]	; 0x28
 8004e24:	6acd      	ldr	r5, [r1, #44]	; 0x2c
 8004e26:	f416 3f7c 	tst.w	r6, #258048	; 0x3f000
 8004e2a:	f3c6 3305 	ubfx	r3, r6, #12, #6
 8004e2e:	6bca      	ldr	r2, [r1, #60]	; 0x3c
 8004e30:	f000 8090 	beq.w	8004f54 <HAL_RCCEx_GetPLL2ClockFreq+0x138>
 8004e34:	ee07 3a90 	vmov	s15, r3
 8004e38:	f3c2 03cc 	ubfx	r3, r2, #3, #13
 8004e3c:	f3c5 1200 	ubfx	r2, r5, #4, #1
 8004e40:	f004 0403 	and.w	r4, r4, #3
 8004e44:	eeb8 7ae7 	vcvt.f32.s32	s14, s15
 8004e48:	4353      	muls	r3, r2
 8004e4a:	2c01      	cmp	r4, #1
 8004e4c:	eeb7 6a00 	vmov.f32	s12, #112	; 0x3f800000  1.0
 8004e50:	ee06 3a90 	vmov	s13, r3
 8004e54:	eefa 6ae9 	vcvt.f32.s32	s13, s13, #13
 8004e58:	d06e      	beq.n	8004f38 <HAL_RCCEx_GetPLL2ClockFreq+0x11c>
 8004e5a:	2c02      	cmp	r4, #2
 8004e5c:	d05e      	beq.n	8004f1c <HAL_RCCEx_GetPLL2ClockFreq+0x100>
 8004e5e:	2c00      	cmp	r4, #0
 8004e60:	d16a      	bne.n	8004f38 <HAL_RCCEx_GetPLL2ClockFreq+0x11c>
 8004e62:	680b      	ldr	r3, [r1, #0]
 8004e64:	069b      	lsls	r3, r3, #26
 8004e66:	d547      	bpl.n	8004ef8 <HAL_RCCEx_GetPLL2ClockFreq+0xdc>
 8004e68:	680a      	ldr	r2, [r1, #0]
 8004e6a:	6b8b      	ldr	r3, [r1, #56]	; 0x38
 8004e6c:	f3c2 01c1 	ubfx	r1, r2, #3, #2
 8004e70:	4a3b      	ldr	r2, [pc, #236]	; (8004f60 <HAL_RCCEx_GetPLL2ClockFreq+0x144>)
 8004e72:	f3c3 0308 	ubfx	r3, r3, #0, #9
 8004e76:	40ca      	lsrs	r2, r1
 8004e78:	ee07 2a90 	vmov	s15, r2
 8004e7c:	eef8 5ae7 	vcvt.f32.s32	s11, s15
 8004e80:	eec5 7a87 	vdiv.f32	s15, s11, s14
 8004e84:	ee07 3a10 	vmov	s14, r3
 8004e88:	eeb8 7ac7 	vcvt.f32.s32	s14, s14
 8004e8c:	ee37 7a26 	vadd.f32	s14, s14, s13
 8004e90:	ee37 7a06 	vadd.f32	s14, s14, s12
 8004e94:	ee67 7a87 	vmul.f32	s15, s15, s14
 8004e98:	4a30      	ldr	r2, [pc, #192]	; (8004f5c <HAL_RCCEx_GetPLL2ClockFreq+0x140>)
 8004e9a:	6b93      	ldr	r3, [r2, #56]	; 0x38
 8004e9c:	f3c3 2346 	ubfx	r3, r3, #9, #7
 8004ea0:	ee07 3a10 	vmov	s14, r3
 8004ea4:	eeb8 7ac7 	vcvt.f32.s32	s14, s14
 8004ea8:	ee37 7a06 	vadd.f32	s14, s14, s12
 8004eac:	eec7 6a87 	vdiv.f32	s13, s15, s14
 8004eb0:	eefc 6ae6 	vcvt.u32.f32	s13, s13
 8004eb4:	edc0 6a00 	vstr	s13, [r0]
 8004eb8:	6b93      	ldr	r3, [r2, #56]	; 0x38
 8004eba:	f3c3 4306 	ubfx	r3, r3, #16, #7
 8004ebe:	ee07 3a10 	vmov	s14, r3
 8004ec2:	eeb8 7ac7 	vcvt.f32.s32	s14, s14
 8004ec6:	ee37 7a06 	vadd.f32	s14, s14, s12
 8004eca:	eec7 6a87 	vdiv.f32	s13, s15, s14
 8004ece:	eefc 6ae6 	vcvt.u32.f32	s13, s13
 8004ed2:	edc0 6a01 	vstr	s13, [r0, #4]
 8004ed6:	6b93      	ldr	r3, [r2, #56]	; 0x38
 8004ed8:	f3c3 6306 	ubfx	r3, r3, #24, #7
 8004edc:	ee06 3a90 	vmov	s13, r3
 8004ee0:	eef8 6ae6 	vcvt.f32.s32	s13, s13
 8004ee4:	ee76 6a86 	vadd.f32	s13, s13, s12
 8004ee8:	ee87 7aa6 	vdiv.f32	s14, s15, s13
 8004eec:	eefc 7ac7 	vcvt.u32.f32	s15, s14
 8004ef0:	ee17 3a90 	vmov	r3, s15
 8004ef4:	6083      	str	r3, [r0, #8]
 8004ef6:	bd70      	pop	{r4, r5, r6, pc}
 8004ef8:	6b8b      	ldr	r3, [r1, #56]	; 0x38
 8004efa:	eddf 5a1a 	vldr	s11, [pc, #104]	; 8004f64 <HAL_RCCEx_GetPLL2ClockFreq+0x148>
 8004efe:	f3c3 0308 	ubfx	r3, r3, #0, #9
 8004f02:	ee07 3a90 	vmov	s15, r3
 8004f06:	eef8 7ae7 	vcvt.f32.s32	s15, s15
 8004f0a:	ee77 7aa6 	vadd.f32	s15, s15, s13
 8004f0e:	ee77 7a86 	vadd.f32	s15, s15, s12
 8004f12:	eec5 6a87 	vdiv.f32	s13, s11, s14
 8004f16:	ee67 7aa6 	vmul.f32	s15, s15, s13
 8004f1a:	e7bd      	b.n	8004e98 <HAL_RCCEx_GetPLL2ClockFreq+0x7c>
 8004f1c:	6b8b      	ldr	r3, [r1, #56]	; 0x38
 8004f1e:	eddf 5a12 	vldr	s11, [pc, #72]	; 8004f68 <HAL_RCCEx_GetPLL2ClockFreq+0x14c>
 8004f22:	f3c3 0308 	ubfx	r3, r3, #0, #9
 8004f26:	ee07 3a90 	vmov	s15, r3
 8004f2a:	eef8 7ae7 	vcvt.f32.s32	s15, s15
 8004f2e:	ee77 7aa6 	vadd.f32	s15, s15, s13
 8004f32:	ee77 7a86 	vadd.f32	s15, s15, s12
 8004f36:	e7ec      	b.n	8004f12 <HAL_RCCEx_GetPLL2ClockFreq+0xf6>
 8004f38:	6b8b      	ldr	r3, [r1, #56]	; 0x38
 8004f3a:	eddf 5a0c 	vldr	s11, [pc, #48]	; 8004f6c <HAL_RCCEx_GetPLL2ClockFreq+0x150>
 8004f3e:	f3c3 0308 	ubfx	r3, r3, #0, #9
 8004f42:	ee07 3a90 	vmov	s15, r3
 8004f46:	eef8 7ae7 	vcvt.f32.s32	s15, s15
 8004f4a:	ee77 7aa6 	vadd.f32	s15, s15, s13
 8004f4e:	ee77 7a86 	vadd.f32	s15, s15, s12
 8004f52:	e7de      	b.n	8004f12 <HAL_RCCEx_GetPLL2ClockFreq+0xf6>
 8004f54:	e9c0 3300 	strd	r3, r3, [r0]
 8004f58:	e7cc      	b.n	8004ef4 <HAL_RCCEx_GetPLL2ClockFreq+0xd8>
 8004f5a:	bf00      	nop
 8004f5c:	58024400 	.word	0x58024400
 8004f60:	03d09000 	.word	0x03d09000
 8004f64:	4c742400 	.word	0x4c742400
 8004f68:	4bbebc20 	.word	0x4bbebc20
 8004f6c:	4a742400 	.word	0x4a742400

08004f70 <HAL_RCCEx_GetPLL3ClockFreq>:
 8004f70:	494f      	ldr	r1, [pc, #316]	; (80050b0 <HAL_RCCEx_GetPLL3ClockFreq+0x140>)
 8004f72:	b570      	push	{r4, r5, r6, lr}
 8004f74:	6a8c      	ldr	r4, [r1, #40]	; 0x28
 8004f76:	6a8e      	ldr	r6, [r1, #40]	; 0x28
 8004f78:	6acd      	ldr	r5, [r1, #44]	; 0x2c
 8004f7a:	f016 7f7c 	tst.w	r6, #66060288	; 0x3f00000
 8004f7e:	f3c6 5305 	ubfx	r3, r6, #20, #6
 8004f82:	6c4a      	ldr	r2, [r1, #68]	; 0x44
 8004f84:	f000 8090 	beq.w	80050a8 <HAL_RCCEx_GetPLL3ClockFreq+0x138>
 8004f88:	ee07 3a90 	vmov	s15, r3
 8004f8c:	f3c2 03cc 	ubfx	r3, r2, #3, #13
 8004f90:	f3c5 2200 	ubfx	r2, r5, #8, #1
 8004f94:	f004 0403 	and.w	r4, r4, #3
 8004f98:	eeb8 7ae7 	vcvt.f32.s32	s14, s15
 8004f9c:	4353      	muls	r3, r2
 8004f9e:	2c01      	cmp	r4, #1
 8004fa0:	eeb7 6a00 	vmov.f32	s12, #112	; 0x3f800000  1.0
 8004fa4:	ee06 3a90 	vmov	s13, r3
 8004fa8:	eefa 6ae9 	vcvt.f32.s32	s13, s13, #13
 8004fac:	d06e      	beq.n	800508c <HAL_RCCEx_GetPLL3ClockFreq+0x11c>
 8004fae:	2c02      	cmp	r4, #2
 8004fb0:	d05e      	beq.n	8005070 <HAL_RCCEx_GetPLL3ClockFreq+0x100>
 8004fb2:	2c00      	cmp	r4, #0
 8004fb4:	d16a      	bne.n	800508c <HAL_RCCEx_GetPLL3ClockFreq+0x11c>
 8004fb6:	680b      	ldr	r3, [r1, #0]
 8004fb8:	069b      	lsls	r3, r3, #26
 8004fba:	d547      	bpl.n	800504c <HAL_RCCEx_GetPLL3ClockFreq+0xdc>
 8004fbc:	680a      	ldr	r2, [r1, #0]
 8004fbe:	6c0b      	ldr	r3, [r1, #64]	; 0x40
 8004fc0:	f3c2 01c1 	ubfx	r1, r2, #3, #2
 8004fc4:	4a3b      	ldr	r2, [pc, #236]	; (80050b4 <HAL_RCCEx_GetPLL3ClockFreq+0x144>)
 8004fc6:	f3c3 0308 	ubfx	r3, r3, #0, #9
 8004fca:	40ca      	lsrs	r2, r1
 8004fcc:	ee07 2a90 	vmov	s15, r2
 8004fd0:	eef8 5ae7 	vcvt.f32.s32	s11, s15
 8004fd4:	eec5 7a87 	vdiv.f32	s15, s11, s14
 8004fd8:	ee07 3a10 	vmov	s14, r3
 8004fdc:	eeb8 7ac7 	vcvt.f32.s32	s14, s14
 8004fe0:	ee37 7a26 	vadd.f32	s14, s14, s13
 8004fe4:	ee37 7a06 	vadd.f32	s14, s14, s12
 8004fe8:	ee67 7a87 	vmul.f32	s15, s15, s14
 8004fec:	4a30      	ldr	r2, [pc, #192]	; (80050b0 <HAL_RCCEx_GetPLL3ClockFreq+0x140>)
 8004fee:	6c13      	ldr	r3, [r2, #64]	; 0x40
 8004ff0:	f3c3 2346 	ubfx	r3, r3, #9, #7
 8004ff4:	ee07 3a10 	vmov	s14, r3
 8004ff8:	eeb8 7ac7 	vcvt.f32.s32	s14, s14
 8004ffc:	ee37 7a06 	vadd.f32	s14, s14, s12
 8005000:	eec7 6a87 	vdiv.f32	s13, s15, s14
 8005004:	eefc 6ae6 	vcvt.u32.f32	s13, s13
 8005008:	edc0 6a00 	vstr	s13, [r0]
 800500c:	6c13      	ldr	r3, [r2, #64]	; 0x40
 800500e:	f3c3 4306 	ubfx	r3, r3, #16, #7
 8005012:	ee07 3a10 	vmov	s14, r3
 8005016:	eeb8 7ac7 	vcvt.f32.s32	s14, s14
 800501a:	ee37 7a06 	vadd.f32	s14, s14, s12
 800501e:	eec7 6a87 	vdiv.f32	s13, s15, s14
 8005022:	eefc 6ae6 	vcvt.u32.f32	s13, s13
 8005026:	edc0 6a01 	vstr	s13, [r0, #4]
 800502a:	6c13      	ldr	r3, [r2, #64]	; 0x40
 800502c:	f3c3 6306 	ubfx	r3, r3, #24, #7
 8005030:	ee06 3a90 	vmov	s13, r3
 8005034:	eef8 6ae6 	vcvt.f32.s32	s13, s13
 8005038:	ee76 6a86 	vadd.f32	s13, s13, s12
 800503c:	ee87 7aa6 	vdiv.f32	s14, s15, s13
 8005040:	eefc 7ac7 	vcvt.u32.f32	s15, s14
 8005044:	ee17 3a90 	vmov	r3, s15
 8005048:	6083      	str	r3, [r0, #8]
 800504a:	bd70      	pop	{r4, r5, r6, pc}
 800504c:	6c0b      	ldr	r3, [r1, #64]	; 0x40
 800504e:	eddf 5a1a 	vldr	s11, [pc, #104]	; 80050b8 <HAL_RCCEx_GetPLL3ClockFreq+0x148>
 8005052:	f3c3 0308 	ubfx	r3, r3, #0, #9
 8005056:	ee07 3a90 	vmov	s15, r3
 800505a:	eef8 7ae7 	vcvt.f32.s32	s15, s15
 800505e:	ee77 7aa6 	vadd.f32	s15, s15, s13
 8005062:	ee77 7a86 	vadd.f32	s15, s15, s12
 8005066:	eec5 6a87 	vdiv.f32	s13, s11, s14
 800506a:	ee67 7aa6 	vmul.f32	s15, s15, s13
 800506e:	e7bd      	b.n	8004fec <HAL_RCCEx_GetPLL3ClockFreq+0x7c>
 8005070:	6c0b      	ldr	r3, [r1, #64]	; 0x40
 8005072:	eddf 5a12 	vldr	s11, [pc, #72]	; 80050bc <HAL_RCCEx_GetPLL3ClockFreq+0x14c>
 8005076:	f3c3 0308 	ubfx	r3, r3, #0, #9
 800507a:	ee07 3a90 	vmov	s15, r3
 800507e:	eef8 7ae7 	vcvt.f32.s32	s15, s15
 8005082:	ee77 7aa6 	vadd.f32	s15, s15, s13
 8005086:	ee77 7a86 	vadd.f32	s15, s15, s12
 800508a:	e7ec      	b.n	8005066 <HAL_RCCEx_GetPLL3ClockFreq+0xf6>
 800508c:	6c0b      	ldr	r3, [r1, #64]	; 0x40
 800508e:	eddf 5a0c 	vldr	s11, [pc, #48]	; 80050c0 <HAL_RCCEx_GetPLL3ClockFreq+0x150>
 8005092:	f3c3 0308 	ubfx	r3, r3, #0, #9
 8005096:	ee07 3a90 	vmov	s15, r3
 800509a:	eef8 7ae7 	vcvt.f32.s32	s15, s15
 800509e:	ee77 7aa6 	vadd.f32	s15, s15, s13
 80050a2:	ee77 7a86 	vadd.f32	s15, s15, s12
 80050a6:	e7de      	b.n	8005066 <HAL_RCCEx_GetPLL3ClockFreq+0xf6>
 80050a8:	e9c0 3300 	strd	r3, r3, [r0]
 80050ac:	e7cc      	b.n	8005048 <HAL_RCCEx_GetPLL3ClockFreq+0xd8>
 80050ae:	bf00      	nop
 80050b0:	58024400 	.word	0x58024400
 80050b4:	03d09000 	.word	0x03d09000
 80050b8:	4c742400 	.word	0x4c742400
 80050bc:	4bbebc20 	.word	0x4bbebc20
 80050c0:	4a742400 	.word	0x4a742400

080050c4 <HAL_RCCEx_GetPLL1ClockFreq>:
 80050c4:	494f      	ldr	r1, [pc, #316]	; (8005204 <HAL_RCCEx_GetPLL1ClockFreq+0x140>)
 80050c6:	b570      	push	{r4, r5, r6, lr}
 80050c8:	6a8c      	ldr	r4, [r1, #40]	; 0x28
 80050ca:	6a8e      	ldr	r6, [r1, #40]	; 0x28
 80050cc:	6acd      	ldr	r5, [r1, #44]	; 0x2c
 80050ce:	f416 7f7c 	tst.w	r6, #1008	; 0x3f0
 80050d2:	f3c6 1305 	ubfx	r3, r6, #4, #6
 80050d6:	6b4a      	ldr	r2, [r1, #52]	; 0x34
 80050d8:	f000 8090 	beq.w	80051fc <HAL_RCCEx_GetPLL1ClockFreq+0x138>
 80050dc:	ee07 3a90 	vmov	s15, r3
 80050e0:	f3c2 03cc 	ubfx	r3, r2, #3, #13
 80050e4:	f005 0201 	and.w	r2, r5, #1
 80050e8:	f004 0403 	and.w	r4, r4, #3
 80050ec:	eeb8 7ae7 	vcvt.f32.s32	s14, s15
 80050f0:	4353      	muls	r3, r2
 80050f2:	2c01      	cmp	r4, #1
 80050f4:	eeb7 6a00 	vmov.f32	s12, #112	; 0x3f800000  1.0
 80050f8:	ee06 3a90 	vmov	s13, r3
 80050fc:	eefa 6ae9 	vcvt.f32.s32	s13, s13, #13
 8005100:	d04e      	beq.n	80051a0 <HAL_RCCEx_GetPLL1ClockFreq+0xdc>
 8005102:	2c02      	cmp	r4, #2
 8005104:	d05e      	beq.n	80051c4 <HAL_RCCEx_GetPLL1ClockFreq+0x100>
 8005106:	2c00      	cmp	r4, #0
 8005108:	d16a      	bne.n	80051e0 <HAL_RCCEx_GetPLL1ClockFreq+0x11c>
 800510a:	680b      	ldr	r3, [r1, #0]
 800510c:	069b      	lsls	r3, r3, #26
 800510e:	d567      	bpl.n	80051e0 <HAL_RCCEx_GetPLL1ClockFreq+0x11c>
 8005110:	680a      	ldr	r2, [r1, #0]
 8005112:	6b0b      	ldr	r3, [r1, #48]	; 0x30
 8005114:	f3c2 01c1 	ubfx	r1, r2, #3, #2
 8005118:	4a3b      	ldr	r2, [pc, #236]	; (8005208 <HAL_RCCEx_GetPLL1ClockFreq+0x144>)
 800511a:	f3c3 0308 	ubfx	r3, r3, #0, #9
 800511e:	40ca      	lsrs	r2, r1
 8005120:	ee07 2a90 	vmov	s15, r2
 8005124:	eef8 5ae7 	vcvt.f32.s32	s11, s15
 8005128:	eec5 7a87 	vdiv.f32	s15, s11, s14
 800512c:	ee07 3a10 	vmov	s14, r3
 8005130:	eeb8 7ac7 	vcvt.f32.s32	s14, s14
 8005134:	ee37 7a26 	vadd.f32	s14, s14, s13
 8005138:	ee37 7a06 	vadd.f32	s14, s14, s12
 800513c:	ee67 7a87 	vmul.f32	s15, s15, s14
 8005140:	4a30      	ldr	r2, [pc, #192]	; (8005204 <HAL_RCCEx_GetPLL1ClockFreq+0x140>)
 8005142:	6b13      	ldr	r3, [r2, #48]	; 0x30
 8005144:	f3c3 2346 	ubfx	r3, r3, #9, #7
 8005148:	ee07 3a10 	vmov	s14, r3
 800514c:	eeb8 7ac7 	vcvt.f32.s32	s14, s14
 8005150:	ee37 7a06 	vadd.f32	s14, s14, s12
 8005154:	eec7 6a87 	vdiv.f32	s13, s15, s14
 8005158:	eefc 6ae6 	vcvt.u32.f32	s13, s13
 800515c:	edc0 6a00 	vstr	s13, [r0]
 8005160:	6b13      	ldr	r3, [r2, #48]	; 0x30
 8005162:	f3c3 4306 	ubfx	r3, r3, #16, #7
 8005166:	ee07 3a10 	vmov	s14, r3
 800516a:	eeb8 7ac7 	vcvt.f32.s32	s14, s14
 800516e:	ee37 7a06 	vadd.f32	s14, s14, s12
 8005172:	eec7 6a87 	vdiv.f32	s13, s15, s14
 8005176:	eefc 6ae6 	vcvt.u32.f32	s13, s13
 800517a:	edc0 6a01 	vstr	s13, [r0, #4]
 800517e:	6b13      	ldr	r3, [r2, #48]	; 0x30
 8005180:	f3c3 6306 	ubfx	r3, r3, #24, #7
 8005184:	ee06 3a90 	vmov	s13, r3
 8005188:	eef8 6ae6 	vcvt.f32.s32	s13, s13
 800518c:	ee76 6a86 	vadd.f32	s13, s13, s12
 8005190:	ee87 7aa6 	vdiv.f32	s14, s15, s13
 8005194:	eefc 7ac7 	vcvt.u32.f32	s15, s14
 8005198:	ee17 3a90 	vmov	r3, s15
 800519c:	6083      	str	r3, [r0, #8]
 800519e:	bd70      	pop	{r4, r5, r6, pc}
 80051a0:	6b0b      	ldr	r3, [r1, #48]	; 0x30
 80051a2:	eddf 5a1a 	vldr	s11, [pc, #104]	; 800520c <HAL_RCCEx_GetPLL1ClockFreq+0x148>
 80051a6:	f3c3 0308 	ubfx	r3, r3, #0, #9
 80051aa:	ee07 3a90 	vmov	s15, r3
 80051ae:	eef8 7ae7 	vcvt.f32.s32	s15, s15
 80051b2:	ee77 7aa6 	vadd.f32	s15, s15, s13
 80051b6:	ee77 7a86 	vadd.f32	s15, s15, s12
 80051ba:	eec5 6a87 	vdiv.f32	s13, s11, s14
 80051be:	ee67 7aa6 	vmul.f32	s15, s15, s13
 80051c2:	e7bd      	b.n	8005140 <HAL_RCCEx_GetPLL1ClockFreq+0x7c>
 80051c4:	6b0b      	ldr	r3, [r1, #48]	; 0x30
 80051c6:	eddf 5a12 	vldr	s11, [pc, #72]	; 8005210 <HAL_RCCEx_GetPLL1ClockFreq+0x14c>
 80051ca:	f3c3 0308 	ubfx	r3, r3, #0, #9
 80051ce:	ee07 3a90 	vmov	s15, r3
 80051d2:	eef8 7ae7 	vcvt.f32.s32	s15, s15
 80051d6:	ee77 7aa6 	vadd.f32	s15, s15, s13
 80051da:	ee77 7a86 	vadd.f32	s15, s15, s12
 80051de:	e7ec      	b.n	80051ba <HAL_RCCEx_GetPLL1ClockFreq+0xf6>
 80051e0:	6b0b      	ldr	r3, [r1, #48]	; 0x30
 80051e2:	eddf 5a0c 	vldr	s11, [pc, #48]	; 8005214 <HAL_RCCEx_GetPLL1ClockFreq+0x150>
 80051e6:	f3c3 0308 	ubfx	r3, r3, #0, #9
 80051ea:	ee07 3a90 	vmov	s15, r3
 80051ee:	eef8 7ae7 	vcvt.f32.s32	s15, s15
 80051f2:	ee77 7aa6 	vadd.f32	s15, s15, s13
 80051f6:	ee77 7a86 	vadd.f32	s15, s15, s12
 80051fa:	e7de      	b.n	80051ba <HAL_RCCEx_GetPLL1ClockFreq+0xf6>
 80051fc:	e9c0 3300 	strd	r3, r3, [r0]
 8005200:	e7cc      	b.n	800519c <HAL_RCCEx_GetPLL1ClockFreq+0xd8>
 8005202:	bf00      	nop
 8005204:	58024400 	.word	0x58024400
 8005208:	03d09000 	.word	0x03d09000
 800520c:	4a742400 	.word	0x4a742400
 8005210:	4bbebc20 	.word	0x4bbebc20
 8005214:	4c742400 	.word	0x4c742400

08005218 <HAL_RCCEx_GetPeriphCLKFreq>:
 8005218:	b51f      	push	{r0, r1, r2, r3, r4, lr}
 800521a:	f5a0 7380 	sub.w	r3, r0, #256	; 0x100
 800521e:	430b      	orrs	r3, r1
 8005220:	d114      	bne.n	800524c <HAL_RCCEx_GetPeriphCLKFreq+0x34>
 8005222:	4b9e      	ldr	r3, [pc, #632]	; (800549c <HAL_RCCEx_GetPeriphCLKFreq+0x284>)
 8005224:	6d1a      	ldr	r2, [r3, #80]	; 0x50
 8005226:	f002 0207 	and.w	r2, r2, #7
 800522a:	2a04      	cmp	r2, #4
 800522c:	d82f      	bhi.n	800528e <HAL_RCCEx_GetPeriphCLKFreq+0x76>
 800522e:	e8df f012 	tbh	[pc, r2, lsl #1]
 8005232:	0108      	.short	0x0108
 8005234:	0005001d 	.word	0x0005001d
 8005238:	00490165 	.word	0x00490165
 800523c:	6818      	ldr	r0, [r3, #0]
 800523e:	f010 5000 	ands.w	r0, r0, #536870912	; 0x20000000
 8005242:	d01b      	beq.n	800527c <HAL_RCCEx_GetPeriphCLKFreq+0x64>
 8005244:	a801      	add	r0, sp, #4
 8005246:	f7ff fe93 	bl	8004f70 <HAL_RCCEx_GetPLL3ClockFreq>
 800524a:	e016      	b.n	800527a <HAL_RCCEx_GetPeriphCLKFreq+0x62>
 800524c:	f5a0 7300 	sub.w	r3, r0, #512	; 0x200
 8005250:	430b      	orrs	r3, r1
 8005252:	d11e      	bne.n	8005292 <HAL_RCCEx_GetPeriphCLKFreq+0x7a>
 8005254:	4b91      	ldr	r3, [pc, #580]	; (800549c <HAL_RCCEx_GetPeriphCLKFreq+0x284>)
 8005256:	6d1a      	ldr	r2, [r3, #80]	; 0x50
 8005258:	f402 72e0 	and.w	r2, r2, #448	; 0x1c0
 800525c:	2a80      	cmp	r2, #128	; 0x80
 800525e:	d0ed      	beq.n	800523c <HAL_RCCEx_GetPeriphCLKFreq+0x24>
 8005260:	d80f      	bhi.n	8005282 <HAL_RCCEx_GetPeriphCLKFreq+0x6a>
 8005262:	2a00      	cmp	r2, #0
 8005264:	f000 80ed 	beq.w	8005442 <HAL_RCCEx_GetPeriphCLKFreq+0x22a>
 8005268:	2a40      	cmp	r2, #64	; 0x40
 800526a:	d110      	bne.n	800528e <HAL_RCCEx_GetPeriphCLKFreq+0x76>
 800526c:	6818      	ldr	r0, [r3, #0]
 800526e:	f010 6000 	ands.w	r0, r0, #134217728	; 0x8000000
 8005272:	d003      	beq.n	800527c <HAL_RCCEx_GetPeriphCLKFreq+0x64>
 8005274:	a801      	add	r0, sp, #4
 8005276:	f7ff fdd1 	bl	8004e1c <HAL_RCCEx_GetPLL2ClockFreq>
 800527a:	9801      	ldr	r0, [sp, #4]
 800527c:	b005      	add	sp, #20
 800527e:	f85d fb04 	ldr.w	pc, [sp], #4
 8005282:	2ac0      	cmp	r2, #192	; 0xc0
 8005284:	f000 813a 	beq.w	80054fc <HAL_RCCEx_GetPeriphCLKFreq+0x2e4>
 8005288:	f5b2 7f80 	cmp.w	r2, #256	; 0x100
 800528c:	d01a      	beq.n	80052c4 <HAL_RCCEx_GetPeriphCLKFreq+0xac>
 800528e:	2000      	movs	r0, #0
 8005290:	e7f4      	b.n	800527c <HAL_RCCEx_GetPeriphCLKFreq+0x64>
 8005292:	f5a0 6380 	sub.w	r3, r0, #1024	; 0x400
 8005296:	430b      	orrs	r3, r1
 8005298:	d133      	bne.n	8005302 <HAL_RCCEx_GetPeriphCLKFreq+0xea>
 800529a:	4b80      	ldr	r3, [pc, #512]	; (800549c <HAL_RCCEx_GetPeriphCLKFreq+0x284>)
 800529c:	6d9a      	ldr	r2, [r3, #88]	; 0x58
 800529e:	f402 0260 	and.w	r2, r2, #14680064	; 0xe00000
 80052a2:	f5b2 0f80 	cmp.w	r2, #4194304	; 0x400000
 80052a6:	d0c9      	beq.n	800523c <HAL_RCCEx_GetPeriphCLKFreq+0x24>
 80052a8:	d805      	bhi.n	80052b6 <HAL_RCCEx_GetPeriphCLKFreq+0x9e>
 80052aa:	2a00      	cmp	r2, #0
 80052ac:	f000 80c9 	beq.w	8005442 <HAL_RCCEx_GetPeriphCLKFreq+0x22a>
 80052b0:	f5b2 1f00 	cmp.w	r2, #2097152	; 0x200000
 80052b4:	e7d9      	b.n	800526a <HAL_RCCEx_GetPeriphCLKFreq+0x52>
 80052b6:	f5b2 0fc0 	cmp.w	r2, #6291456	; 0x600000
 80052ba:	f000 811f 	beq.w	80054fc <HAL_RCCEx_GetPeriphCLKFreq+0x2e4>
 80052be:	f5b2 0f00 	cmp.w	r2, #8388608	; 0x800000
 80052c2:	e7e3      	b.n	800528c <HAL_RCCEx_GetPeriphCLKFreq+0x74>
 80052c4:	6cda      	ldr	r2, [r3, #76]	; 0x4c
 80052c6:	6819      	ldr	r1, [r3, #0]
 80052c8:	f002 5240 	and.w	r2, r2, #805306368	; 0x30000000
 80052cc:	0748      	lsls	r0, r1, #29
 80052ce:	d506      	bpl.n	80052de <HAL_RCCEx_GetPeriphCLKFreq+0xc6>
 80052d0:	b92a      	cbnz	r2, 80052de <HAL_RCCEx_GetPeriphCLKFreq+0xc6>
 80052d2:	681b      	ldr	r3, [r3, #0]
 80052d4:	f3c3 03c1 	ubfx	r3, r3, #3, #2
 80052d8:	4871      	ldr	r0, [pc, #452]	; (80054a0 <HAL_RCCEx_GetPeriphCLKFreq+0x288>)
 80052da:	40d8      	lsrs	r0, r3
 80052dc:	e7ce      	b.n	800527c <HAL_RCCEx_GetPeriphCLKFreq+0x64>
 80052de:	4b6f      	ldr	r3, [pc, #444]	; (800549c <HAL_RCCEx_GetPeriphCLKFreq+0x284>)
 80052e0:	6819      	ldr	r1, [r3, #0]
 80052e2:	05c9      	lsls	r1, r1, #23
 80052e4:	d503      	bpl.n	80052ee <HAL_RCCEx_GetPeriphCLKFreq+0xd6>
 80052e6:	f1b2 5f80 	cmp.w	r2, #268435456	; 0x10000000
 80052ea:	f000 8109 	beq.w	8005500 <HAL_RCCEx_GetPeriphCLKFreq+0x2e8>
 80052ee:	6818      	ldr	r0, [r3, #0]
 80052f0:	f410 3000 	ands.w	r0, r0, #131072	; 0x20000
 80052f4:	d0c2      	beq.n	800527c <HAL_RCCEx_GetPeriphCLKFreq+0x64>
 80052f6:	f1b2 5f00 	cmp.w	r2, #536870912	; 0x20000000
 80052fa:	486a      	ldr	r0, [pc, #424]	; (80054a4 <HAL_RCCEx_GetPeriphCLKFreq+0x28c>)
 80052fc:	bf18      	it	ne
 80052fe:	2000      	movne	r0, #0
 8005300:	e7bc      	b.n	800527c <HAL_RCCEx_GetPeriphCLKFreq+0x64>
 8005302:	f5a0 6300 	sub.w	r3, r0, #2048	; 0x800
 8005306:	430b      	orrs	r3, r1
 8005308:	d125      	bne.n	8005356 <HAL_RCCEx_GetPeriphCLKFreq+0x13e>
 800530a:	4b64      	ldr	r3, [pc, #400]	; (800549c <HAL_RCCEx_GetPeriphCLKFreq+0x284>)
 800530c:	6d9a      	ldr	r2, [r3, #88]	; 0x58
 800530e:	f002 62e0 	and.w	r2, r2, #117440512	; 0x7000000
 8005312:	f1b2 7f00 	cmp.w	r2, #33554432	; 0x2000000
 8005316:	d091      	beq.n	800523c <HAL_RCCEx_GetPeriphCLKFreq+0x24>
 8005318:	d805      	bhi.n	8005326 <HAL_RCCEx_GetPeriphCLKFreq+0x10e>
 800531a:	2a00      	cmp	r2, #0
 800531c:	f000 8091 	beq.w	8005442 <HAL_RCCEx_GetPeriphCLKFreq+0x22a>
 8005320:	f1b2 7f80 	cmp.w	r2, #16777216	; 0x1000000
 8005324:	e7a1      	b.n	800526a <HAL_RCCEx_GetPeriphCLKFreq+0x52>
 8005326:	f1b2 7f40 	cmp.w	r2, #50331648	; 0x3000000
 800532a:	f000 80e7 	beq.w	80054fc <HAL_RCCEx_GetPeriphCLKFreq+0x2e4>
 800532e:	f1b2 6f80 	cmp.w	r2, #67108864	; 0x4000000
 8005332:	d1ac      	bne.n	800528e <HAL_RCCEx_GetPeriphCLKFreq+0x76>
 8005334:	6cda      	ldr	r2, [r3, #76]	; 0x4c
 8005336:	6819      	ldr	r1, [r3, #0]
 8005338:	f002 5240 	and.w	r2, r2, #805306368	; 0x30000000
 800533c:	681b      	ldr	r3, [r3, #0]
 800533e:	0748      	lsls	r0, r1, #29
 8005340:	d501      	bpl.n	8005346 <HAL_RCCEx_GetPeriphCLKFreq+0x12e>
 8005342:	2a00      	cmp	r2, #0
 8005344:	d0c6      	beq.n	80052d4 <HAL_RCCEx_GetPeriphCLKFreq+0xbc>
 8005346:	05d9      	lsls	r1, r3, #23
 8005348:	d503      	bpl.n	8005352 <HAL_RCCEx_GetPeriphCLKFreq+0x13a>
 800534a:	f1b2 5f80 	cmp.w	r2, #268435456	; 0x10000000
 800534e:	f000 80d7 	beq.w	8005500 <HAL_RCCEx_GetPeriphCLKFreq+0x2e8>
 8005352:	4b52      	ldr	r3, [pc, #328]	; (800549c <HAL_RCCEx_GetPeriphCLKFreq+0x284>)
 8005354:	e7cb      	b.n	80052ee <HAL_RCCEx_GetPeriphCLKFreq+0xd6>
 8005356:	f5a0 5380 	sub.w	r3, r0, #4096	; 0x1000
 800535a:	430b      	orrs	r3, r1
 800535c:	d114      	bne.n	8005388 <HAL_RCCEx_GetPeriphCLKFreq+0x170>
 800535e:	4b4f      	ldr	r3, [pc, #316]	; (800549c <HAL_RCCEx_GetPeriphCLKFreq+0x284>)
 8005360:	6d1a      	ldr	r2, [r3, #80]	; 0x50
 8005362:	f402 42e0 	and.w	r2, r2, #28672	; 0x7000
 8005366:	f5b2 5f00 	cmp.w	r2, #8192	; 0x2000
 800536a:	f43f af67 	beq.w	800523c <HAL_RCCEx_GetPeriphCLKFreq+0x24>
 800536e:	d804      	bhi.n	800537a <HAL_RCCEx_GetPeriphCLKFreq+0x162>
 8005370:	2a00      	cmp	r2, #0
 8005372:	d066      	beq.n	8005442 <HAL_RCCEx_GetPeriphCLKFreq+0x22a>
 8005374:	f5b2 5f80 	cmp.w	r2, #4096	; 0x1000
 8005378:	e777      	b.n	800526a <HAL_RCCEx_GetPeriphCLKFreq+0x52>
 800537a:	f5b2 5f40 	cmp.w	r2, #12288	; 0x3000
 800537e:	f000 80bd 	beq.w	80054fc <HAL_RCCEx_GetPeriphCLKFreq+0x2e4>
 8005382:	f5b2 4f80 	cmp.w	r2, #16384	; 0x4000
 8005386:	e7d4      	b.n	8005332 <HAL_RCCEx_GetPeriphCLKFreq+0x11a>
 8005388:	f5a0 5300 	sub.w	r3, r0, #8192	; 0x2000
 800538c:	430b      	orrs	r3, r1
 800538e:	d134      	bne.n	80053fa <HAL_RCCEx_GetPeriphCLKFreq+0x1e2>
 8005390:	4a42      	ldr	r2, [pc, #264]	; (800549c <HAL_RCCEx_GetPeriphCLKFreq+0x284>)
 8005392:	6d13      	ldr	r3, [r2, #80]	; 0x50
 8005394:	f403 23e0 	and.w	r3, r3, #458752	; 0x70000
 8005398:	f5b3 3f40 	cmp.w	r3, #196608	; 0x30000
 800539c:	f000 808a 	beq.w	80054b4 <HAL_RCCEx_GetPeriphCLKFreq+0x29c>
 80053a0:	d80d      	bhi.n	80053be <HAL_RCCEx_GetPeriphCLKFreq+0x1a6>
 80053a2:	f5b3 3f80 	cmp.w	r3, #65536	; 0x10000
 80053a6:	d016      	beq.n	80053d6 <HAL_RCCEx_GetPeriphCLKFreq+0x1be>
 80053a8:	f5b3 3f00 	cmp.w	r3, #131072	; 0x20000
 80053ac:	d01c      	beq.n	80053e8 <HAL_RCCEx_GetPeriphCLKFreq+0x1d0>
 80053ae:	2b00      	cmp	r3, #0
 80053b0:	f47f af6d 	bne.w	800528e <HAL_RCCEx_GetPeriphCLKFreq+0x76>
 80053b4:	b005      	add	sp, #20
 80053b6:	f85d eb04 	ldr.w	lr, [sp], #4
 80053ba:	f7fe bef5 	b.w	80041a8 <HAL_RCC_GetPCLK1Freq>
 80053be:	f5b3 2f80 	cmp.w	r3, #262144	; 0x40000
 80053c2:	d07e      	beq.n	80054c2 <HAL_RCCEx_GetPeriphCLKFreq+0x2aa>
 80053c4:	f5b3 2fa0 	cmp.w	r3, #327680	; 0x50000
 80053c8:	f47f af61 	bne.w	800528e <HAL_RCCEx_GetPeriphCLKFreq+0x76>
 80053cc:	6810      	ldr	r0, [r2, #0]
 80053ce:	4b35      	ldr	r3, [pc, #212]	; (80054a4 <HAL_RCCEx_GetPeriphCLKFreq+0x28c>)
 80053d0:	f410 3000 	ands.w	r0, r0, #131072	; 0x20000
 80053d4:	e079      	b.n	80054ca <HAL_RCCEx_GetPeriphCLKFreq+0x2b2>
 80053d6:	6810      	ldr	r0, [r2, #0]
 80053d8:	f010 6000 	ands.w	r0, r0, #134217728	; 0x8000000
 80053dc:	f43f af4e 	beq.w	800527c <HAL_RCCEx_GetPeriphCLKFreq+0x64>
 80053e0:	a801      	add	r0, sp, #4
 80053e2:	f7ff fd1b 	bl	8004e1c <HAL_RCCEx_GetPLL2ClockFreq>
 80053e6:	e034      	b.n	8005452 <HAL_RCCEx_GetPeriphCLKFreq+0x23a>
 80053e8:	6810      	ldr	r0, [r2, #0]
 80053ea:	f010 5000 	ands.w	r0, r0, #536870912	; 0x20000000
 80053ee:	f43f af45 	beq.w	800527c <HAL_RCCEx_GetPeriphCLKFreq+0x64>
 80053f2:	a801      	add	r0, sp, #4
 80053f4:	f7ff fdbc 	bl	8004f70 <HAL_RCCEx_GetPLL3ClockFreq>
 80053f8:	e02b      	b.n	8005452 <HAL_RCCEx_GetPeriphCLKFreq+0x23a>
 80053fa:	f5a0 2300 	sub.w	r3, r0, #524288	; 0x80000
 80053fe:	430b      	orrs	r3, r1
 8005400:	d117      	bne.n	8005432 <HAL_RCCEx_GetPeriphCLKFreq+0x21a>
 8005402:	4b26      	ldr	r3, [pc, #152]	; (800549c <HAL_RCCEx_GetPeriphCLKFreq+0x284>)
 8005404:	6d9a      	ldr	r2, [r3, #88]	; 0x58
 8005406:	f402 3240 	and.w	r2, r2, #196608	; 0x30000
 800540a:	f5b2 3f80 	cmp.w	r2, #65536	; 0x10000
 800540e:	d006      	beq.n	800541e <HAL_RCCEx_GetPeriphCLKFreq+0x206>
 8005410:	f5b2 3f00 	cmp.w	r2, #131072	; 0x20000
 8005414:	d08e      	beq.n	8005334 <HAL_RCCEx_GetPeriphCLKFreq+0x11c>
 8005416:	2a00      	cmp	r2, #0
 8005418:	f47f af39 	bne.w	800528e <HAL_RCCEx_GetPeriphCLKFreq+0x76>
 800541c:	e726      	b.n	800526c <HAL_RCCEx_GetPeriphCLKFreq+0x54>
 800541e:	6818      	ldr	r0, [r3, #0]
 8005420:	f010 5000 	ands.w	r0, r0, #536870912	; 0x20000000
 8005424:	f43f af2a 	beq.w	800527c <HAL_RCCEx_GetPeriphCLKFreq+0x64>
 8005428:	a801      	add	r0, sp, #4
 800542a:	f7ff fda1 	bl	8004f70 <HAL_RCCEx_GetPLL3ClockFreq>
 800542e:	9803      	ldr	r0, [sp, #12]
 8005430:	e724      	b.n	800527c <HAL_RCCEx_GetPeriphCLKFreq+0x64>
 8005432:	f5a0 3380 	sub.w	r3, r0, #65536	; 0x10000
 8005436:	430b      	orrs	r3, r1
 8005438:	d116      	bne.n	8005468 <HAL_RCCEx_GetPeriphCLKFreq+0x250>
 800543a:	4b18      	ldr	r3, [pc, #96]	; (800549c <HAL_RCCEx_GetPeriphCLKFreq+0x284>)
 800543c:	6cda      	ldr	r2, [r3, #76]	; 0x4c
 800543e:	03d2      	lsls	r2, r2, #15
 8005440:	d409      	bmi.n	8005456 <HAL_RCCEx_GetPeriphCLKFreq+0x23e>
 8005442:	6818      	ldr	r0, [r3, #0]
 8005444:	f010 7000 	ands.w	r0, r0, #33554432	; 0x2000000
 8005448:	f43f af18 	beq.w	800527c <HAL_RCCEx_GetPeriphCLKFreq+0x64>
 800544c:	a801      	add	r0, sp, #4
 800544e:	f7ff fe39 	bl	80050c4 <HAL_RCCEx_GetPLL1ClockFreq>
 8005452:	9802      	ldr	r0, [sp, #8]
 8005454:	e712      	b.n	800527c <HAL_RCCEx_GetPeriphCLKFreq+0x64>
 8005456:	6818      	ldr	r0, [r3, #0]
 8005458:	f010 6000 	ands.w	r0, r0, #134217728	; 0x8000000
 800545c:	f43f af0e 	beq.w	800527c <HAL_RCCEx_GetPeriphCLKFreq+0x64>
 8005460:	a801      	add	r0, sp, #4
 8005462:	f7ff fcdb 	bl	8004e1c <HAL_RCCEx_GetPLL2ClockFreq>
 8005466:	e7e2      	b.n	800542e <HAL_RCCEx_GetPeriphCLKFreq+0x216>
 8005468:	f5a0 4380 	sub.w	r3, r0, #16384	; 0x4000
 800546c:	430b      	orrs	r3, r1
 800546e:	d12f      	bne.n	80054d0 <HAL_RCCEx_GetPeriphCLKFreq+0x2b8>
 8005470:	4a0a      	ldr	r2, [pc, #40]	; (800549c <HAL_RCCEx_GetPeriphCLKFreq+0x284>)
 8005472:	6d93      	ldr	r3, [r2, #88]	; 0x58
 8005474:	f003 43e0 	and.w	r3, r3, #1879048192	; 0x70000000
 8005478:	f1b3 5f40 	cmp.w	r3, #805306368	; 0x30000000
 800547c:	d01a      	beq.n	80054b4 <HAL_RCCEx_GetPeriphCLKFreq+0x29c>
 800547e:	d813      	bhi.n	80054a8 <HAL_RCCEx_GetPeriphCLKFreq+0x290>
 8005480:	f1b3 5f80 	cmp.w	r3, #268435456	; 0x10000000
 8005484:	d0a7      	beq.n	80053d6 <HAL_RCCEx_GetPeriphCLKFreq+0x1be>
 8005486:	f1b3 5f00 	cmp.w	r3, #536870912	; 0x20000000
 800548a:	d0ad      	beq.n	80053e8 <HAL_RCCEx_GetPeriphCLKFreq+0x1d0>
 800548c:	2b00      	cmp	r3, #0
 800548e:	f47f aefe 	bne.w	800528e <HAL_RCCEx_GetPeriphCLKFreq+0x76>
 8005492:	b005      	add	sp, #20
 8005494:	f85d eb04 	ldr.w	lr, [sp], #4
 8005498:	f7ff bcae 	b.w	8004df8 <HAL_RCCEx_GetD3PCLK1Freq>
 800549c:	58024400 	.word	0x58024400
 80054a0:	03d09000 	.word	0x03d09000
 80054a4:	017d7840 	.word	0x017d7840
 80054a8:	f1b3 4f80 	cmp.w	r3, #1073741824	; 0x40000000
 80054ac:	d009      	beq.n	80054c2 <HAL_RCCEx_GetPeriphCLKFreq+0x2aa>
 80054ae:	f1b3 4fa0 	cmp.w	r3, #1342177280	; 0x50000000
 80054b2:	e789      	b.n	80053c8 <HAL_RCCEx_GetPeriphCLKFreq+0x1b0>
 80054b4:	6810      	ldr	r0, [r2, #0]
 80054b6:	f010 0004 	ands.w	r0, r0, #4
 80054ba:	f43f aedf 	beq.w	800527c <HAL_RCCEx_GetPeriphCLKFreq+0x64>
 80054be:	6813      	ldr	r3, [r2, #0]
 80054c0:	e708      	b.n	80052d4 <HAL_RCCEx_GetPeriphCLKFreq+0xbc>
 80054c2:	6810      	ldr	r0, [r2, #0]
 80054c4:	4b0f      	ldr	r3, [pc, #60]	; (8005504 <HAL_RCCEx_GetPeriphCLKFreq+0x2ec>)
 80054c6:	f410 7080 	ands.w	r0, r0, #256	; 0x100
 80054ca:	bf18      	it	ne
 80054cc:	4618      	movne	r0, r3
 80054ce:	e6d5      	b.n	800527c <HAL_RCCEx_GetPeriphCLKFreq+0x64>
 80054d0:	f5a0 4000 	sub.w	r0, r0, #32768	; 0x8000
 80054d4:	4301      	orrs	r1, r0
 80054d6:	f47f aeda 	bne.w	800528e <HAL_RCCEx_GetPeriphCLKFreq+0x76>
 80054da:	4a0b      	ldr	r2, [pc, #44]	; (8005508 <HAL_RCCEx_GetPeriphCLKFreq+0x2f0>)
 80054dc:	6d13      	ldr	r3, [r2, #80]	; 0x50
 80054de:	f003 5340 	and.w	r3, r3, #805306368	; 0x30000000
 80054e2:	f1b3 5f80 	cmp.w	r3, #268435456	; 0x10000000
 80054e6:	d007      	beq.n	80054f8 <HAL_RCCEx_GetPeriphCLKFreq+0x2e0>
 80054e8:	f1b3 5f00 	cmp.w	r3, #536870912	; 0x20000000
 80054ec:	f43f af73 	beq.w	80053d6 <HAL_RCCEx_GetPeriphCLKFreq+0x1be>
 80054f0:	2b00      	cmp	r3, #0
 80054f2:	f47f aecc 	bne.w	800528e <HAL_RCCEx_GetPeriphCLKFreq+0x76>
 80054f6:	e769      	b.n	80053cc <HAL_RCCEx_GetPeriphCLKFreq+0x1b4>
 80054f8:	6810      	ldr	r0, [r2, #0]
 80054fa:	e7a3      	b.n	8005444 <HAL_RCCEx_GetPeriphCLKFreq+0x22c>
 80054fc:	4803      	ldr	r0, [pc, #12]	; (800550c <HAL_RCCEx_GetPeriphCLKFreq+0x2f4>)
 80054fe:	e6bd      	b.n	800527c <HAL_RCCEx_GetPeriphCLKFreq+0x64>
 8005500:	4800      	ldr	r0, [pc, #0]	; (8005504 <HAL_RCCEx_GetPeriphCLKFreq+0x2ec>)
 8005502:	e6bb      	b.n	800527c <HAL_RCCEx_GetPeriphCLKFreq+0x64>
 8005504:	003d0900 	.word	0x003d0900
 8005508:	58024400 	.word	0x58024400
 800550c:	00bb8000 	.word	0x00bb8000

08005510 <HAL_RTC_WaitForSynchro>:
 8005510:	b538      	push	{r3, r4, r5, lr}
 8005512:	4a0a      	ldr	r2, [pc, #40]	; (800553c <HAL_RTC_WaitForSynchro+0x2c>)
 8005514:	4604      	mov	r4, r0
 8005516:	6803      	ldr	r3, [r0, #0]
 8005518:	60da      	str	r2, [r3, #12]
 800551a:	f7fc fc39 	bl	8001d90 <HAL_GetTick>
 800551e:	4605      	mov	r5, r0
 8005520:	6823      	ldr	r3, [r4, #0]
 8005522:	68db      	ldr	r3, [r3, #12]
 8005524:	069b      	lsls	r3, r3, #26
 8005526:	d501      	bpl.n	800552c <HAL_RTC_WaitForSynchro+0x1c>
 8005528:	2000      	movs	r0, #0
 800552a:	bd38      	pop	{r3, r4, r5, pc}
 800552c:	f7fc fc30 	bl	8001d90 <HAL_GetTick>
 8005530:	1b40      	subs	r0, r0, r5
 8005532:	f5b0 7f7a 	cmp.w	r0, #1000	; 0x3e8
 8005536:	d9f3      	bls.n	8005520 <HAL_RTC_WaitForSynchro+0x10>
 8005538:	2003      	movs	r0, #3
 800553a:	e7f6      	b.n	800552a <HAL_RTC_WaitForSynchro+0x1a>
 800553c:	0003ff5f 	.word	0x0003ff5f

08005540 <RTC_EnterInitMode>:
 8005540:	b5f8      	push	{r3, r4, r5, r6, r7, lr}
 8005542:	6803      	ldr	r3, [r0, #0]
 8005544:	4605      	mov	r5, r0
 8005546:	68dc      	ldr	r4, [r3, #12]
 8005548:	f014 0440 	ands.w	r4, r4, #64	; 0x40
 800554c:	d118      	bne.n	8005580 <RTC_EnterInitMode+0x40>
 800554e:	f04f 32ff 	mov.w	r2, #4294967295
 8005552:	2703      	movs	r7, #3
 8005554:	60da      	str	r2, [r3, #12]
 8005556:	f7fc fc1b 	bl	8001d90 <HAL_GetTick>
 800555a:	4606      	mov	r6, r0
 800555c:	682b      	ldr	r3, [r5, #0]
 800555e:	68db      	ldr	r3, [r3, #12]
 8005560:	065b      	lsls	r3, r3, #25
 8005562:	d401      	bmi.n	8005568 <RTC_EnterInitMode+0x28>
 8005564:	2c03      	cmp	r4, #3
 8005566:	d101      	bne.n	800556c <RTC_EnterInitMode+0x2c>
 8005568:	4620      	mov	r0, r4
 800556a:	bdf8      	pop	{r3, r4, r5, r6, r7, pc}
 800556c:	f7fc fc10 	bl	8001d90 <HAL_GetTick>
 8005570:	1b80      	subs	r0, r0, r6
 8005572:	f5b0 7f7a 	cmp.w	r0, #1000	; 0x3e8
 8005576:	d9f1      	bls.n	800555c <RTC_EnterInitMode+0x1c>
 8005578:	2403      	movs	r4, #3
 800557a:	f885 7021 	strb.w	r7, [r5, #33]	; 0x21
 800557e:	e7ed      	b.n	800555c <RTC_EnterInitMode+0x1c>
 8005580:	2400      	movs	r4, #0
 8005582:	e7f1      	b.n	8005568 <RTC_EnterInitMode+0x28>

08005584 <RTC_ExitInitMode>:
 8005584:	b538      	push	{r3, r4, r5, lr}
 8005586:	4c0f      	ldr	r4, [pc, #60]	; (80055c4 <RTC_ExitInitMode+0x40>)
 8005588:	4605      	mov	r5, r0
 800558a:	68e3      	ldr	r3, [r4, #12]
 800558c:	f023 0340 	bic.w	r3, r3, #64	; 0x40
 8005590:	60e3      	str	r3, [r4, #12]
 8005592:	68a3      	ldr	r3, [r4, #8]
 8005594:	069b      	lsls	r3, r3, #26
 8005596:	d406      	bmi.n	80055a6 <RTC_ExitInitMode+0x22>
 8005598:	f7ff ffba 	bl	8005510 <HAL_RTC_WaitForSynchro>
 800559c:	b110      	cbz	r0, 80055a4 <RTC_ExitInitMode+0x20>
 800559e:	2003      	movs	r0, #3
 80055a0:	f885 0021 	strb.w	r0, [r5, #33]	; 0x21
 80055a4:	bd38      	pop	{r3, r4, r5, pc}
 80055a6:	68a3      	ldr	r3, [r4, #8]
 80055a8:	f023 0320 	bic.w	r3, r3, #32
 80055ac:	60a3      	str	r3, [r4, #8]
 80055ae:	f7ff ffaf 	bl	8005510 <HAL_RTC_WaitForSynchro>
 80055b2:	b110      	cbz	r0, 80055ba <RTC_ExitInitMode+0x36>
 80055b4:	2003      	movs	r0, #3
 80055b6:	f885 0021 	strb.w	r0, [r5, #33]	; 0x21
 80055ba:	68a3      	ldr	r3, [r4, #8]
 80055bc:	f043 0320 	orr.w	r3, r3, #32
 80055c0:	60a3      	str	r3, [r4, #8]
 80055c2:	e7ef      	b.n	80055a4 <RTC_ExitInitMode+0x20>
 80055c4:	58004000 	.word	0x58004000

080055c8 <HAL_RTC_Init>:
 80055c8:	b538      	push	{r3, r4, r5, lr}
 80055ca:	4604      	mov	r4, r0
 80055cc:	2800      	cmp	r0, #0
 80055ce:	d045      	beq.n	800565c <HAL_RTC_Init+0x94>
 80055d0:	f890 3021 	ldrb.w	r3, [r0, #33]	; 0x21
 80055d4:	f003 02ff 	and.w	r2, r3, #255	; 0xff
 80055d8:	b91b      	cbnz	r3, 80055e2 <HAL_RTC_Init+0x1a>
 80055da:	f880 2020 	strb.w	r2, [r0, #32]
 80055de:	f7fc f8a7 	bl	8001730 <HAL_RTC_MspInit>
 80055e2:	2302      	movs	r3, #2
 80055e4:	f884 3021 	strb.w	r3, [r4, #33]	; 0x21
 80055e8:	6823      	ldr	r3, [r4, #0]
 80055ea:	68da      	ldr	r2, [r3, #12]
 80055ec:	06d2      	lsls	r2, r2, #27
 80055ee:	d504      	bpl.n	80055fa <HAL_RTC_Init+0x32>
 80055f0:	2301      	movs	r3, #1
 80055f2:	2000      	movs	r0, #0
 80055f4:	f884 3021 	strb.w	r3, [r4, #33]	; 0x21
 80055f8:	bd38      	pop	{r3, r4, r5, pc}
 80055fa:	22ca      	movs	r2, #202	; 0xca
 80055fc:	4620      	mov	r0, r4
 80055fe:	625a      	str	r2, [r3, #36]	; 0x24
 8005600:	2253      	movs	r2, #83	; 0x53
 8005602:	625a      	str	r2, [r3, #36]	; 0x24
 8005604:	f7ff ff9c 	bl	8005540 <RTC_EnterInitMode>
 8005608:	bb10      	cbnz	r0, 8005650 <HAL_RTC_Init+0x88>
 800560a:	6822      	ldr	r2, [r4, #0]
 800560c:	6920      	ldr	r0, [r4, #16]
 800560e:	6893      	ldr	r3, [r2, #8]
 8005610:	f423 03e0 	bic.w	r3, r3, #7340032	; 0x700000
 8005614:	f023 0340 	bic.w	r3, r3, #64	; 0x40
 8005618:	6093      	str	r3, [r2, #8]
 800561a:	6863      	ldr	r3, [r4, #4]
 800561c:	6891      	ldr	r1, [r2, #8]
 800561e:	4303      	orrs	r3, r0
 8005620:	69a0      	ldr	r0, [r4, #24]
 8005622:	4303      	orrs	r3, r0
 8005624:	4620      	mov	r0, r4
 8005626:	430b      	orrs	r3, r1
 8005628:	6093      	str	r3, [r2, #8]
 800562a:	e9d4 1302 	ldrd	r1, r3, [r4, #8]
 800562e:	ea43 4301 	orr.w	r3, r3, r1, lsl #16
 8005632:	6113      	str	r3, [r2, #16]
 8005634:	f7ff ffa6 	bl	8005584 <RTC_ExitInitMode>
 8005638:	b950      	cbnz	r0, 8005650 <HAL_RTC_Init+0x88>
 800563a:	6822      	ldr	r2, [r4, #0]
 800563c:	6965      	ldr	r5, [r4, #20]
 800563e:	6cd3      	ldr	r3, [r2, #76]	; 0x4c
 8005640:	f023 0303 	bic.w	r3, r3, #3
 8005644:	64d3      	str	r3, [r2, #76]	; 0x4c
 8005646:	69e3      	ldr	r3, [r4, #28]
 8005648:	6cd1      	ldr	r1, [r2, #76]	; 0x4c
 800564a:	432b      	orrs	r3, r5
 800564c:	430b      	orrs	r3, r1
 800564e:	64d3      	str	r3, [r2, #76]	; 0x4c
 8005650:	6823      	ldr	r3, [r4, #0]
 8005652:	22ff      	movs	r2, #255	; 0xff
 8005654:	625a      	str	r2, [r3, #36]	; 0x24
 8005656:	2800      	cmp	r0, #0
 8005658:	d0ca      	beq.n	80055f0 <HAL_RTC_Init+0x28>
 800565a:	e7cd      	b.n	80055f8 <HAL_RTC_Init+0x30>
 800565c:	2001      	movs	r0, #1
 800565e:	e7cb      	b.n	80055f8 <HAL_RTC_Init+0x30>

08005660 <SAI_Disable>:
 8005660:	4b0d      	ldr	r3, [pc, #52]	; (8005698 <SAI_Disable+0x38>)
 8005662:	6801      	ldr	r1, [r0, #0]
 8005664:	681a      	ldr	r2, [r3, #0]
 8005666:	f641 3358 	movw	r3, #7000	; 0x1b58
 800566a:	fbb2 f2f3 	udiv	r2, r2, r3
 800566e:	680b      	ldr	r3, [r1, #0]
 8005670:	0092      	lsls	r2, r2, #2
 8005672:	f423 3380 	bic.w	r3, r3, #65536	; 0x10000
 8005676:	600b      	str	r3, [r1, #0]
 8005678:	b93a      	cbnz	r2, 800568a <SAI_Disable+0x2a>
 800567a:	f8d0 3094 	ldr.w	r3, [r0, #148]	; 0x94
 800567e:	f043 0340 	orr.w	r3, r3, #64	; 0x40
 8005682:	f8c0 3094 	str.w	r3, [r0, #148]	; 0x94
 8005686:	2003      	movs	r0, #3
 8005688:	4770      	bx	lr
 800568a:	680b      	ldr	r3, [r1, #0]
 800568c:	3a01      	subs	r2, #1
 800568e:	f413 3380 	ands.w	r3, r3, #65536	; 0x10000
 8005692:	d1f1      	bne.n	8005678 <SAI_Disable+0x18>
 8005694:	4618      	mov	r0, r3
 8005696:	4770      	bx	lr
 8005698:	24000000 	.word	0x24000000

0800569c <HAL_SAI_Init>:
 800569c:	e92d 47f0 	stmdb	sp!, {r4, r5, r6, r7, r8, r9, sl, lr}
 80056a0:	4604      	mov	r4, r0
 80056a2:	b920      	cbnz	r0, 80056ae <HAL_SAI_Init+0x12>
 80056a4:	f04f 0801 	mov.w	r8, #1
 80056a8:	4640      	mov	r0, r8
 80056aa:	e8bd 87f0 	ldmia.w	sp!, {r4, r5, r6, r7, r8, r9, sl, pc}
 80056ae:	f7fc fb87 	bl	8001dc0 <HAL_GetREVID>
 80056b2:	f894 3038 	ldrb.w	r3, [r4, #56]	; 0x38
 80056b6:	f8df 92f4 	ldr.w	r9, [pc, #756]	; 80059ac <HAL_SAI_Init+0x310>
 80056ba:	2b01      	cmp	r3, #1
 80056bc:	6823      	ldr	r3, [r4, #0]
 80056be:	d10a      	bne.n	80056d6 <HAL_SAI_Init+0x3a>
 80056c0:	454b      	cmp	r3, r9
 80056c2:	d002      	beq.n	80056ca <HAL_SAI_Init+0x2e>
 80056c4:	4aaf      	ldr	r2, [pc, #700]	; (8005984 <HAL_SAI_Init+0x2e8>)
 80056c6:	4293      	cmp	r3, r2
 80056c8:	d1ec      	bne.n	80056a4 <HAL_SAI_Init+0x8>
 80056ca:	6862      	ldr	r2, [r4, #4]
 80056cc:	2a01      	cmp	r2, #1
 80056ce:	d1e9      	bne.n	80056a4 <HAL_SAI_Init+0x8>
 80056d0:	6c62      	ldr	r2, [r4, #68]	; 0x44
 80056d2:	2a00      	cmp	r2, #0
 80056d4:	d1e6      	bne.n	80056a4 <HAL_SAI_Init+0x8>
 80056d6:	454b      	cmp	r3, r9
 80056d8:	d018      	beq.n	800570c <HAL_SAI_Init+0x70>
 80056da:	4aab      	ldr	r2, [pc, #684]	; (8005988 <HAL_SAI_Init+0x2ec>)
 80056dc:	4293      	cmp	r3, r2
 80056de:	d015      	beq.n	800570c <HAL_SAI_Init+0x70>
 80056e0:	f502 7278 	add.w	r2, r2, #992	; 0x3e0
 80056e4:	4293      	cmp	r3, r2
 80056e6:	d038      	beq.n	800575a <HAL_SAI_Init+0xbe>
 80056e8:	3220      	adds	r2, #32
 80056ea:	4293      	cmp	r3, r2
 80056ec:	d035      	beq.n	800575a <HAL_SAI_Init+0xbe>
 80056ee:	f502 7278 	add.w	r2, r2, #992	; 0x3e0
 80056f2:	4293      	cmp	r3, r2
 80056f4:	d033      	beq.n	800575e <HAL_SAI_Init+0xc2>
 80056f6:	3220      	adds	r2, #32
 80056f8:	4293      	cmp	r3, r2
 80056fa:	d030      	beq.n	800575e <HAL_SAI_Init+0xc2>
 80056fc:	4aa1      	ldr	r2, [pc, #644]	; (8005984 <HAL_SAI_Init+0x2e8>)
 80056fe:	4293      	cmp	r3, r2
 8005700:	d002      	beq.n	8005708 <HAL_SAI_Init+0x6c>
 8005702:	3220      	adds	r2, #32
 8005704:	4293      	cmp	r3, r2
 8005706:	d1cd      	bne.n	80056a4 <HAL_SAI_Init+0x8>
 8005708:	4da0      	ldr	r5, [pc, #640]	; (800598c <HAL_SAI_Init+0x2f0>)
 800570a:	e000      	b.n	800570e <HAL_SAI_Init+0x72>
 800570c:	4da0      	ldr	r5, [pc, #640]	; (8005990 <HAL_SAI_Init+0x2f4>)
 800570e:	f894 3091 	ldrb.w	r3, [r4, #145]	; 0x91
 8005712:	f003 02ff 	and.w	r2, r3, #255	; 0xff
 8005716:	b923      	cbnz	r3, 8005722 <HAL_SAI_Init+0x86>
 8005718:	4620      	mov	r0, r4
 800571a:	f884 2090 	strb.w	r2, [r4, #144]	; 0x90
 800571e:	f7fc f9cd 	bl	8001abc <HAL_SAI_MspInit>
 8005722:	4620      	mov	r0, r4
 8005724:	f7ff ff9c 	bl	8005660 <SAI_Disable>
 8005728:	4680      	mov	r8, r0
 800572a:	2800      	cmp	r0, #0
 800572c:	d1ba      	bne.n	80056a4 <HAL_SAI_Init+0x8>
 800572e:	2302      	movs	r3, #2
 8005730:	f884 3091 	strb.w	r3, [r4, #145]	; 0x91
 8005734:	68e3      	ldr	r3, [r4, #12]
 8005736:	2b01      	cmp	r3, #1
 8005738:	d013      	beq.n	8005762 <HAL_SAI_Init+0xc6>
 800573a:	1e9a      	subs	r2, r3, #2
 800573c:	4253      	negs	r3, r2
 800573e:	4153      	adcs	r3, r2
 8005740:	015b      	lsls	r3, r3, #5
 8005742:	68a2      	ldr	r2, [r4, #8]
 8005744:	3a01      	subs	r2, #1
 8005746:	2a04      	cmp	r2, #4
 8005748:	f200 8117 	bhi.w	800597a <HAL_SAI_Init+0x2de>
 800574c:	e8df f012 	tbh	[pc, r2, lsl #1]
 8005750:	010c000b 	.word	0x010c000b
 8005754:	010f010a 	.word	0x010f010a
 8005758:	0112      	.short	0x0112
 800575a:	4d8e      	ldr	r5, [pc, #568]	; (8005994 <HAL_SAI_Init+0x2f8>)
 800575c:	e7d7      	b.n	800570e <HAL_SAI_Init+0x72>
 800575e:	4d8e      	ldr	r5, [pc, #568]	; (8005998 <HAL_SAI_Init+0x2fc>)
 8005760:	e7d5      	b.n	800570e <HAL_SAI_Init+0x72>
 8005762:	2310      	movs	r3, #16
 8005764:	e7ed      	b.n	8005742 <HAL_SAI_Init+0xa6>
 8005766:	f44f 6780 	mov.w	r7, #1024	; 0x400
 800576a:	602b      	str	r3, [r5, #0]
 800576c:	6a23      	ldr	r3, [r4, #32]
 800576e:	2b00      	cmp	r3, #0
 8005770:	d056      	beq.n	8005820 <HAL_SAI_Init+0x184>
 8005772:	6823      	ldr	r3, [r4, #0]
 8005774:	454b      	cmp	r3, r9
 8005776:	d003      	beq.n	8005780 <HAL_SAI_Init+0xe4>
 8005778:	4a83      	ldr	r2, [pc, #524]	; (8005988 <HAL_SAI_Init+0x2ec>)
 800577a:	4293      	cmp	r3, r2
 800577c:	f040 80ff 	bne.w	800597e <HAL_SAI_Init+0x2e2>
 8005780:	f44f 7080 	mov.w	r0, #256	; 0x100
 8005784:	2100      	movs	r1, #0
 8005786:	f7ff fd47 	bl	8005218 <HAL_RCCEx_GetPeriphCLKFreq>
 800578a:	6823      	ldr	r3, [r4, #0]
 800578c:	4a83      	ldr	r2, [pc, #524]	; (800599c <HAL_SAI_Init+0x300>)
 800578e:	4293      	cmp	r3, r2
 8005790:	d002      	beq.n	8005798 <HAL_SAI_Init+0xfc>
 8005792:	3220      	adds	r2, #32
 8005794:	4293      	cmp	r3, r2
 8005796:	d104      	bne.n	80057a2 <HAL_SAI_Init+0x106>
 8005798:	f44f 7000 	mov.w	r0, #512	; 0x200
 800579c:	2100      	movs	r1, #0
 800579e:	f7ff fd3b 	bl	8005218 <HAL_RCCEx_GetPeriphCLKFreq>
 80057a2:	6823      	ldr	r3, [r4, #0]
 80057a4:	4a7e      	ldr	r2, [pc, #504]	; (80059a0 <HAL_SAI_Init+0x304>)
 80057a6:	4293      	cmp	r3, r2
 80057a8:	d002      	beq.n	80057b0 <HAL_SAI_Init+0x114>
 80057aa:	3220      	adds	r2, #32
 80057ac:	4293      	cmp	r3, r2
 80057ae:	d104      	bne.n	80057ba <HAL_SAI_Init+0x11e>
 80057b0:	f44f 7000 	mov.w	r0, #512	; 0x200
 80057b4:	2100      	movs	r1, #0
 80057b6:	f7ff fd2f 	bl	8005218 <HAL_RCCEx_GetPeriphCLKFreq>
 80057ba:	6822      	ldr	r2, [r4, #0]
 80057bc:	4b71      	ldr	r3, [pc, #452]	; (8005984 <HAL_SAI_Init+0x2e8>)
 80057be:	429a      	cmp	r2, r3
 80057c0:	d104      	bne.n	80057cc <HAL_SAI_Init+0x130>
 80057c2:	f44f 6080 	mov.w	r0, #1024	; 0x400
 80057c6:	2100      	movs	r1, #0
 80057c8:	f7ff fd26 	bl	8005218 <HAL_RCCEx_GetPeriphCLKFreq>
 80057cc:	6822      	ldr	r2, [r4, #0]
 80057ce:	4b75      	ldr	r3, [pc, #468]	; (80059a4 <HAL_SAI_Init+0x308>)
 80057d0:	429a      	cmp	r2, r3
 80057d2:	d104      	bne.n	80057de <HAL_SAI_Init+0x142>
 80057d4:	f44f 6000 	mov.w	r0, #2048	; 0x800
 80057d8:	2100      	movs	r1, #0
 80057da:	f7ff fd1d 	bl	8005218 <HAL_RCCEx_GetPeriphCLKFreq>
 80057de:	69a3      	ldr	r3, [r4, #24]
 80057e0:	6c62      	ldr	r2, [r4, #68]	; 0x44
 80057e2:	f5b3 2f00 	cmp.w	r3, #524288	; 0x80000
 80057e6:	6a26      	ldr	r6, [r4, #32]
 80057e8:	f040 80e9 	bne.w	80059be <HAL_SAI_Init+0x322>
 80057ec:	2a04      	cmp	r2, #4
 80057ee:	f000 80e1 	beq.w	80059b4 <HAL_SAI_Init+0x318>
 80057f2:	2a08      	cmp	r2, #8
 80057f4:	f000 80e0 	beq.w	80059b8 <HAL_SAI_Init+0x31c>
 80057f8:	6d63      	ldr	r3, [r4, #84]	; 0x54
 80057fa:	210a      	movs	r1, #10
 80057fc:	4373      	muls	r3, r6
 80057fe:	4341      	muls	r1, r0
 8005800:	fbb1 f0f3 	udiv	r0, r1, r3
 8005804:	210a      	movs	r1, #10
 8005806:	fbb0 f3f1 	udiv	r3, r0, r1
 800580a:	fb01 0013 	mls	r0, r1, r3, r0
 800580e:	2809      	cmp	r0, #9
 8005810:	bf08      	it	eq
 8005812:	3301      	addeq	r3, #1
 8005814:	2a04      	cmp	r2, #4
 8005816:	6263      	str	r3, [r4, #36]	; 0x24
 8005818:	bf02      	ittt	eq
 800581a:	6a63      	ldreq	r3, [r4, #36]	; 0x24
 800581c:	085b      	lsreq	r3, r3, #1
 800581e:	6263      	streq	r3, [r4, #36]	; 0x24
 8005820:	6863      	ldr	r3, [r4, #4]
 8005822:	6d26      	ldr	r6, [r4, #80]	; 0x50
 8005824:	f033 0302 	bics.w	r3, r3, #2
 8005828:	f040 80d7 	bne.w	80059da <HAL_SAI_Init+0x33e>
 800582c:	3e01      	subs	r6, #1
 800582e:	bf18      	it	ne
 8005830:	2601      	movne	r6, #1
 8005832:	f7fc fac5 	bl	8001dc0 <HAL_GetREVID>
 8005836:	f5b0 5f00 	cmp.w	r0, #8192	; 0x2000
 800583a:	ea4f 2646 	mov.w	r6, r6, lsl #9
 800583e:	6c62      	ldr	r2, [r4, #68]	; 0x44
 8005840:	69a1      	ldr	r1, [r4, #24]
 8005842:	6aa0      	ldr	r0, [r4, #40]	; 0x28
 8005844:	e9d4 3e00 	ldrd	r3, lr, [r4]
 8005848:	f8d3 a000 	ldr.w	sl, [r3]
 800584c:	f0c0 80c9 	bcc.w	80059e2 <HAL_SAI_Init+0x346>
 8005850:	ea4e 0e02 	orr.w	lr, lr, r2
 8005854:	6ca2      	ldr	r2, [r4, #72]	; 0x48
 8005856:	f8df c158 	ldr.w	ip, [pc, #344]	; 80059b0 <HAL_SAI_Init+0x314>
 800585a:	ea4e 0e02 	orr.w	lr, lr, r2
 800585e:	6ce2      	ldr	r2, [r4, #76]	; 0x4c
 8005860:	ea0a 0c0c 	and.w	ip, sl, ip
 8005864:	ea4e 0e02 	orr.w	lr, lr, r2
 8005868:	6ae2      	ldr	r2, [r4, #44]	; 0x2c
 800586a:	f8c3 c000 	str.w	ip, [r3]
 800586e:	ea4e 0e02 	orr.w	lr, lr, r2
 8005872:	6962      	ldr	r2, [r4, #20]
 8005874:	f8d3 c000 	ldr.w	ip, [r3]
 8005878:	ea4e 0202 	orr.w	r2, lr, r2
 800587c:	430a      	orrs	r2, r1
 800587e:	ea42 0100 	orr.w	r1, r2, r0
 8005882:	6922      	ldr	r2, [r4, #16]
 8005884:	430a      	orrs	r2, r1
 8005886:	6a61      	ldr	r1, [r4, #36]	; 0x24
 8005888:	ea42 020c 	orr.w	r2, r2, ip
 800588c:	454b      	cmp	r3, r9
 800588e:	ea42 5201 	orr.w	r2, r2, r1, lsl #20
 8005892:	ea42 0207 	orr.w	r2, r2, r7
 8005896:	ea42 0206 	orr.w	r2, r2, r6
 800589a:	601a      	str	r2, [r3, #0]
 800589c:	685a      	ldr	r2, [r3, #4]
 800589e:	6b20      	ldr	r0, [r4, #48]	; 0x30
 80058a0:	f422 4260 	bic.w	r2, r2, #57344	; 0xe000
 80058a4:	f022 020f 	bic.w	r2, r2, #15
 80058a8:	605a      	str	r2, [r3, #4]
 80058aa:	69e2      	ldr	r2, [r4, #28]
 80058ac:	6859      	ldr	r1, [r3, #4]
 80058ae:	ea42 0200 	orr.w	r2, r2, r0
 80058b2:	6b60      	ldr	r0, [r4, #52]	; 0x34
 80058b4:	ea42 0200 	orr.w	r2, r2, r0
 80058b8:	6de0      	ldr	r0, [r4, #92]	; 0x5c
 80058ba:	ea42 0201 	orr.w	r2, r2, r1
 80058be:	605a      	str	r2, [r3, #4]
 80058c0:	4a39      	ldr	r2, [pc, #228]	; (80059a8 <HAL_SAI_Init+0x30c>)
 80058c2:	6899      	ldr	r1, [r3, #8]
 80058c4:	ea02 0201 	and.w	r2, r2, r1
 80058c8:	609a      	str	r2, [r3, #8]
 80058ca:	6e62      	ldr	r2, [r4, #100]	; 0x64
 80058cc:	6899      	ldr	r1, [r3, #8]
 80058ce:	ea42 0200 	orr.w	r2, r2, r0
 80058d2:	6e20      	ldr	r0, [r4, #96]	; 0x60
 80058d4:	ea42 0200 	orr.w	r2, r2, r0
 80058d8:	ea42 0201 	orr.w	r2, r2, r1
 80058dc:	6d61      	ldr	r1, [r4, #84]	; 0x54
 80058de:	f101 31ff 	add.w	r1, r1, #4294967295
 80058e2:	ea42 0201 	orr.w	r2, r2, r1
 80058e6:	6da1      	ldr	r1, [r4, #88]	; 0x58
 80058e8:	f101 31ff 	add.w	r1, r1, #4294967295
 80058ec:	ea42 2201 	orr.w	r2, r2, r1, lsl #8
 80058f0:	609a      	str	r2, [r3, #8]
 80058f2:	68da      	ldr	r2, [r3, #12]
 80058f4:	f422 627d 	bic.w	r2, r2, #4048	; 0xfd0
 80058f8:	f022 020f 	bic.w	r2, r2, #15
 80058fc:	ea4f 4202 	mov.w	r2, r2, lsl #16
 8005900:	ea4f 4212 	mov.w	r2, r2, lsr #16
 8005904:	60da      	str	r2, [r3, #12]
 8005906:	68d9      	ldr	r1, [r3, #12]
 8005908:	e9d4 201a 	ldrd	r2, r0, [r4, #104]	; 0x68
 800590c:	ea42 0200 	orr.w	r2, r2, r0
 8005910:	ea42 0201 	orr.w	r2, r2, r1
 8005914:	6f61      	ldr	r1, [r4, #116]	; 0x74
 8005916:	ea42 4201 	orr.w	r2, r2, r1, lsl #16
 800591a:	6f21      	ldr	r1, [r4, #112]	; 0x70
 800591c:	f101 31ff 	add.w	r1, r1, #4294967295
 8005920:	ea42 2201 	orr.w	r2, r2, r1, lsl #8
 8005924:	60da      	str	r2, [r3, #12]
 8005926:	d002      	beq.n	800592e <HAL_SAI_Init+0x292>
 8005928:	4a16      	ldr	r2, [pc, #88]	; (8005984 <HAL_SAI_Init+0x2e8>)
 800592a:	4293      	cmp	r3, r2
 800592c:	d111      	bne.n	8005952 <HAL_SAI_Init+0x2b6>
 800592e:	6c6b      	ldr	r3, [r5, #68]	; 0x44
 8005930:	f023 0301 	bic.w	r3, r3, #1
 8005934:	646b      	str	r3, [r5, #68]	; 0x44
 8005936:	f894 3038 	ldrb.w	r3, [r4, #56]	; 0x38
 800593a:	2b01      	cmp	r3, #1
 800593c:	d109      	bne.n	8005952 <HAL_SAI_Init+0x2b6>
 800593e:	6be3      	ldr	r3, [r4, #60]	; 0x3c
 8005940:	1e5a      	subs	r2, r3, #1
 8005942:	6c23      	ldr	r3, [r4, #64]	; 0x40
 8005944:	ea43 1302 	orr.w	r3, r3, r2, lsl #4
 8005948:	646b      	str	r3, [r5, #68]	; 0x44
 800594a:	6c6b      	ldr	r3, [r5, #68]	; 0x44
 800594c:	f043 0301 	orr.w	r3, r3, #1
 8005950:	646b      	str	r3, [r5, #68]	; 0x44
 8005952:	2300      	movs	r3, #0
 8005954:	2201      	movs	r2, #1
 8005956:	f8c4 3094 	str.w	r3, [r4, #148]	; 0x94
 800595a:	f884 3090 	strb.w	r3, [r4, #144]	; 0x90
 800595e:	f884 2091 	strb.w	r2, [r4, #145]	; 0x91
 8005962:	e6a1      	b.n	80056a8 <HAL_SAI_Init+0xc>
 8005964:	f043 0301 	orr.w	r3, r3, #1
 8005968:	f44f 6700 	mov.w	r7, #2048	; 0x800
 800596c:	e6fd      	b.n	800576a <HAL_SAI_Init+0xce>
 800596e:	f043 0302 	orr.w	r3, r3, #2
 8005972:	e7f9      	b.n	8005968 <HAL_SAI_Init+0x2cc>
 8005974:	f043 0303 	orr.w	r3, r3, #3
 8005978:	e7f6      	b.n	8005968 <HAL_SAI_Init+0x2cc>
 800597a:	2700      	movs	r7, #0
 800597c:	e6f5      	b.n	800576a <HAL_SAI_Init+0xce>
 800597e:	2000      	movs	r0, #0
 8005980:	e703      	b.n	800578a <HAL_SAI_Init+0xee>
 8005982:	bf00      	nop
 8005984:	58005404 	.word	0x58005404
 8005988:	40015824 	.word	0x40015824
 800598c:	58005400 	.word	0x58005400
 8005990:	40015800 	.word	0x40015800
 8005994:	40015c00 	.word	0x40015c00
 8005998:	40016000 	.word	0x40016000
 800599c:	40015c04 	.word	0x40015c04
 80059a0:	40016004 	.word	0x40016004
 80059a4:	58005424 	.word	0x58005424
 80059a8:	fff88000 	.word	0xfff88000
 80059ac:	40015804 	.word	0x40015804
 80059b0:	f005c010 	.word	0xf005c010
 80059b4:	2340      	movs	r3, #64	; 0x40
 80059b6:	e720      	b.n	80057fa <HAL_SAI_Init+0x15e>
 80059b8:	f44f 7380 	mov.w	r3, #256	; 0x100
 80059bc:	e71d      	b.n	80057fa <HAL_SAI_Init+0x15e>
 80059be:	6aa3      	ldr	r3, [r4, #40]	; 0x28
 80059c0:	210a      	movs	r1, #10
 80059c2:	f1b3 6f80 	cmp.w	r3, #67108864	; 0x4000000
 80059c6:	fb01 f000 	mul.w	r0, r1, r0
 80059ca:	bf0c      	ite	eq
 80059cc:	2302      	moveq	r3, #2
 80059ce:	2301      	movne	r3, #1
 80059d0:	4373      	muls	r3, r6
 80059d2:	021b      	lsls	r3, r3, #8
 80059d4:	fbb0 f0f3 	udiv	r0, r0, r3
 80059d8:	e714      	b.n	8005804 <HAL_SAI_Init+0x168>
 80059da:	1e73      	subs	r3, r6, #1
 80059dc:	425e      	negs	r6, r3
 80059de:	415e      	adcs	r6, r3
 80059e0:	e727      	b.n	8005832 <HAL_SAI_Init+0x196>
 80059e2:	ea4e 0e02 	orr.w	lr, lr, r2
 80059e6:	6ca2      	ldr	r2, [r4, #72]	; 0x48
 80059e8:	f8df c028 	ldr.w	ip, [pc, #40]	; 8005a14 <HAL_SAI_Init+0x378>
 80059ec:	ea4e 0e02 	orr.w	lr, lr, r2
 80059f0:	6ce2      	ldr	r2, [r4, #76]	; 0x4c
 80059f2:	ea0a 0c0c 	and.w	ip, sl, ip
 80059f6:	ea4e 0e02 	orr.w	lr, lr, r2
 80059fa:	6ae2      	ldr	r2, [r4, #44]	; 0x2c
 80059fc:	f8c3 c000 	str.w	ip, [r3]
 8005a00:	ea4e 0e02 	orr.w	lr, lr, r2
 8005a04:	6962      	ldr	r2, [r4, #20]
 8005a06:	f8d3 c000 	ldr.w	ip, [r3]
 8005a0a:	ea4e 0202 	orr.w	r2, lr, r2
 8005a0e:	430a      	orrs	r2, r1
 8005a10:	4302      	orrs	r2, r0
 8005a12:	e738      	b.n	8005886 <HAL_SAI_Init+0x1ea>
 8005a14:	f805c010 	.word	0xf805c010

08005a18 <HAL_SDRAM_Init>:
 8005a18:	b538      	push	{r3, r4, r5, lr}
 8005a1a:	460d      	mov	r5, r1
 8005a1c:	4604      	mov	r4, r0
 8005a1e:	b1f0      	cbz	r0, 8005a5e <HAL_SDRAM_Init+0x46>
 8005a20:	f890 302c 	ldrb.w	r3, [r0, #44]	; 0x2c
 8005a24:	f003 02ff 	and.w	r2, r3, #255	; 0xff
 8005a28:	b91b      	cbnz	r3, 8005a32 <HAL_SDRAM_Init+0x1a>
 8005a2a:	f880 202d 	strb.w	r2, [r0, #45]	; 0x2d
 8005a2e:	f7fb ffd1 	bl	80019d4 <HAL_SDRAM_MspInit>
 8005a32:	2302      	movs	r3, #2
 8005a34:	1d21      	adds	r1, r4, #4
 8005a36:	6820      	ldr	r0, [r4, #0]
 8005a38:	f884 302c 	strb.w	r3, [r4, #44]	; 0x2c
 8005a3c:	f000 fca3 	bl	8006386 <FMC_SDRAM_Init>
 8005a40:	6862      	ldr	r2, [r4, #4]
 8005a42:	4629      	mov	r1, r5
 8005a44:	6820      	ldr	r0, [r4, #0]
 8005a46:	f000 fcd6 	bl	80063f6 <FMC_SDRAM_Timing_Init>
 8005a4a:	4a06      	ldr	r2, [pc, #24]	; (8005a64 <HAL_SDRAM_Init+0x4c>)
 8005a4c:	2000      	movs	r0, #0
 8005a4e:	6813      	ldr	r3, [r2, #0]
 8005a50:	f043 4300 	orr.w	r3, r3, #2147483648	; 0x80000000
 8005a54:	6013      	str	r3, [r2, #0]
 8005a56:	2301      	movs	r3, #1
 8005a58:	f884 302c 	strb.w	r3, [r4, #44]	; 0x2c
 8005a5c:	bd38      	pop	{r3, r4, r5, pc}
 8005a5e:	2001      	movs	r0, #1
 8005a60:	e7fc      	b.n	8005a5c <HAL_SDRAM_Init+0x44>
 8005a62:	bf00      	nop
 8005a64:	52004000 	.word	0x52004000

08005a68 <HAL_SPI_Init>:
 8005a68:	b5f8      	push	{r3, r4, r5, r6, r7, lr}
 8005a6a:	4604      	mov	r4, r0
 8005a6c:	b908      	cbnz	r0, 8005a72 <HAL_SPI_Init+0xa>
 8005a6e:	2001      	movs	r0, #1
 8005a70:	bdf8      	pop	{r3, r4, r5, r6, r7, pc}
 8005a72:	6802      	ldr	r2, [r0, #0]
 8005a74:	2300      	movs	r3, #0
 8005a76:	494d      	ldr	r1, [pc, #308]	; (8005bac <HAL_SPI_Init+0x144>)
 8005a78:	6283      	str	r3, [r0, #40]	; 0x28
 8005a7a:	428a      	cmp	r2, r1
 8005a7c:	68c3      	ldr	r3, [r0, #12]
 8005a7e:	d009      	beq.n	8005a94 <HAL_SPI_Init+0x2c>
 8005a80:	f5a1 4178 	sub.w	r1, r1, #63488	; 0xf800
 8005a84:	428a      	cmp	r2, r1
 8005a86:	d005      	beq.n	8005a94 <HAL_SPI_Init+0x2c>
 8005a88:	f501 6180 	add.w	r1, r1, #1024	; 0x400
 8005a8c:	428a      	cmp	r2, r1
 8005a8e:	d001      	beq.n	8005a94 <HAL_SPI_Init+0x2c>
 8005a90:	2b0f      	cmp	r3, #15
 8005a92:	d8ec      	bhi.n	8005a6e <HAL_SPI_Init+0x6>
 8005a94:	6be1      	ldr	r1, [r4, #60]	; 0x3c
 8005a96:	3308      	adds	r3, #8
 8005a98:	0949      	lsrs	r1, r1, #5
 8005a9a:	08db      	lsrs	r3, r3, #3
 8005a9c:	fb01 3303 	mla	r3, r1, r3, r3
 8005aa0:	4942      	ldr	r1, [pc, #264]	; (8005bac <HAL_SPI_Init+0x144>)
 8005aa2:	428a      	cmp	r2, r1
 8005aa4:	d073      	beq.n	8005b8e <HAL_SPI_Init+0x126>
 8005aa6:	f5a1 4178 	sub.w	r1, r1, #63488	; 0xf800
 8005aaa:	428a      	cmp	r2, r1
 8005aac:	d06f      	beq.n	8005b8e <HAL_SPI_Init+0x126>
 8005aae:	f501 6180 	add.w	r1, r1, #1024	; 0x400
 8005ab2:	428a      	cmp	r2, r1
 8005ab4:	d06b      	beq.n	8005b8e <HAL_SPI_Init+0x126>
 8005ab6:	2b08      	cmp	r3, #8
 8005ab8:	d8d9      	bhi.n	8005a6e <HAL_SPI_Init+0x6>
 8005aba:	f894 3081 	ldrb.w	r3, [r4, #129]	; 0x81
 8005abe:	f003 02ff 	and.w	r2, r3, #255	; 0xff
 8005ac2:	b923      	cbnz	r3, 8005ace <HAL_SPI_Init+0x66>
 8005ac4:	4620      	mov	r0, r4
 8005ac6:	f884 2080 	strb.w	r2, [r4, #128]	; 0x80
 8005aca:	f7fb fe57 	bl	800177c <HAL_SPI_MspInit>
 8005ace:	6822      	ldr	r2, [r4, #0]
 8005ad0:	2302      	movs	r3, #2
 8005ad2:	6861      	ldr	r1, [r4, #4]
 8005ad4:	f884 3081 	strb.w	r3, [r4, #129]	; 0x81
 8005ad8:	6813      	ldr	r3, [r2, #0]
 8005ada:	6ba6      	ldr	r6, [r4, #56]	; 0x38
 8005adc:	f023 0301 	bic.w	r3, r3, #1
 8005ae0:	6013      	str	r3, [r2, #0]
 8005ae2:	6893      	ldr	r3, [r2, #8]
 8005ae4:	f403 1cf8 	and.w	ip, r3, #2031616	; 0x1f0000
 8005ae8:	69a3      	ldr	r3, [r4, #24]
 8005aea:	f1b3 6f80 	cmp.w	r3, #67108864	; 0x4000000
 8005aee:	d104      	bne.n	8005afa <HAL_SPI_Init+0x92>
 8005af0:	f5b1 0f80 	cmp.w	r1, #4194304	; 0x400000
 8005af4:	d14d      	bne.n	8005b92 <HAL_SPI_Init+0x12a>
 8005af6:	2e00      	cmp	r6, #0
 8005af8:	d050      	beq.n	8005b9c <HAL_SPI_Init+0x134>
 8005afa:	f411 0080 	ands.w	r0, r1, #4194304	; 0x400000
 8005afe:	68e5      	ldr	r5, [r4, #12]
 8005b00:	6817      	ldr	r7, [r2, #0]
 8005b02:	d050      	beq.n	8005ba6 <HAL_SPI_Init+0x13e>
 8005b04:	2d06      	cmp	r5, #6
 8005b06:	d94e      	bls.n	8005ba6 <HAL_SPI_Init+0x13e>
 8005b08:	f427 7e80 	bic.w	lr, r7, #256	; 0x100
 8005b0c:	6d27      	ldr	r7, [r4, #80]	; 0x50
 8005b0e:	ea4e 0707 	orr.w	r7, lr, r7
 8005b12:	6017      	str	r7, [r2, #0]
 8005b14:	430b      	orrs	r3, r1
 8005b16:	69e7      	ldr	r7, [r4, #28]
 8005b18:	4333      	orrs	r3, r6
 8005b1a:	433d      	orrs	r5, r7
 8005b1c:	6aa7      	ldr	r7, [r4, #40]	; 0x28
 8005b1e:	433d      	orrs	r5, r7
 8005b20:	6be7      	ldr	r7, [r4, #60]	; 0x3c
 8005b22:	433d      	orrs	r5, r7
 8005b24:	ea45 050c 	orr.w	r5, r5, ip
 8005b28:	6095      	str	r5, [r2, #8]
 8005b2a:	6b65      	ldr	r5, [r4, #52]	; 0x34
 8005b2c:	432b      	orrs	r3, r5
 8005b2e:	6a65      	ldr	r5, [r4, #36]	; 0x24
 8005b30:	432b      	orrs	r3, r5
 8005b32:	6925      	ldr	r5, [r4, #16]
 8005b34:	432b      	orrs	r3, r5
 8005b36:	6965      	ldr	r5, [r4, #20]
 8005b38:	432b      	orrs	r3, r5
 8005b3a:	6a25      	ldr	r5, [r4, #32]
 8005b3c:	432b      	orrs	r3, r5
 8005b3e:	6ce5      	ldr	r5, [r4, #76]	; 0x4c
 8005b40:	432b      	orrs	r3, r5
 8005b42:	68a5      	ldr	r5, [r4, #8]
 8005b44:	432b      	orrs	r3, r5
 8005b46:	6ca5      	ldr	r5, [r4, #72]	; 0x48
 8005b48:	432b      	orrs	r3, r5
 8005b4a:	6da5      	ldr	r5, [r4, #88]	; 0x58
 8005b4c:	432b      	orrs	r3, r5
 8005b4e:	60d3      	str	r3, [r2, #12]
 8005b50:	b959      	cbnz	r1, 8005b6a <HAL_SPI_Init+0x102>
 8005b52:	6893      	ldr	r3, [r2, #8]
 8005b54:	f423 53c0 	bic.w	r3, r3, #6144	; 0x1800
 8005b58:	f443 6300 	orr.w	r3, r3, #2048	; 0x800
 8005b5c:	6093      	str	r3, [r2, #8]
 8005b5e:	6893      	ldr	r3, [r2, #8]
 8005b60:	f423 63c0 	bic.w	r3, r3, #1536	; 0x600
 8005b64:	f443 6380 	orr.w	r3, r3, #1024	; 0x400
 8005b68:	6093      	str	r3, [r2, #8]
 8005b6a:	6d13      	ldr	r3, [r2, #80]	; 0x50
 8005b6c:	f023 0301 	bic.w	r3, r3, #1
 8005b70:	6513      	str	r3, [r2, #80]	; 0x50
 8005b72:	b128      	cbz	r0, 8005b80 <HAL_SPI_Init+0x118>
 8005b74:	68d3      	ldr	r3, [r2, #12]
 8005b76:	6d61      	ldr	r1, [r4, #84]	; 0x54
 8005b78:	f023 4300 	bic.w	r3, r3, #2147483648	; 0x80000000
 8005b7c:	430b      	orrs	r3, r1
 8005b7e:	60d3      	str	r3, [r2, #12]
 8005b80:	2000      	movs	r0, #0
 8005b82:	2301      	movs	r3, #1
 8005b84:	f8c4 0084 	str.w	r0, [r4, #132]	; 0x84
 8005b88:	f884 3081 	strb.w	r3, [r4, #129]	; 0x81
 8005b8c:	e770      	b.n	8005a70 <HAL_SPI_Init+0x8>
 8005b8e:	2b10      	cmp	r3, #16
 8005b90:	e792      	b.n	8005ab8 <HAL_SPI_Init+0x50>
 8005b92:	2900      	cmp	r1, #0
 8005b94:	d1b1      	bne.n	8005afa <HAL_SPI_Init+0x92>
 8005b96:	f1b6 5f80 	cmp.w	r6, #268435456	; 0x10000000
 8005b9a:	d1ae      	bne.n	8005afa <HAL_SPI_Init+0x92>
 8005b9c:	6810      	ldr	r0, [r2, #0]
 8005b9e:	f440 5080 	orr.w	r0, r0, #4096	; 0x1000
 8005ba2:	6010      	str	r0, [r2, #0]
 8005ba4:	e7a9      	b.n	8005afa <HAL_SPI_Init+0x92>
 8005ba6:	f427 7780 	bic.w	r7, r7, #256	; 0x100
 8005baa:	e7b2      	b.n	8005b12 <HAL_SPI_Init+0xaa>
 8005bac:	40013000 	.word	0x40013000

08005bb0 <UART_EndRxTransfer>:
 8005bb0:	b510      	push	{r4, lr}
 8005bb2:	6802      	ldr	r2, [r0, #0]
 8005bb4:	e852 3f00 	ldrex	r3, [r2]
 8005bb8:	f423 7390 	bic.w	r3, r3, #288	; 0x120
 8005bbc:	e842 3100 	strex	r1, r3, [r2]
 8005bc0:	6802      	ldr	r2, [r0, #0]
 8005bc2:	2900      	cmp	r1, #0
 8005bc4:	d1f5      	bne.n	8005bb2 <UART_EndRxTransfer+0x2>
 8005bc6:	4c0f      	ldr	r4, [pc, #60]	; (8005c04 <UART_EndRxTransfer+0x54>)
 8005bc8:	f102 0308 	add.w	r3, r2, #8
 8005bcc:	e853 3f00 	ldrex	r3, [r3]
 8005bd0:	4023      	ands	r3, r4
 8005bd2:	f102 0c08 	add.w	ip, r2, #8
 8005bd6:	e84c 3100 	strex	r1, r3, [ip]
 8005bda:	2900      	cmp	r1, #0
 8005bdc:	d1f4      	bne.n	8005bc8 <UART_EndRxTransfer+0x18>
 8005bde:	6ec3      	ldr	r3, [r0, #108]	; 0x6c
 8005be0:	2b01      	cmp	r3, #1
 8005be2:	d107      	bne.n	8005bf4 <UART_EndRxTransfer+0x44>
 8005be4:	e852 3f00 	ldrex	r3, [r2]
 8005be8:	f023 0310 	bic.w	r3, r3, #16
 8005bec:	e842 3100 	strex	r1, r3, [r2]
 8005bf0:	2900      	cmp	r1, #0
 8005bf2:	d1f7      	bne.n	8005be4 <UART_EndRxTransfer+0x34>
 8005bf4:	2320      	movs	r3, #32
 8005bf6:	f8c0 308c 	str.w	r3, [r0, #140]	; 0x8c
 8005bfa:	2300      	movs	r3, #0
 8005bfc:	66c3      	str	r3, [r0, #108]	; 0x6c
 8005bfe:	6743      	str	r3, [r0, #116]	; 0x74
 8005c00:	bd10      	pop	{r4, pc}
 8005c02:	bf00      	nop
 8005c04:	effffffe 	.word	0xeffffffe

08005c08 <UART_SetConfig>:
 8005c08:	b530      	push	{r4, r5, lr}
 8005c0a:	4604      	mov	r4, r0
 8005c0c:	6803      	ldr	r3, [r0, #0]
 8005c0e:	69c0      	ldr	r0, [r0, #28]
 8005c10:	b087      	sub	sp, #28
 8005c12:	6921      	ldr	r1, [r4, #16]
 8005c14:	68a2      	ldr	r2, [r4, #8]
 8005c16:	681d      	ldr	r5, [r3, #0]
 8005c18:	430a      	orrs	r2, r1
 8005c1a:	6961      	ldr	r1, [r4, #20]
 8005c1c:	430a      	orrs	r2, r1
 8005c1e:	4997      	ldr	r1, [pc, #604]	; (8005e7c <UART_SetConfig+0x274>)
 8005c20:	4302      	orrs	r2, r0
 8005c22:	4029      	ands	r1, r5
 8005c24:	430a      	orrs	r2, r1
 8005c26:	68e1      	ldr	r1, [r4, #12]
 8005c28:	601a      	str	r2, [r3, #0]
 8005c2a:	685a      	ldr	r2, [r3, #4]
 8005c2c:	f422 5240 	bic.w	r2, r2, #12288	; 0x3000
 8005c30:	430a      	orrs	r2, r1
 8005c32:	69a1      	ldr	r1, [r4, #24]
 8005c34:	605a      	str	r2, [r3, #4]
 8005c36:	4a92      	ldr	r2, [pc, #584]	; (8005e80 <UART_SetConfig+0x278>)
 8005c38:	4293      	cmp	r3, r2
 8005c3a:	bf1c      	itt	ne
 8005c3c:	6a22      	ldrne	r2, [r4, #32]
 8005c3e:	4311      	orrne	r1, r2
 8005c40:	689a      	ldr	r2, [r3, #8]
 8005c42:	f022 426e 	bic.w	r2, r2, #3992977408	; 0xee000000
 8005c46:	f422 6230 	bic.w	r2, r2, #2816	; 0xb00
 8005c4a:	430a      	orrs	r2, r1
 8005c4c:	6a61      	ldr	r1, [r4, #36]	; 0x24
 8005c4e:	609a      	str	r2, [r3, #8]
 8005c50:	6ada      	ldr	r2, [r3, #44]	; 0x2c
 8005c52:	f022 020f 	bic.w	r2, r2, #15
 8005c56:	430a      	orrs	r2, r1
 8005c58:	62da      	str	r2, [r3, #44]	; 0x2c
 8005c5a:	4a8a      	ldr	r2, [pc, #552]	; (8005e84 <UART_SetConfig+0x27c>)
 8005c5c:	4293      	cmp	r3, r2
 8005c5e:	d11b      	bne.n	8005c98 <UART_SetConfig+0x90>
 8005c60:	4b89      	ldr	r3, [pc, #548]	; (8005e88 <UART_SetConfig+0x280>)
 8005c62:	6d5b      	ldr	r3, [r3, #84]	; 0x54
 8005c64:	f003 0338 	and.w	r3, r3, #56	; 0x38
 8005c68:	2b28      	cmp	r3, #40	; 0x28
 8005c6a:	d86c      	bhi.n	8005d46 <UART_SetConfig+0x13e>
 8005c6c:	4a87      	ldr	r2, [pc, #540]	; (8005e8c <UART_SetConfig+0x284>)
 8005c6e:	f5b0 4f00 	cmp.w	r0, #32768	; 0x8000
 8005c72:	5cd3      	ldrb	r3, [r2, r3]
 8005c74:	f040 8132 	bne.w	8005edc <UART_SetConfig+0x2d4>
 8005c78:	2b08      	cmp	r3, #8
 8005c7a:	f200 80c0 	bhi.w	8005dfe <UART_SetConfig+0x1f6>
 8005c7e:	2b08      	cmp	r3, #8
 8005c80:	d861      	bhi.n	8005d46 <UART_SetConfig+0x13e>
 8005c82:	e8df f013 	tbh	[pc, r3, lsl #1]
 8005c86:	00e7      	.short	0x00e7
 8005c88:	006000ec 	.word	0x006000ec
 8005c8c:	00ef0060 	.word	0x00ef0060
 8005c90:	00600060 	.word	0x00600060
 8005c94:	00f40060 	.word	0x00f40060
 8005c98:	4a7d      	ldr	r2, [pc, #500]	; (8005e90 <UART_SetConfig+0x288>)
 8005c9a:	4293      	cmp	r3, r2
 8005c9c:	d107      	bne.n	8005cae <UART_SetConfig+0xa6>
 8005c9e:	4b7a      	ldr	r3, [pc, #488]	; (8005e88 <UART_SetConfig+0x280>)
 8005ca0:	6d5b      	ldr	r3, [r3, #84]	; 0x54
 8005ca2:	f003 0307 	and.w	r3, r3, #7
 8005ca6:	2b05      	cmp	r3, #5
 8005ca8:	d84d      	bhi.n	8005d46 <UART_SetConfig+0x13e>
 8005caa:	4a7a      	ldr	r2, [pc, #488]	; (8005e94 <UART_SetConfig+0x28c>)
 8005cac:	e7df      	b.n	8005c6e <UART_SetConfig+0x66>
 8005cae:	4a7a      	ldr	r2, [pc, #488]	; (8005e98 <UART_SetConfig+0x290>)
 8005cb0:	4293      	cmp	r3, r2
 8005cb2:	d107      	bne.n	8005cc4 <UART_SetConfig+0xbc>
 8005cb4:	4b74      	ldr	r3, [pc, #464]	; (8005e88 <UART_SetConfig+0x280>)
 8005cb6:	6d5b      	ldr	r3, [r3, #84]	; 0x54
 8005cb8:	f003 0307 	and.w	r3, r3, #7
 8005cbc:	2b05      	cmp	r3, #5
 8005cbe:	d842      	bhi.n	8005d46 <UART_SetConfig+0x13e>
 8005cc0:	4a76      	ldr	r2, [pc, #472]	; (8005e9c <UART_SetConfig+0x294>)
 8005cc2:	e7d4      	b.n	8005c6e <UART_SetConfig+0x66>
 8005cc4:	4a76      	ldr	r2, [pc, #472]	; (8005ea0 <UART_SetConfig+0x298>)
 8005cc6:	4293      	cmp	r3, r2
 8005cc8:	d107      	bne.n	8005cda <UART_SetConfig+0xd2>
 8005cca:	4b6f      	ldr	r3, [pc, #444]	; (8005e88 <UART_SetConfig+0x280>)
 8005ccc:	6d5b      	ldr	r3, [r3, #84]	; 0x54
 8005cce:	f003 0307 	and.w	r3, r3, #7
 8005cd2:	2b05      	cmp	r3, #5
 8005cd4:	d837      	bhi.n	8005d46 <UART_SetConfig+0x13e>
 8005cd6:	4a73      	ldr	r2, [pc, #460]	; (8005ea4 <UART_SetConfig+0x29c>)
 8005cd8:	e7c9      	b.n	8005c6e <UART_SetConfig+0x66>
 8005cda:	4a73      	ldr	r2, [pc, #460]	; (8005ea8 <UART_SetConfig+0x2a0>)
 8005cdc:	4293      	cmp	r3, r2
 8005cde:	d107      	bne.n	8005cf0 <UART_SetConfig+0xe8>
 8005ce0:	4b69      	ldr	r3, [pc, #420]	; (8005e88 <UART_SetConfig+0x280>)
 8005ce2:	6d5b      	ldr	r3, [r3, #84]	; 0x54
 8005ce4:	f003 0307 	and.w	r3, r3, #7
 8005ce8:	2b05      	cmp	r3, #5
 8005cea:	d82c      	bhi.n	8005d46 <UART_SetConfig+0x13e>
 8005cec:	4a6f      	ldr	r2, [pc, #444]	; (8005eac <UART_SetConfig+0x2a4>)
 8005cee:	e7be      	b.n	8005c6e <UART_SetConfig+0x66>
 8005cf0:	4a6f      	ldr	r2, [pc, #444]	; (8005eb0 <UART_SetConfig+0x2a8>)
 8005cf2:	4293      	cmp	r3, r2
 8005cf4:	d107      	bne.n	8005d06 <UART_SetConfig+0xfe>
 8005cf6:	4b64      	ldr	r3, [pc, #400]	; (8005e88 <UART_SetConfig+0x280>)
 8005cf8:	6d5b      	ldr	r3, [r3, #84]	; 0x54
 8005cfa:	f003 0338 	and.w	r3, r3, #56	; 0x38
 8005cfe:	2b28      	cmp	r3, #40	; 0x28
 8005d00:	d821      	bhi.n	8005d46 <UART_SetConfig+0x13e>
 8005d02:	4a6c      	ldr	r2, [pc, #432]	; (8005eb4 <UART_SetConfig+0x2ac>)
 8005d04:	e7b3      	b.n	8005c6e <UART_SetConfig+0x66>
 8005d06:	4a6c      	ldr	r2, [pc, #432]	; (8005eb8 <UART_SetConfig+0x2b0>)
 8005d08:	4293      	cmp	r3, r2
 8005d0a:	d107      	bne.n	8005d1c <UART_SetConfig+0x114>
 8005d0c:	4b5e      	ldr	r3, [pc, #376]	; (8005e88 <UART_SetConfig+0x280>)
 8005d0e:	6d5b      	ldr	r3, [r3, #84]	; 0x54
 8005d10:	f003 0307 	and.w	r3, r3, #7
 8005d14:	2b05      	cmp	r3, #5
 8005d16:	d816      	bhi.n	8005d46 <UART_SetConfig+0x13e>
 8005d18:	4a68      	ldr	r2, [pc, #416]	; (8005ebc <UART_SetConfig+0x2b4>)
 8005d1a:	e7a8      	b.n	8005c6e <UART_SetConfig+0x66>
 8005d1c:	4a68      	ldr	r2, [pc, #416]	; (8005ec0 <UART_SetConfig+0x2b8>)
 8005d1e:	4293      	cmp	r3, r2
 8005d20:	d107      	bne.n	8005d32 <UART_SetConfig+0x12a>
 8005d22:	4b59      	ldr	r3, [pc, #356]	; (8005e88 <UART_SetConfig+0x280>)
 8005d24:	6d5b      	ldr	r3, [r3, #84]	; 0x54
 8005d26:	f003 0307 	and.w	r3, r3, #7
 8005d2a:	2b05      	cmp	r3, #5
 8005d2c:	d80b      	bhi.n	8005d46 <UART_SetConfig+0x13e>
 8005d2e:	4a65      	ldr	r2, [pc, #404]	; (8005ec4 <UART_SetConfig+0x2bc>)
 8005d30:	e79d      	b.n	8005c6e <UART_SetConfig+0x66>
 8005d32:	4a53      	ldr	r2, [pc, #332]	; (8005e80 <UART_SetConfig+0x278>)
 8005d34:	4293      	cmp	r3, r2
 8005d36:	d106      	bne.n	8005d46 <UART_SetConfig+0x13e>
 8005d38:	f502 320e 	add.w	r2, r2, #145408	; 0x23800
 8005d3c:	6d93      	ldr	r3, [r2, #88]	; 0x58
 8005d3e:	f003 0307 	and.w	r3, r3, #7
 8005d42:	2b05      	cmp	r3, #5
 8005d44:	d901      	bls.n	8005d4a <UART_SetConfig+0x142>
 8005d46:	2001      	movs	r0, #1
 8005d48:	e00e      	b.n	8005d68 <UART_SetConfig+0x160>
 8005d4a:	495f      	ldr	r1, [pc, #380]	; (8005ec8 <UART_SetConfig+0x2c0>)
 8005d4c:	5ccb      	ldrb	r3, [r1, r3]
 8005d4e:	2b10      	cmp	r3, #16
 8005d50:	d023      	beq.n	8005d9a <UART_SetConfig+0x192>
 8005d52:	d811      	bhi.n	8005d78 <UART_SetConfig+0x170>
 8005d54:	2b04      	cmp	r3, #4
 8005d56:	d016      	beq.n	8005d86 <UART_SetConfig+0x17e>
 8005d58:	2b08      	cmp	r3, #8
 8005d5a:	d019      	beq.n	8005d90 <UART_SetConfig+0x188>
 8005d5c:	2b02      	cmp	r3, #2
 8005d5e:	d1f2      	bne.n	8005d46 <UART_SetConfig+0x13e>
 8005d60:	f7ff f84a 	bl	8004df8 <HAL_RCCEx_GetD3PCLK1Freq>
 8005d64:	bb10      	cbnz	r0, 8005dac <UART_SetConfig+0x1a4>
 8005d66:	2000      	movs	r0, #0
 8005d68:	f04f 1301 	mov.w	r3, #65537	; 0x10001
 8005d6c:	66a3      	str	r3, [r4, #104]	; 0x68
 8005d6e:	2300      	movs	r3, #0
 8005d70:	e9c4 331d 	strd	r3, r3, [r4, #116]	; 0x74
 8005d74:	b007      	add	sp, #28
 8005d76:	bd30      	pop	{r4, r5, pc}
 8005d78:	2b20      	cmp	r3, #32
 8005d7a:	d03e      	beq.n	8005dfa <UART_SetConfig+0x1f2>
 8005d7c:	2b40      	cmp	r3, #64	; 0x40
 8005d7e:	d1e2      	bne.n	8005d46 <UART_SetConfig+0x13e>
 8005d80:	f44f 4000 	mov.w	r0, #32768	; 0x8000
 8005d84:	e012      	b.n	8005dac <UART_SetConfig+0x1a4>
 8005d86:	4668      	mov	r0, sp
 8005d88:	f7ff f848 	bl	8004e1c <HAL_RCCEx_GetPLL2ClockFreq>
 8005d8c:	9801      	ldr	r0, [sp, #4]
 8005d8e:	e7e9      	b.n	8005d64 <UART_SetConfig+0x15c>
 8005d90:	a803      	add	r0, sp, #12
 8005d92:	f7ff f8ed 	bl	8004f70 <HAL_RCCEx_GetPLL3ClockFreq>
 8005d96:	9804      	ldr	r0, [sp, #16]
 8005d98:	e7e4      	b.n	8005d64 <UART_SetConfig+0x15c>
 8005d9a:	6813      	ldr	r3, [r2, #0]
 8005d9c:	484b      	ldr	r0, [pc, #300]	; (8005ecc <UART_SetConfig+0x2c4>)
 8005d9e:	f013 0f20 	tst.w	r3, #32
 8005da2:	d003      	beq.n	8005dac <UART_SetConfig+0x1a4>
 8005da4:	6813      	ldr	r3, [r2, #0]
 8005da6:	f3c3 03c1 	ubfx	r3, r3, #3, #2
 8005daa:	40d8      	lsrs	r0, r3
 8005dac:	4b48      	ldr	r3, [pc, #288]	; (8005ed0 <UART_SetConfig+0x2c8>)
 8005dae:	6a62      	ldr	r2, [r4, #36]	; 0x24
 8005db0:	6865      	ldr	r5, [r4, #4]
 8005db2:	f833 2012 	ldrh.w	r2, [r3, r2, lsl #1]
 8005db6:	eb05 0145 	add.w	r1, r5, r5, lsl #1
 8005dba:	fbb0 f3f2 	udiv	r3, r0, r2
 8005dbe:	4299      	cmp	r1, r3
 8005dc0:	d8c1      	bhi.n	8005d46 <UART_SetConfig+0x13e>
 8005dc2:	ebb3 3f05 	cmp.w	r3, r5, lsl #12
 8005dc6:	d8be      	bhi.n	8005d46 <UART_SetConfig+0x13e>
 8005dc8:	2300      	movs	r3, #0
 8005dca:	4619      	mov	r1, r3
 8005dcc:	f7fa fa8c 	bl	80002e8 <__aeabi_uldivmod>
 8005dd0:	462a      	mov	r2, r5
 8005dd2:	0209      	lsls	r1, r1, #8
 8005dd4:	086b      	lsrs	r3, r5, #1
 8005dd6:	ea41 6110 	orr.w	r1, r1, r0, lsr #24
 8005dda:	0200      	lsls	r0, r0, #8
 8005ddc:	18c0      	adds	r0, r0, r3
 8005dde:	f04f 0300 	mov.w	r3, #0
 8005de2:	f141 0100 	adc.w	r1, r1, #0
 8005de6:	f7fa fa7f 	bl	80002e8 <__aeabi_uldivmod>
 8005dea:	4b3a      	ldr	r3, [pc, #232]	; (8005ed4 <UART_SetConfig+0x2cc>)
 8005dec:	f5a0 7240 	sub.w	r2, r0, #768	; 0x300
 8005df0:	429a      	cmp	r2, r3
 8005df2:	d8a8      	bhi.n	8005d46 <UART_SetConfig+0x13e>
 8005df4:	6823      	ldr	r3, [r4, #0]
 8005df6:	60d8      	str	r0, [r3, #12]
 8005df8:	e7b5      	b.n	8005d66 <UART_SetConfig+0x15e>
 8005dfa:	4837      	ldr	r0, [pc, #220]	; (8005ed8 <UART_SetConfig+0x2d0>)
 8005dfc:	e7d6      	b.n	8005dac <UART_SetConfig+0x1a4>
 8005dfe:	2b20      	cmp	r3, #32
 8005e00:	d03a      	beq.n	8005e78 <UART_SetConfig+0x270>
 8005e02:	2b40      	cmp	r3, #64	; 0x40
 8005e04:	d00b      	beq.n	8005e1e <UART_SetConfig+0x216>
 8005e06:	2b10      	cmp	r3, #16
 8005e08:	d19d      	bne.n	8005d46 <UART_SetConfig+0x13e>
 8005e0a:	4b1f      	ldr	r3, [pc, #124]	; (8005e88 <UART_SetConfig+0x280>)
 8005e0c:	482f      	ldr	r0, [pc, #188]	; (8005ecc <UART_SetConfig+0x2c4>)
 8005e0e:	681a      	ldr	r2, [r3, #0]
 8005e10:	f012 0f20 	tst.w	r2, #32
 8005e14:	d003      	beq.n	8005e1e <UART_SetConfig+0x216>
 8005e16:	681b      	ldr	r3, [r3, #0]
 8005e18:	f3c3 03c1 	ubfx	r3, r3, #3, #2
 8005e1c:	40d8      	lsrs	r0, r3
 8005e1e:	4b2c      	ldr	r3, [pc, #176]	; (8005ed0 <UART_SetConfig+0x2c8>)
 8005e20:	6a62      	ldr	r2, [r4, #36]	; 0x24
 8005e22:	6861      	ldr	r1, [r4, #4]
 8005e24:	f833 2012 	ldrh.w	r2, [r3, r2, lsl #1]
 8005e28:	084b      	lsrs	r3, r1, #1
 8005e2a:	fbb0 f2f2 	udiv	r2, r0, r2
 8005e2e:	eb03 0342 	add.w	r3, r3, r2, lsl #1
 8005e32:	f64f 72ef 	movw	r2, #65519	; 0xffef
 8005e36:	fbb3 f3f1 	udiv	r3, r3, r1
 8005e3a:	f1a3 0110 	sub.w	r1, r3, #16
 8005e3e:	4291      	cmp	r1, r2
 8005e40:	d881      	bhi.n	8005d46 <UART_SetConfig+0x13e>
 8005e42:	f023 020f 	bic.w	r2, r3, #15
 8005e46:	f3c3 0342 	ubfx	r3, r3, #1, #3
 8005e4a:	6821      	ldr	r1, [r4, #0]
 8005e4c:	b292      	uxth	r2, r2
 8005e4e:	4313      	orrs	r3, r2
 8005e50:	60cb      	str	r3, [r1, #12]
 8005e52:	e788      	b.n	8005d66 <UART_SetConfig+0x15e>
 8005e54:	f7fe f9a8 	bl	80041a8 <HAL_RCC_GetPCLK1Freq>
 8005e58:	2800      	cmp	r0, #0
 8005e5a:	d084      	beq.n	8005d66 <UART_SetConfig+0x15e>
 8005e5c:	e7df      	b.n	8005e1e <UART_SetConfig+0x216>
 8005e5e:	f7fe f9b5 	bl	80041cc <HAL_RCC_GetPCLK2Freq>
 8005e62:	e7f9      	b.n	8005e58 <UART_SetConfig+0x250>
 8005e64:	4668      	mov	r0, sp
 8005e66:	f7fe ffd9 	bl	8004e1c <HAL_RCCEx_GetPLL2ClockFreq>
 8005e6a:	9801      	ldr	r0, [sp, #4]
 8005e6c:	e7f4      	b.n	8005e58 <UART_SetConfig+0x250>
 8005e6e:	a803      	add	r0, sp, #12
 8005e70:	f7ff f87e 	bl	8004f70 <HAL_RCCEx_GetPLL3ClockFreq>
 8005e74:	9804      	ldr	r0, [sp, #16]
 8005e76:	e7ef      	b.n	8005e58 <UART_SetConfig+0x250>
 8005e78:	4817      	ldr	r0, [pc, #92]	; (8005ed8 <UART_SetConfig+0x2d0>)
 8005e7a:	e7d0      	b.n	8005e1e <UART_SetConfig+0x216>
 8005e7c:	cfff69f3 	.word	0xcfff69f3
 8005e80:	58000c00 	.word	0x58000c00
 8005e84:	40011000 	.word	0x40011000
 8005e88:	58024400 	.word	0x58024400
 8005e8c:	080068f9 	.word	0x080068f9
 8005e90:	40004400 	.word	0x40004400
 8005e94:	08006922 	.word	0x08006922
 8005e98:	40004800 	.word	0x40004800
 8005e9c:	08006922 	.word	0x08006922
 8005ea0:	40004c00 	.word	0x40004c00
 8005ea4:	08006922 	.word	0x08006922
 8005ea8:	40005000 	.word	0x40005000
 8005eac:	08006922 	.word	0x08006922
 8005eb0:	40011400 	.word	0x40011400
 8005eb4:	080068f9 	.word	0x080068f9
 8005eb8:	40007800 	.word	0x40007800
 8005ebc:	08006922 	.word	0x08006922
 8005ec0:	40007c00 	.word	0x40007c00
 8005ec4:	08006922 	.word	0x08006922
 8005ec8:	08006928 	.word	0x08006928
 8005ecc:	03d09000 	.word	0x03d09000
 8005ed0:	0800692e 	.word	0x0800692e
 8005ed4:	000ffcff 	.word	0x000ffcff
 8005ed8:	003d0900 	.word	0x003d0900
 8005edc:	2b08      	cmp	r3, #8
 8005ede:	d817      	bhi.n	8005f10 <UART_SetConfig+0x308>
 8005ee0:	2b08      	cmp	r3, #8
 8005ee2:	f63f af30 	bhi.w	8005d46 <UART_SetConfig+0x13e>
 8005ee6:	a201      	add	r2, pc, #4	; (adr r2, 8005eec <UART_SetConfig+0x2e4>)
 8005ee8:	f852 f023 	ldr.w	pc, [r2, r3, lsl #2]
 8005eec:	08005f53 	.word	0x08005f53
 8005ef0:	08005f5f 	.word	0x08005f5f
 8005ef4:	08005d47 	.word	0x08005d47
 8005ef8:	08005d47 	.word	0x08005d47
 8005efc:	08005f65 	.word	0x08005f65
 8005f00:	08005d47 	.word	0x08005d47
 8005f04:	08005d47 	.word	0x08005d47
 8005f08:	08005d47 	.word	0x08005d47
 8005f0c:	08005f6f 	.word	0x08005f6f
 8005f10:	2b20      	cmp	r3, #32
 8005f12:	d031      	beq.n	8005f78 <UART_SetConfig+0x370>
 8005f14:	2b40      	cmp	r3, #64	; 0x40
 8005f16:	d031      	beq.n	8005f7c <UART_SetConfig+0x374>
 8005f18:	2b10      	cmp	r3, #16
 8005f1a:	f47f af14 	bne.w	8005d46 <UART_SetConfig+0x13e>
 8005f1e:	4b19      	ldr	r3, [pc, #100]	; (8005f84 <UART_SetConfig+0x37c>)
 8005f20:	4819      	ldr	r0, [pc, #100]	; (8005f88 <UART_SetConfig+0x380>)
 8005f22:	681a      	ldr	r2, [r3, #0]
 8005f24:	f012 0f20 	tst.w	r2, #32
 8005f28:	d003      	beq.n	8005f32 <UART_SetConfig+0x32a>
 8005f2a:	681b      	ldr	r3, [r3, #0]
 8005f2c:	f3c3 03c1 	ubfx	r3, r3, #3, #2
 8005f30:	40d8      	lsrs	r0, r3
 8005f32:	6a61      	ldr	r1, [r4, #36]	; 0x24
 8005f34:	4a15      	ldr	r2, [pc, #84]	; (8005f8c <UART_SetConfig+0x384>)
 8005f36:	6863      	ldr	r3, [r4, #4]
 8005f38:	f832 2011 	ldrh.w	r2, [r2, r1, lsl #1]
 8005f3c:	fbb0 f0f2 	udiv	r0, r0, r2
 8005f40:	eb00 0053 	add.w	r0, r0, r3, lsr #1
 8005f44:	fbb0 f0f3 	udiv	r0, r0, r3
 8005f48:	f64f 73ef 	movw	r3, #65519	; 0xffef
 8005f4c:	f1a0 0210 	sub.w	r2, r0, #16
 8005f50:	e74e      	b.n	8005df0 <UART_SetConfig+0x1e8>
 8005f52:	f7fe f929 	bl	80041a8 <HAL_RCC_GetPCLK1Freq>
 8005f56:	2800      	cmp	r0, #0
 8005f58:	f43f af05 	beq.w	8005d66 <UART_SetConfig+0x15e>
 8005f5c:	e7e9      	b.n	8005f32 <UART_SetConfig+0x32a>
 8005f5e:	f7fe f935 	bl	80041cc <HAL_RCC_GetPCLK2Freq>
 8005f62:	e7f8      	b.n	8005f56 <UART_SetConfig+0x34e>
 8005f64:	4668      	mov	r0, sp
 8005f66:	f7fe ff59 	bl	8004e1c <HAL_RCCEx_GetPLL2ClockFreq>
 8005f6a:	9801      	ldr	r0, [sp, #4]
 8005f6c:	e7f3      	b.n	8005f56 <UART_SetConfig+0x34e>
 8005f6e:	a803      	add	r0, sp, #12
 8005f70:	f7fe fffe 	bl	8004f70 <HAL_RCCEx_GetPLL3ClockFreq>
 8005f74:	9804      	ldr	r0, [sp, #16]
 8005f76:	e7ee      	b.n	8005f56 <UART_SetConfig+0x34e>
 8005f78:	4805      	ldr	r0, [pc, #20]	; (8005f90 <UART_SetConfig+0x388>)
 8005f7a:	e7da      	b.n	8005f32 <UART_SetConfig+0x32a>
 8005f7c:	f44f 4000 	mov.w	r0, #32768	; 0x8000
 8005f80:	e7d7      	b.n	8005f32 <UART_SetConfig+0x32a>
 8005f82:	bf00      	nop
 8005f84:	58024400 	.word	0x58024400
 8005f88:	03d09000 	.word	0x03d09000
 8005f8c:	0800692e 	.word	0x0800692e
 8005f90:	003d0900 	.word	0x003d0900

08005f94 <UART_AdvFeatureConfig>:
 8005f94:	6a83      	ldr	r3, [r0, #40]	; 0x28
 8005f96:	07da      	lsls	r2, r3, #31
 8005f98:	b510      	push	{r4, lr}
 8005f9a:	d506      	bpl.n	8005faa <UART_AdvFeatureConfig+0x16>
 8005f9c:	6801      	ldr	r1, [r0, #0]
 8005f9e:	6ac4      	ldr	r4, [r0, #44]	; 0x2c
 8005fa0:	684a      	ldr	r2, [r1, #4]
 8005fa2:	f422 3200 	bic.w	r2, r2, #131072	; 0x20000
 8005fa6:	4322      	orrs	r2, r4
 8005fa8:	604a      	str	r2, [r1, #4]
 8005faa:	079c      	lsls	r4, r3, #30
 8005fac:	d506      	bpl.n	8005fbc <UART_AdvFeatureConfig+0x28>
 8005fae:	6801      	ldr	r1, [r0, #0]
 8005fb0:	6b04      	ldr	r4, [r0, #48]	; 0x30
 8005fb2:	684a      	ldr	r2, [r1, #4]
 8005fb4:	f422 3280 	bic.w	r2, r2, #65536	; 0x10000
 8005fb8:	4322      	orrs	r2, r4
 8005fba:	604a      	str	r2, [r1, #4]
 8005fbc:	0759      	lsls	r1, r3, #29
 8005fbe:	d506      	bpl.n	8005fce <UART_AdvFeatureConfig+0x3a>
 8005fc0:	6801      	ldr	r1, [r0, #0]
 8005fc2:	6b44      	ldr	r4, [r0, #52]	; 0x34
 8005fc4:	684a      	ldr	r2, [r1, #4]
 8005fc6:	f422 2280 	bic.w	r2, r2, #262144	; 0x40000
 8005fca:	4322      	orrs	r2, r4
 8005fcc:	604a      	str	r2, [r1, #4]
 8005fce:	071a      	lsls	r2, r3, #28
 8005fd0:	d506      	bpl.n	8005fe0 <UART_AdvFeatureConfig+0x4c>
 8005fd2:	6801      	ldr	r1, [r0, #0]
 8005fd4:	6b84      	ldr	r4, [r0, #56]	; 0x38
 8005fd6:	684a      	ldr	r2, [r1, #4]
 8005fd8:	f422 4200 	bic.w	r2, r2, #32768	; 0x8000
 8005fdc:	4322      	orrs	r2, r4
 8005fde:	604a      	str	r2, [r1, #4]
 8005fe0:	06dc      	lsls	r4, r3, #27
 8005fe2:	d506      	bpl.n	8005ff2 <UART_AdvFeatureConfig+0x5e>
 8005fe4:	6801      	ldr	r1, [r0, #0]
 8005fe6:	6bc4      	ldr	r4, [r0, #60]	; 0x3c
 8005fe8:	688a      	ldr	r2, [r1, #8]
 8005fea:	f422 5280 	bic.w	r2, r2, #4096	; 0x1000
 8005fee:	4322      	orrs	r2, r4
 8005ff0:	608a      	str	r2, [r1, #8]
 8005ff2:	0699      	lsls	r1, r3, #26
 8005ff4:	d506      	bpl.n	8006004 <UART_AdvFeatureConfig+0x70>
 8005ff6:	6801      	ldr	r1, [r0, #0]
 8005ff8:	6c04      	ldr	r4, [r0, #64]	; 0x40
 8005ffa:	688a      	ldr	r2, [r1, #8]
 8005ffc:	f422 5200 	bic.w	r2, r2, #8192	; 0x2000
 8006000:	4322      	orrs	r2, r4
 8006002:	608a      	str	r2, [r1, #8]
 8006004:	065a      	lsls	r2, r3, #25
 8006006:	d510      	bpl.n	800602a <UART_AdvFeatureConfig+0x96>
 8006008:	6801      	ldr	r1, [r0, #0]
 800600a:	6c44      	ldr	r4, [r0, #68]	; 0x44
 800600c:	684a      	ldr	r2, [r1, #4]
 800600e:	f5b4 1f80 	cmp.w	r4, #1048576	; 0x100000
 8006012:	f422 1280 	bic.w	r2, r2, #1048576	; 0x100000
 8006016:	ea42 0204 	orr.w	r2, r2, r4
 800601a:	604a      	str	r2, [r1, #4]
 800601c:	d105      	bne.n	800602a <UART_AdvFeatureConfig+0x96>
 800601e:	684a      	ldr	r2, [r1, #4]
 8006020:	6c84      	ldr	r4, [r0, #72]	; 0x48
 8006022:	f422 02c0 	bic.w	r2, r2, #6291456	; 0x600000
 8006026:	4322      	orrs	r2, r4
 8006028:	604a      	str	r2, [r1, #4]
 800602a:	061b      	lsls	r3, r3, #24
 800602c:	d506      	bpl.n	800603c <UART_AdvFeatureConfig+0xa8>
 800602e:	6802      	ldr	r2, [r0, #0]
 8006030:	6cc1      	ldr	r1, [r0, #76]	; 0x4c
 8006032:	6853      	ldr	r3, [r2, #4]
 8006034:	f423 2300 	bic.w	r3, r3, #524288	; 0x80000
 8006038:	430b      	orrs	r3, r1
 800603a:	6053      	str	r3, [r2, #4]
 800603c:	bd10      	pop	{r4, pc}

0800603e <UART_WaitOnFlagUntilTimeout>:
 800603e:	e92d 43f8 	stmdb	sp!, {r3, r4, r5, r6, r7, r8, r9, lr}
 8006042:	f8dd 9020 	ldr.w	r9, [sp, #32]
 8006046:	4604      	mov	r4, r0
 8006048:	460f      	mov	r7, r1
 800604a:	4616      	mov	r6, r2
 800604c:	4698      	mov	r8, r3
 800604e:	6822      	ldr	r2, [r4, #0]
 8006050:	69d3      	ldr	r3, [r2, #28]
 8006052:	ea37 0303 	bics.w	r3, r7, r3
 8006056:	bf0c      	ite	eq
 8006058:	2301      	moveq	r3, #1
 800605a:	2300      	movne	r3, #0
 800605c:	42b3      	cmp	r3, r6
 800605e:	d001      	beq.n	8006064 <UART_WaitOnFlagUntilTimeout+0x26>
 8006060:	2000      	movs	r0, #0
 8006062:	e01e      	b.n	80060a2 <UART_WaitOnFlagUntilTimeout+0x64>
 8006064:	f1b9 3fff 	cmp.w	r9, #4294967295
 8006068:	d0f2      	beq.n	8006050 <UART_WaitOnFlagUntilTimeout+0x12>
 800606a:	f7fb fe91 	bl	8001d90 <HAL_GetTick>
 800606e:	eba0 0008 	sub.w	r0, r0, r8
 8006072:	4548      	cmp	r0, r9
 8006074:	d825      	bhi.n	80060c2 <UART_WaitOnFlagUntilTimeout+0x84>
 8006076:	f1b9 0f00 	cmp.w	r9, #0
 800607a:	d022      	beq.n	80060c2 <UART_WaitOnFlagUntilTimeout+0x84>
 800607c:	6820      	ldr	r0, [r4, #0]
 800607e:	6803      	ldr	r3, [r0, #0]
 8006080:	075a      	lsls	r2, r3, #29
 8006082:	d5e4      	bpl.n	800604e <UART_WaitOnFlagUntilTimeout+0x10>
 8006084:	69c5      	ldr	r5, [r0, #28]
 8006086:	f015 0508 	ands.w	r5, r5, #8
 800608a:	d00c      	beq.n	80060a6 <UART_WaitOnFlagUntilTimeout+0x68>
 800608c:	2508      	movs	r5, #8
 800608e:	6205      	str	r5, [r0, #32]
 8006090:	4620      	mov	r0, r4
 8006092:	f7ff fd8d 	bl	8005bb0 <UART_EndRxTransfer>
 8006096:	2300      	movs	r3, #0
 8006098:	2001      	movs	r0, #1
 800609a:	f8c4 5090 	str.w	r5, [r4, #144]	; 0x90
 800609e:	f884 3084 	strb.w	r3, [r4, #132]	; 0x84
 80060a2:	e8bd 83f8 	ldmia.w	sp!, {r3, r4, r5, r6, r7, r8, r9, pc}
 80060a6:	69c3      	ldr	r3, [r0, #28]
 80060a8:	051b      	lsls	r3, r3, #20
 80060aa:	d5d0      	bpl.n	800604e <UART_WaitOnFlagUntilTimeout+0x10>
 80060ac:	f44f 6300 	mov.w	r3, #2048	; 0x800
 80060b0:	6203      	str	r3, [r0, #32]
 80060b2:	4620      	mov	r0, r4
 80060b4:	f7ff fd7c 	bl	8005bb0 <UART_EndRxTransfer>
 80060b8:	2320      	movs	r3, #32
 80060ba:	f884 5084 	strb.w	r5, [r4, #132]	; 0x84
 80060be:	f8c4 3090 	str.w	r3, [r4, #144]	; 0x90
 80060c2:	2003      	movs	r0, #3
 80060c4:	e7ed      	b.n	80060a2 <UART_WaitOnFlagUntilTimeout+0x64>

080060c6 <HAL_UART_Transmit>:
 80060c6:	e92d 41ff 	stmdb	sp!, {r0, r1, r2, r3, r4, r5, r6, r7, r8, lr}
 80060ca:	4698      	mov	r8, r3
 80060cc:	f8d0 3088 	ldr.w	r3, [r0, #136]	; 0x88
 80060d0:	4604      	mov	r4, r0
 80060d2:	460e      	mov	r6, r1
 80060d4:	2b20      	cmp	r3, #32
 80060d6:	4617      	mov	r7, r2
 80060d8:	d147      	bne.n	800616a <HAL_UART_Transmit+0xa4>
 80060da:	2900      	cmp	r1, #0
 80060dc:	d047      	beq.n	800616e <HAL_UART_Transmit+0xa8>
 80060de:	2a00      	cmp	r2, #0
 80060e0:	d045      	beq.n	800616e <HAL_UART_Transmit+0xa8>
 80060e2:	2321      	movs	r3, #33	; 0x21
 80060e4:	2500      	movs	r5, #0
 80060e6:	f8c0 5090 	str.w	r5, [r0, #144]	; 0x90
 80060ea:	f8c0 3088 	str.w	r3, [r0, #136]	; 0x88
 80060ee:	f7fb fe4f 	bl	8001d90 <HAL_GetTick>
 80060f2:	68a2      	ldr	r2, [r4, #8]
 80060f4:	4603      	mov	r3, r0
 80060f6:	f8a4 7054 	strh.w	r7, [r4, #84]	; 0x54
 80060fa:	f5b2 5f80 	cmp.w	r2, #4096	; 0x1000
 80060fe:	f8a4 7056 	strh.w	r7, [r4, #86]	; 0x56
 8006102:	d103      	bne.n	800610c <HAL_UART_Transmit+0x46>
 8006104:	6922      	ldr	r2, [r4, #16]
 8006106:	b90a      	cbnz	r2, 800610c <HAL_UART_Transmit+0x46>
 8006108:	4635      	mov	r5, r6
 800610a:	4616      	mov	r6, r2
 800610c:	f8b4 2056 	ldrh.w	r2, [r4, #86]	; 0x56
 8006110:	f8cd 8000 	str.w	r8, [sp]
 8006114:	b292      	uxth	r2, r2
 8006116:	b952      	cbnz	r2, 800612e <HAL_UART_Transmit+0x68>
 8006118:	2140      	movs	r1, #64	; 0x40
 800611a:	4620      	mov	r0, r4
 800611c:	f7ff ff8f 	bl	800603e <UART_WaitOnFlagUntilTimeout>
 8006120:	2320      	movs	r3, #32
 8006122:	f8c4 3088 	str.w	r3, [r4, #136]	; 0x88
 8006126:	b968      	cbnz	r0, 8006144 <HAL_UART_Transmit+0x7e>
 8006128:	b004      	add	sp, #16
 800612a:	e8bd 81f0 	ldmia.w	sp!, {r4, r5, r6, r7, r8, pc}
 800612e:	2200      	movs	r2, #0
 8006130:	2180      	movs	r1, #128	; 0x80
 8006132:	4620      	mov	r0, r4
 8006134:	9303      	str	r3, [sp, #12]
 8006136:	f7ff ff82 	bl	800603e <UART_WaitOnFlagUntilTimeout>
 800613a:	9b03      	ldr	r3, [sp, #12]
 800613c:	b120      	cbz	r0, 8006148 <HAL_UART_Transmit+0x82>
 800613e:	2320      	movs	r3, #32
 8006140:	f8c4 3088 	str.w	r3, [r4, #136]	; 0x88
 8006144:	2003      	movs	r0, #3
 8006146:	e7ef      	b.n	8006128 <HAL_UART_Transmit+0x62>
 8006148:	6821      	ldr	r1, [r4, #0]
 800614a:	b95e      	cbnz	r6, 8006164 <HAL_UART_Transmit+0x9e>
 800614c:	f835 2b02 	ldrh.w	r2, [r5], #2
 8006150:	f3c2 0208 	ubfx	r2, r2, #0, #9
 8006154:	628a      	str	r2, [r1, #40]	; 0x28
 8006156:	f8b4 2056 	ldrh.w	r2, [r4, #86]	; 0x56
 800615a:	3a01      	subs	r2, #1
 800615c:	b292      	uxth	r2, r2
 800615e:	f8a4 2056 	strh.w	r2, [r4, #86]	; 0x56
 8006162:	e7d3      	b.n	800610c <HAL_UART_Transmit+0x46>
 8006164:	f816 2b01 	ldrb.w	r2, [r6], #1
 8006168:	e7f4      	b.n	8006154 <HAL_UART_Transmit+0x8e>
 800616a:	2002      	movs	r0, #2
 800616c:	e7dc      	b.n	8006128 <HAL_UART_Transmit+0x62>
 800616e:	2001      	movs	r0, #1
 8006170:	e7da      	b.n	8006128 <HAL_UART_Transmit+0x62>

08006172 <UART_CheckIdleState>:
 8006172:	b530      	push	{r4, r5, lr}
 8006174:	2500      	movs	r5, #0
 8006176:	4604      	mov	r4, r0
 8006178:	b085      	sub	sp, #20
 800617a:	f8c0 5090 	str.w	r5, [r0, #144]	; 0x90
 800617e:	f7fb fe07 	bl	8001d90 <HAL_GetTick>
 8006182:	6822      	ldr	r2, [r4, #0]
 8006184:	4603      	mov	r3, r0
 8006186:	6812      	ldr	r2, [r2, #0]
 8006188:	0711      	lsls	r1, r2, #28
 800618a:	d51d      	bpl.n	80061c8 <UART_CheckIdleState+0x56>
 800618c:	f06f 427e 	mvn.w	r2, #4261412864	; 0xfe000000
 8006190:	9003      	str	r0, [sp, #12]
 8006192:	f44f 1100 	mov.w	r1, #2097152	; 0x200000
 8006196:	4620      	mov	r0, r4
 8006198:	9200      	str	r2, [sp, #0]
 800619a:	462a      	mov	r2, r5
 800619c:	f7ff ff4f 	bl	800603e <UART_WaitOnFlagUntilTimeout>
 80061a0:	9b03      	ldr	r3, [sp, #12]
 80061a2:	b188      	cbz	r0, 80061c8 <UART_CheckIdleState+0x56>
 80061a4:	6822      	ldr	r2, [r4, #0]
 80061a6:	e852 3f00 	ldrex	r3, [r2]
 80061aa:	f023 0380 	bic.w	r3, r3, #128	; 0x80
 80061ae:	e842 3100 	strex	r1, r3, [r2]
 80061b2:	2900      	cmp	r1, #0
 80061b4:	d1f6      	bne.n	80061a4 <UART_CheckIdleState+0x32>
 80061b6:	2320      	movs	r3, #32
 80061b8:	f8c4 3088 	str.w	r3, [r4, #136]	; 0x88
 80061bc:	2003      	movs	r0, #3
 80061be:	2300      	movs	r3, #0
 80061c0:	f884 3084 	strb.w	r3, [r4, #132]	; 0x84
 80061c4:	b005      	add	sp, #20
 80061c6:	bd30      	pop	{r4, r5, pc}
 80061c8:	6822      	ldr	r2, [r4, #0]
 80061ca:	6812      	ldr	r2, [r2, #0]
 80061cc:	0752      	lsls	r2, r2, #29
 80061ce:	d523      	bpl.n	8006218 <UART_CheckIdleState+0xa6>
 80061d0:	f06f 427e 	mvn.w	r2, #4261412864	; 0xfe000000
 80061d4:	f44f 0180 	mov.w	r1, #4194304	; 0x400000
 80061d8:	4620      	mov	r0, r4
 80061da:	9200      	str	r2, [sp, #0]
 80061dc:	2200      	movs	r2, #0
 80061de:	f7ff ff2e 	bl	800603e <UART_WaitOnFlagUntilTimeout>
 80061e2:	b1c8      	cbz	r0, 8006218 <UART_CheckIdleState+0xa6>
 80061e4:	6822      	ldr	r2, [r4, #0]
 80061e6:	e852 3f00 	ldrex	r3, [r2]
 80061ea:	f423 7390 	bic.w	r3, r3, #288	; 0x120
 80061ee:	e842 3100 	strex	r1, r3, [r2]
 80061f2:	6822      	ldr	r2, [r4, #0]
 80061f4:	2900      	cmp	r1, #0
 80061f6:	d1f5      	bne.n	80061e4 <UART_CheckIdleState+0x72>
 80061f8:	f102 0308 	add.w	r3, r2, #8
 80061fc:	e853 3f00 	ldrex	r3, [r3]
 8006200:	f023 0301 	bic.w	r3, r3, #1
 8006204:	f102 0008 	add.w	r0, r2, #8
 8006208:	e840 3100 	strex	r1, r3, [r0]
 800620c:	2900      	cmp	r1, #0
 800620e:	d1f3      	bne.n	80061f8 <UART_CheckIdleState+0x86>
 8006210:	2320      	movs	r3, #32
 8006212:	f8c4 308c 	str.w	r3, [r4, #140]	; 0x8c
 8006216:	e7d1      	b.n	80061bc <UART_CheckIdleState+0x4a>
 8006218:	2320      	movs	r3, #32
 800621a:	2000      	movs	r0, #0
 800621c:	f8c4 3088 	str.w	r3, [r4, #136]	; 0x88
 8006220:	f8c4 308c 	str.w	r3, [r4, #140]	; 0x8c
 8006224:	66e0      	str	r0, [r4, #108]	; 0x6c
 8006226:	6720      	str	r0, [r4, #112]	; 0x70
 8006228:	e7c9      	b.n	80061be <UART_CheckIdleState+0x4c>

0800622a <HAL_UART_Init>:
 800622a:	b510      	push	{r4, lr}
 800622c:	4604      	mov	r4, r0
 800622e:	b350      	cbz	r0, 8006286 <HAL_UART_Init+0x5c>
 8006230:	f8d0 3088 	ldr.w	r3, [r0, #136]	; 0x88
 8006234:	b91b      	cbnz	r3, 800623e <HAL_UART_Init+0x14>
 8006236:	f880 3084 	strb.w	r3, [r0, #132]	; 0x84
 800623a:	f7fb fb27 	bl	800188c <HAL_UART_MspInit>
 800623e:	6822      	ldr	r2, [r4, #0]
 8006240:	2324      	movs	r3, #36	; 0x24
 8006242:	4620      	mov	r0, r4
 8006244:	f8c4 3088 	str.w	r3, [r4, #136]	; 0x88
 8006248:	6813      	ldr	r3, [r2, #0]
 800624a:	f023 0301 	bic.w	r3, r3, #1
 800624e:	6013      	str	r3, [r2, #0]
 8006250:	f7ff fcda 	bl	8005c08 <UART_SetConfig>
 8006254:	2801      	cmp	r0, #1
 8006256:	d016      	beq.n	8006286 <HAL_UART_Init+0x5c>
 8006258:	6aa3      	ldr	r3, [r4, #40]	; 0x28
 800625a:	b113      	cbz	r3, 8006262 <HAL_UART_Init+0x38>
 800625c:	4620      	mov	r0, r4
 800625e:	f7ff fe99 	bl	8005f94 <UART_AdvFeatureConfig>
 8006262:	6823      	ldr	r3, [r4, #0]
 8006264:	4620      	mov	r0, r4
 8006266:	685a      	ldr	r2, [r3, #4]
 8006268:	f422 4290 	bic.w	r2, r2, #18432	; 0x4800
 800626c:	605a      	str	r2, [r3, #4]
 800626e:	689a      	ldr	r2, [r3, #8]
 8006270:	f022 022a 	bic.w	r2, r2, #42	; 0x2a
 8006274:	609a      	str	r2, [r3, #8]
 8006276:	681a      	ldr	r2, [r3, #0]
 8006278:	f042 0201 	orr.w	r2, r2, #1
 800627c:	e8bd 4010 	ldmia.w	sp!, {r4, lr}
 8006280:	601a      	str	r2, [r3, #0]
 8006282:	f7ff bf76 	b.w	8006172 <UART_CheckIdleState>
 8006286:	2001      	movs	r0, #1
 8006288:	bd10      	pop	{r4, pc}
	...

0800628c <UARTEx_SetNbDataToProcess>:
 800628c:	6e43      	ldr	r3, [r0, #100]	; 0x64
 800628e:	b530      	push	{r4, r5, lr}
 8006290:	b92b      	cbnz	r3, 800629e <UARTEx_SetNbDataToProcess+0x12>
 8006292:	2301      	movs	r3, #1
 8006294:	f8a0 306a 	strh.w	r3, [r0, #106]	; 0x6a
 8006298:	f8a0 3068 	strh.w	r3, [r0, #104]	; 0x68
 800629c:	bd30      	pop	{r4, r5, pc}
 800629e:	6803      	ldr	r3, [r0, #0]
 80062a0:	4d09      	ldr	r5, [pc, #36]	; (80062c8 <UARTEx_SetNbDataToProcess+0x3c>)
 80062a2:	689a      	ldr	r2, [r3, #8]
 80062a4:	6899      	ldr	r1, [r3, #8]
 80062a6:	4c09      	ldr	r4, [pc, #36]	; (80062cc <UARTEx_SetNbDataToProcess+0x40>)
 80062a8:	f3c2 6242 	ubfx	r2, r2, #25, #3
 80062ac:	0f49      	lsrs	r1, r1, #29
 80062ae:	5c6b      	ldrb	r3, [r5, r1]
 80062b0:	5c61      	ldrb	r1, [r4, r1]
 80062b2:	011b      	lsls	r3, r3, #4
 80062b4:	fbb3 f3f1 	udiv	r3, r3, r1
 80062b8:	f8a0 306a 	strh.w	r3, [r0, #106]	; 0x6a
 80062bc:	5cab      	ldrb	r3, [r5, r2]
 80062be:	5ca2      	ldrb	r2, [r4, r2]
 80062c0:	011b      	lsls	r3, r3, #4
 80062c2:	fbb3 f3f2 	udiv	r3, r3, r2
 80062c6:	e7e7      	b.n	8006298 <UARTEx_SetNbDataToProcess+0xc>
 80062c8:	0800694e 	.word	0x0800694e
 80062cc:	08006946 	.word	0x08006946

080062d0 <HAL_UARTEx_DisableFifoMode>:
 80062d0:	f890 3084 	ldrb.w	r3, [r0, #132]	; 0x84
 80062d4:	2b01      	cmp	r3, #1
 80062d6:	d014      	beq.n	8006302 <HAL_UARTEx_DisableFifoMode+0x32>
 80062d8:	6802      	ldr	r2, [r0, #0]
 80062da:	2324      	movs	r3, #36	; 0x24
 80062dc:	f8c0 3088 	str.w	r3, [r0, #136]	; 0x88
 80062e0:	6811      	ldr	r1, [r2, #0]
 80062e2:	6813      	ldr	r3, [r2, #0]
 80062e4:	f021 5100 	bic.w	r1, r1, #536870912	; 0x20000000
 80062e8:	f023 0301 	bic.w	r3, r3, #1
 80062ec:	6013      	str	r3, [r2, #0]
 80062ee:	2300      	movs	r3, #0
 80062f0:	6643      	str	r3, [r0, #100]	; 0x64
 80062f2:	6011      	str	r1, [r2, #0]
 80062f4:	2220      	movs	r2, #32
 80062f6:	f880 3084 	strb.w	r3, [r0, #132]	; 0x84
 80062fa:	f8c0 2088 	str.w	r2, [r0, #136]	; 0x88
 80062fe:	4618      	mov	r0, r3
 8006300:	4770      	bx	lr
 8006302:	2002      	movs	r0, #2
 8006304:	4770      	bx	lr

08006306 <HAL_UARTEx_SetTxFifoThreshold>:
 8006306:	b570      	push	{r4, r5, r6, lr}
 8006308:	f890 3084 	ldrb.w	r3, [r0, #132]	; 0x84
 800630c:	4604      	mov	r4, r0
 800630e:	2b01      	cmp	r3, #1
 8006310:	d017      	beq.n	8006342 <HAL_UARTEx_SetTxFifoThreshold+0x3c>
 8006312:	6805      	ldr	r5, [r0, #0]
 8006314:	2324      	movs	r3, #36	; 0x24
 8006316:	f8c0 3088 	str.w	r3, [r0, #136]	; 0x88
 800631a:	682e      	ldr	r6, [r5, #0]
 800631c:	682b      	ldr	r3, [r5, #0]
 800631e:	f023 0301 	bic.w	r3, r3, #1
 8006322:	602b      	str	r3, [r5, #0]
 8006324:	68ab      	ldr	r3, [r5, #8]
 8006326:	f023 4360 	bic.w	r3, r3, #3758096384	; 0xe0000000
 800632a:	4319      	orrs	r1, r3
 800632c:	60a9      	str	r1, [r5, #8]
 800632e:	f7ff ffad 	bl	800628c <UARTEx_SetNbDataToProcess>
 8006332:	2320      	movs	r3, #32
 8006334:	602e      	str	r6, [r5, #0]
 8006336:	f8c0 3088 	str.w	r3, [r0, #136]	; 0x88
 800633a:	2000      	movs	r0, #0
 800633c:	f884 0084 	strb.w	r0, [r4, #132]	; 0x84
 8006340:	bd70      	pop	{r4, r5, r6, pc}
 8006342:	2002      	movs	r0, #2
 8006344:	e7fc      	b.n	8006340 <HAL_UARTEx_SetTxFifoThreshold+0x3a>

08006346 <HAL_UARTEx_SetRxFifoThreshold>:
 8006346:	b570      	push	{r4, r5, r6, lr}
 8006348:	f890 3084 	ldrb.w	r3, [r0, #132]	; 0x84
 800634c:	4604      	mov	r4, r0
 800634e:	2b01      	cmp	r3, #1
 8006350:	d017      	beq.n	8006382 <HAL_UARTEx_SetRxFifoThreshold+0x3c>
 8006352:	6805      	ldr	r5, [r0, #0]
 8006354:	2324      	movs	r3, #36	; 0x24
 8006356:	f8c0 3088 	str.w	r3, [r0, #136]	; 0x88
 800635a:	682e      	ldr	r6, [r5, #0]
 800635c:	682b      	ldr	r3, [r5, #0]
 800635e:	f023 0301 	bic.w	r3, r3, #1
 8006362:	602b      	str	r3, [r5, #0]
 8006364:	68ab      	ldr	r3, [r5, #8]
 8006366:	f023 6360 	bic.w	r3, r3, #234881024	; 0xe000000
 800636a:	4319      	orrs	r1, r3
 800636c:	60a9      	str	r1, [r5, #8]
 800636e:	f7ff ff8d 	bl	800628c <UARTEx_SetNbDataToProcess>
 8006372:	2320      	movs	r3, #32
 8006374:	602e      	str	r6, [r5, #0]
 8006376:	f8c0 3088 	str.w	r3, [r0, #136]	; 0x88
 800637a:	2000      	movs	r0, #0
 800637c:	f884 0084 	strb.w	r0, [r4, #132]	; 0x84
 8006380:	bd70      	pop	{r4, r5, r6, pc}
 8006382:	2002      	movs	r0, #2
 8006384:	e7fc      	b.n	8006380 <HAL_UARTEx_SetRxFifoThreshold+0x3a>

08006386 <FMC_SDRAM_Init>:
 8006386:	e92d 41f0 	stmdb	sp!, {r4, r5, r6, r7, r8, lr}
 800638a:	e9d1 2c01 	ldrd	r2, ip, [r1, #4]
 800638e:	e9d1 3807 	ldrd	r3, r8, [r1, #28]
 8006392:	f8d1 e024 	ldr.w	lr, [r1, #36]	; 0x24
 8006396:	ea43 0308 	orr.w	r3, r3, r8
 800639a:	e9d1 7603 	ldrd	r7, r6, [r1, #12]
 800639e:	e9d1 5405 	ldrd	r5, r4, [r1, #20]
 80063a2:	6809      	ldr	r1, [r1, #0]
 80063a4:	b991      	cbnz	r1, 80063cc <FMC_SDRAM_Init+0x46>
 80063a6:	ea43 030e 	orr.w	r3, r3, lr
 80063aa:	6801      	ldr	r1, [r0, #0]
 80063ac:	4313      	orrs	r3, r2
 80063ae:	f421 41ff 	bic.w	r1, r1, #32640	; 0x7f80
 80063b2:	ea43 030c 	orr.w	r3, r3, ip
 80063b6:	f021 017f 	bic.w	r1, r1, #127	; 0x7f
 80063ba:	433b      	orrs	r3, r7
 80063bc:	4333      	orrs	r3, r6
 80063be:	432b      	orrs	r3, r5
 80063c0:	4323      	orrs	r3, r4
 80063c2:	430b      	orrs	r3, r1
 80063c4:	6003      	str	r3, [r0, #0]
 80063c6:	2000      	movs	r0, #0
 80063c8:	e8bd 81f0 	ldmia.w	sp!, {r4, r5, r6, r7, r8, pc}
 80063cc:	6801      	ldr	r1, [r0, #0]
 80063ce:	ea43 030e 	orr.w	r3, r3, lr
 80063d2:	f421 41f8 	bic.w	r1, r1, #31744	; 0x7c00
 80063d6:	430b      	orrs	r3, r1
 80063d8:	6003      	str	r3, [r0, #0]
 80063da:	ea42 030c 	orr.w	r3, r2, ip
 80063de:	6841      	ldr	r1, [r0, #4]
 80063e0:	433b      	orrs	r3, r7
 80063e2:	f421 42ff 	bic.w	r2, r1, #32640	; 0x7f80
 80063e6:	4333      	orrs	r3, r6
 80063e8:	f022 027f 	bic.w	r2, r2, #127	; 0x7f
 80063ec:	432b      	orrs	r3, r5
 80063ee:	4323      	orrs	r3, r4
 80063f0:	4313      	orrs	r3, r2
 80063f2:	6043      	str	r3, [r0, #4]
 80063f4:	e7e7      	b.n	80063c6 <FMC_SDRAM_Init+0x40>

080063f6 <FMC_SDRAM_Timing_Init>:
 80063f6:	68cb      	ldr	r3, [r1, #12]
 80063f8:	f103 3cff 	add.w	ip, r3, #4294967295
 80063fc:	694b      	ldr	r3, [r1, #20]
 80063fe:	b5f0      	push	{r4, r5, r6, r7, lr}
 8006400:	3b01      	subs	r3, #1
 8006402:	680f      	ldr	r7, [r1, #0]
 8006404:	684c      	ldr	r4, [r1, #4]
 8006406:	688e      	ldr	r6, [r1, #8]
 8006408:	051b      	lsls	r3, r3, #20
 800640a:	690d      	ldr	r5, [r1, #16]
 800640c:	3c01      	subs	r4, #1
 800640e:	6989      	ldr	r1, [r1, #24]
 8006410:	3e01      	subs	r6, #1
 8006412:	3d01      	subs	r5, #1
 8006414:	3f01      	subs	r7, #1
 8006416:	3901      	subs	r1, #1
 8006418:	0124      	lsls	r4, r4, #4
 800641a:	0236      	lsls	r6, r6, #8
 800641c:	042d      	lsls	r5, r5, #16
 800641e:	0609      	lsls	r1, r1, #24
 8006420:	ea43 330c 	orr.w	r3, r3, ip, lsl #12
 8006424:	b95a      	cbnz	r2, 800643e <FMC_SDRAM_Timing_Init+0x48>
 8006426:	433b      	orrs	r3, r7
 8006428:	6882      	ldr	r2, [r0, #8]
 800642a:	4323      	orrs	r3, r4
 800642c:	f002 4270 	and.w	r2, r2, #4026531840	; 0xf0000000
 8006430:	4333      	orrs	r3, r6
 8006432:	432b      	orrs	r3, r5
 8006434:	430b      	orrs	r3, r1
 8006436:	4313      	orrs	r3, r2
 8006438:	6083      	str	r3, [r0, #8]
 800643a:	2000      	movs	r0, #0
 800643c:	bdf0      	pop	{r4, r5, r6, r7, pc}
 800643e:	6882      	ldr	r2, [r0, #8]
 8006440:	f422 0270 	bic.w	r2, r2, #15728640	; 0xf00000
 8006444:	f422 4270 	bic.w	r2, r2, #61440	; 0xf000
 8006448:	431a      	orrs	r2, r3
 800644a:	ea44 0306 	orr.w	r3, r4, r6
 800644e:	433b      	orrs	r3, r7
 8006450:	6082      	str	r2, [r0, #8]
 8006452:	68c2      	ldr	r2, [r0, #12]
 8006454:	432b      	orrs	r3, r5
 8006456:	f002 4270 	and.w	r2, r2, #4026531840	; 0xf0000000
 800645a:	430b      	orrs	r3, r1
 800645c:	4313      	orrs	r3, r2
 800645e:	60c3      	str	r3, [r0, #12]
 8006460:	e7eb      	b.n	800643a <FMC_SDRAM_Timing_Init+0x44>
	...

08006464 <USB_CoreReset>:
 8006464:	b082      	sub	sp, #8
 8006466:	2300      	movs	r3, #0
 8006468:	4a10      	ldr	r2, [pc, #64]	; (80064ac <USB_CoreReset+0x48>)
 800646a:	9301      	str	r3, [sp, #4]
 800646c:	9b01      	ldr	r3, [sp, #4]
 800646e:	3301      	adds	r3, #1
 8006470:	9301      	str	r3, [sp, #4]
 8006472:	9b01      	ldr	r3, [sp, #4]
 8006474:	4293      	cmp	r3, r2
 8006476:	d816      	bhi.n	80064a6 <USB_CoreReset+0x42>
 8006478:	6903      	ldr	r3, [r0, #16]
 800647a:	2b00      	cmp	r3, #0
 800647c:	daf6      	bge.n	800646c <USB_CoreReset+0x8>
 800647e:	2300      	movs	r3, #0
 8006480:	4a0a      	ldr	r2, [pc, #40]	; (80064ac <USB_CoreReset+0x48>)
 8006482:	9301      	str	r3, [sp, #4]
 8006484:	6903      	ldr	r3, [r0, #16]
 8006486:	f043 0301 	orr.w	r3, r3, #1
 800648a:	6103      	str	r3, [r0, #16]
 800648c:	9b01      	ldr	r3, [sp, #4]
 800648e:	3301      	adds	r3, #1
 8006490:	9301      	str	r3, [sp, #4]
 8006492:	9b01      	ldr	r3, [sp, #4]
 8006494:	4293      	cmp	r3, r2
 8006496:	d806      	bhi.n	80064a6 <USB_CoreReset+0x42>
 8006498:	6903      	ldr	r3, [r0, #16]
 800649a:	f013 0301 	ands.w	r3, r3, #1
 800649e:	d1f5      	bne.n	800648c <USB_CoreReset+0x28>
 80064a0:	4618      	mov	r0, r3
 80064a2:	b002      	add	sp, #8
 80064a4:	4770      	bx	lr
 80064a6:	2003      	movs	r0, #3
 80064a8:	e7fb      	b.n	80064a2 <USB_CoreReset+0x3e>
 80064aa:	bf00      	nop
 80064ac:	00030d40 	.word	0x00030d40

080064b0 <USB_CoreInit>:
 80064b0:	b084      	sub	sp, #16
 80064b2:	b538      	push	{r3, r4, r5, lr}
 80064b4:	ad05      	add	r5, sp, #20
 80064b6:	4604      	mov	r4, r0
 80064b8:	e885 000e 	stmia.w	r5, {r1, r2, r3}
 80064bc:	9b0a      	ldr	r3, [sp, #40]	; 0x28
 80064be:	2b01      	cmp	r3, #1
 80064c0:	d12f      	bne.n	8006522 <USB_CoreInit+0x72>
 80064c2:	6b83      	ldr	r3, [r0, #56]	; 0x38
 80064c4:	f423 3380 	bic.w	r3, r3, #65536	; 0x10000
 80064c8:	6383      	str	r3, [r0, #56]	; 0x38
 80064ca:	68c3      	ldr	r3, [r0, #12]
 80064cc:	f423 0384 	bic.w	r3, r3, #4325376	; 0x420000
 80064d0:	f023 0340 	bic.w	r3, r3, #64	; 0x40
 80064d4:	60c3      	str	r3, [r0, #12]
 80064d6:	68c3      	ldr	r3, [r0, #12]
 80064d8:	f423 1340 	bic.w	r3, r3, #3145728	; 0x300000
 80064dc:	60c3      	str	r3, [r0, #12]
 80064de:	9b11      	ldr	r3, [sp, #68]	; 0x44
 80064e0:	2b01      	cmp	r3, #1
 80064e2:	d103      	bne.n	80064ec <USB_CoreInit+0x3c>
 80064e4:	68c3      	ldr	r3, [r0, #12]
 80064e6:	f443 1380 	orr.w	r3, r3, #1048576	; 0x100000
 80064ea:	60c3      	str	r3, [r0, #12]
 80064ec:	4620      	mov	r0, r4
 80064ee:	f7ff ffb9 	bl	8006464 <USB_CoreReset>
 80064f2:	9b07      	ldr	r3, [sp, #28]
 80064f4:	2b01      	cmp	r3, #1
 80064f6:	d110      	bne.n	800651a <USB_CoreInit+0x6a>
 80064f8:	6de3      	ldr	r3, [r4, #92]	; 0x5c
 80064fa:	b29b      	uxth	r3, r3
 80064fc:	65e3      	str	r3, [r4, #92]	; 0x5c
 80064fe:	6de3      	ldr	r3, [r4, #92]	; 0x5c
 8006500:	f043 737b 	orr.w	r3, r3, #65798144	; 0x3ec0000
 8006504:	f443 3300 	orr.w	r3, r3, #131072	; 0x20000
 8006508:	65e3      	str	r3, [r4, #92]	; 0x5c
 800650a:	68a3      	ldr	r3, [r4, #8]
 800650c:	f043 0306 	orr.w	r3, r3, #6
 8006510:	60a3      	str	r3, [r4, #8]
 8006512:	68a3      	ldr	r3, [r4, #8]
 8006514:	f043 0320 	orr.w	r3, r3, #32
 8006518:	60a3      	str	r3, [r4, #8]
 800651a:	e8bd 4038 	ldmia.w	sp!, {r3, r4, r5, lr}
 800651e:	b004      	add	sp, #16
 8006520:	4770      	bx	lr
 8006522:	68c3      	ldr	r3, [r0, #12]
 8006524:	f043 0340 	orr.w	r3, r3, #64	; 0x40
 8006528:	60c3      	str	r3, [r0, #12]
 800652a:	f7ff ff9b 	bl	8006464 <USB_CoreReset>
 800652e:	9b0e      	ldr	r3, [sp, #56]	; 0x38
 8006530:	b923      	cbnz	r3, 800653c <USB_CoreInit+0x8c>
 8006532:	6ba3      	ldr	r3, [r4, #56]	; 0x38
 8006534:	f443 3380 	orr.w	r3, r3, #65536	; 0x10000
 8006538:	63a3      	str	r3, [r4, #56]	; 0x38
 800653a:	e7da      	b.n	80064f2 <USB_CoreInit+0x42>
 800653c:	6ba3      	ldr	r3, [r4, #56]	; 0x38
 800653e:	f423 3380 	bic.w	r3, r3, #65536	; 0x10000
 8006542:	e7f9      	b.n	8006538 <USB_CoreInit+0x88>

08006544 <USB_DisableGlobalInt>:
 8006544:	6883      	ldr	r3, [r0, #8]
 8006546:	f023 0301 	bic.w	r3, r3, #1
 800654a:	6083      	str	r3, [r0, #8]
 800654c:	2000      	movs	r0, #0
 800654e:	4770      	bx	lr

08006550 <USB_SetCurrentMode>:
 8006550:	b538      	push	{r3, r4, r5, lr}
 8006552:	68c3      	ldr	r3, [r0, #12]
 8006554:	2901      	cmp	r1, #1
 8006556:	4605      	mov	r5, r0
 8006558:	f023 43c0 	bic.w	r3, r3, #1610612736	; 0x60000000
 800655c:	60c3      	str	r3, [r0, #12]
 800655e:	d10f      	bne.n	8006580 <USB_SetCurrentMode+0x30>
 8006560:	68c3      	ldr	r3, [r0, #12]
 8006562:	2400      	movs	r4, #0
 8006564:	f043 5300 	orr.w	r3, r3, #536870912	; 0x20000000
 8006568:	60c3      	str	r3, [r0, #12]
 800656a:	2001      	movs	r0, #1
 800656c:	3401      	adds	r4, #1
 800656e:	f7fb fc15 	bl	8001d9c <HAL_Delay>
 8006572:	696b      	ldr	r3, [r5, #20]
 8006574:	07d9      	lsls	r1, r3, #31
 8006576:	d414      	bmi.n	80065a2 <USB_SetCurrentMode+0x52>
 8006578:	2c32      	cmp	r4, #50	; 0x32
 800657a:	d1f6      	bne.n	800656a <USB_SetCurrentMode+0x1a>
 800657c:	2001      	movs	r0, #1
 800657e:	bd38      	pop	{r3, r4, r5, pc}
 8006580:	2900      	cmp	r1, #0
 8006582:	d1fb      	bne.n	800657c <USB_SetCurrentMode+0x2c>
 8006584:	68c3      	ldr	r3, [r0, #12]
 8006586:	460c      	mov	r4, r1
 8006588:	f043 4380 	orr.w	r3, r3, #1073741824	; 0x40000000
 800658c:	60c3      	str	r3, [r0, #12]
 800658e:	2001      	movs	r0, #1
 8006590:	3401      	adds	r4, #1
 8006592:	f7fb fc03 	bl	8001d9c <HAL_Delay>
 8006596:	696b      	ldr	r3, [r5, #20]
 8006598:	07da      	lsls	r2, r3, #31
 800659a:	d502      	bpl.n	80065a2 <USB_SetCurrentMode+0x52>
 800659c:	2c32      	cmp	r4, #50	; 0x32
 800659e:	d1f6      	bne.n	800658e <USB_SetCurrentMode+0x3e>
 80065a0:	e7ec      	b.n	800657c <USB_SetCurrentMode+0x2c>
 80065a2:	f1a4 0332 	sub.w	r3, r4, #50	; 0x32
 80065a6:	4258      	negs	r0, r3
 80065a8:	4158      	adcs	r0, r3
 80065aa:	e7e8      	b.n	800657e <USB_SetCurrentMode+0x2e>

080065ac <USB_FlushTxFifo>:
 80065ac:	b082      	sub	sp, #8
 80065ae:	2300      	movs	r3, #0
 80065b0:	4a10      	ldr	r2, [pc, #64]	; (80065f4 <USB_FlushTxFifo+0x48>)
 80065b2:	9301      	str	r3, [sp, #4]
 80065b4:	9b01      	ldr	r3, [sp, #4]
 80065b6:	3301      	adds	r3, #1
 80065b8:	9301      	str	r3, [sp, #4]
 80065ba:	9b01      	ldr	r3, [sp, #4]
 80065bc:	4293      	cmp	r3, r2
 80065be:	d816      	bhi.n	80065ee <USB_FlushTxFifo+0x42>
 80065c0:	6903      	ldr	r3, [r0, #16]
 80065c2:	2b00      	cmp	r3, #0
 80065c4:	daf6      	bge.n	80065b4 <USB_FlushTxFifo+0x8>
 80065c6:	0189      	lsls	r1, r1, #6
 80065c8:	2300      	movs	r3, #0
 80065ca:	4a0a      	ldr	r2, [pc, #40]	; (80065f4 <USB_FlushTxFifo+0x48>)
 80065cc:	f041 0120 	orr.w	r1, r1, #32
 80065d0:	9301      	str	r3, [sp, #4]
 80065d2:	6101      	str	r1, [r0, #16]
 80065d4:	9b01      	ldr	r3, [sp, #4]
 80065d6:	3301      	adds	r3, #1
 80065d8:	9301      	str	r3, [sp, #4]
 80065da:	9b01      	ldr	r3, [sp, #4]
 80065dc:	4293      	cmp	r3, r2
 80065de:	d806      	bhi.n	80065ee <USB_FlushTxFifo+0x42>
 80065e0:	6903      	ldr	r3, [r0, #16]
 80065e2:	f013 0320 	ands.w	r3, r3, #32
 80065e6:	d1f5      	bne.n	80065d4 <USB_FlushTxFifo+0x28>
 80065e8:	4618      	mov	r0, r3
 80065ea:	b002      	add	sp, #8
 80065ec:	4770      	bx	lr
 80065ee:	2003      	movs	r0, #3
 80065f0:	e7fb      	b.n	80065ea <USB_FlushTxFifo+0x3e>
 80065f2:	bf00      	nop
 80065f4:	00030d40 	.word	0x00030d40

080065f8 <USB_FlushRxFifo>:
 80065f8:	b082      	sub	sp, #8
 80065fa:	2300      	movs	r3, #0
 80065fc:	4a0f      	ldr	r2, [pc, #60]	; (800663c <USB_FlushRxFifo+0x44>)
 80065fe:	9301      	str	r3, [sp, #4]
 8006600:	9b01      	ldr	r3, [sp, #4]
 8006602:	3301      	adds	r3, #1
 8006604:	9301      	str	r3, [sp, #4]
 8006606:	9b01      	ldr	r3, [sp, #4]
 8006608:	4293      	cmp	r3, r2
 800660a:	d814      	bhi.n	8006636 <USB_FlushRxFifo+0x3e>
 800660c:	6903      	ldr	r3, [r0, #16]
 800660e:	2b00      	cmp	r3, #0
 8006610:	daf6      	bge.n	8006600 <USB_FlushRxFifo+0x8>
 8006612:	2300      	movs	r3, #0
 8006614:	4a09      	ldr	r2, [pc, #36]	; (800663c <USB_FlushRxFifo+0x44>)
 8006616:	9301      	str	r3, [sp, #4]
 8006618:	2310      	movs	r3, #16
 800661a:	6103      	str	r3, [r0, #16]
 800661c:	9b01      	ldr	r3, [sp, #4]
 800661e:	3301      	adds	r3, #1
 8006620:	9301      	str	r3, [sp, #4]
 8006622:	9b01      	ldr	r3, [sp, #4]
 8006624:	4293      	cmp	r3, r2
 8006626:	d806      	bhi.n	8006636 <USB_FlushRxFifo+0x3e>
 8006628:	6903      	ldr	r3, [r0, #16]
 800662a:	f013 0310 	ands.w	r3, r3, #16
 800662e:	d1f5      	bne.n	800661c <USB_FlushRxFifo+0x24>
 8006630:	4618      	mov	r0, r3
 8006632:	b002      	add	sp, #8
 8006634:	4770      	bx	lr
 8006636:	2003      	movs	r0, #3
 8006638:	e7fb      	b.n	8006632 <USB_FlushRxFifo+0x3a>
 800663a:	bf00      	nop
 800663c:	00030d40 	.word	0x00030d40

08006640 <USB_SetDevSpeed>:
 8006640:	f8d0 3800 	ldr.w	r3, [r0, #2048]	; 0x800
 8006644:	4319      	orrs	r1, r3
 8006646:	f8c0 1800 	str.w	r1, [r0, #2048]	; 0x800
 800664a:	2000      	movs	r0, #0
 800664c:	4770      	bx	lr
	...

08006650 <USB_DevInit>:
 8006650:	b084      	sub	sp, #16
 8006652:	e92d 43f8 	stmdb	sp!, {r3, r4, r5, r6, r7, r8, r9, lr}
 8006656:	4604      	mov	r4, r0
 8006658:	a809      	add	r0, sp, #36	; 0x24
 800665a:	460e      	mov	r6, r1
 800665c:	9d13      	ldr	r5, [sp, #76]	; 0x4c
 800665e:	e880 000e 	stmia.w	r0, {r1, r2, r3}
 8006662:	2300      	movs	r3, #0
 8006664:	4619      	mov	r1, r3
 8006666:	f103 0240 	add.w	r2, r3, #64	; 0x40
 800666a:	3301      	adds	r3, #1
 800666c:	eb04 0282 	add.w	r2, r4, r2, lsl #2
 8006670:	2b0f      	cmp	r3, #15
 8006672:	6051      	str	r1, [r2, #4]
 8006674:	d1f7      	bne.n	8006666 <USB_DevInit+0x16>
 8006676:	f504 6700 	add.w	r7, r4, #2048	; 0x800
 800667a:	2d00      	cmp	r5, #0
 800667c:	d16c      	bne.n	8006758 <USB_DevInit+0x108>
 800667e:	687b      	ldr	r3, [r7, #4]
 8006680:	f043 0302 	orr.w	r3, r3, #2
 8006684:	607b      	str	r3, [r7, #4]
 8006686:	6ba3      	ldr	r3, [r4, #56]	; 0x38
 8006688:	f423 1300 	bic.w	r3, r3, #2097152	; 0x200000
 800668c:	63a3      	str	r3, [r4, #56]	; 0x38
 800668e:	6823      	ldr	r3, [r4, #0]
 8006690:	f043 0340 	orr.w	r3, r3, #64	; 0x40
 8006694:	6023      	str	r3, [r4, #0]
 8006696:	6823      	ldr	r3, [r4, #0]
 8006698:	f043 0380 	orr.w	r3, r3, #128	; 0x80
 800669c:	6023      	str	r3, [r4, #0]
 800669e:	2300      	movs	r3, #0
 80066a0:	f8c4 3e00 	str.w	r3, [r4, #3584]	; 0xe00
 80066a4:	f8d4 3800 	ldr.w	r3, [r4, #2048]	; 0x800
 80066a8:	f8c4 3800 	str.w	r3, [r4, #2048]	; 0x800
 80066ac:	9b0e      	ldr	r3, [sp, #56]	; 0x38
 80066ae:	2b01      	cmp	r3, #1
 80066b0:	d159      	bne.n	8006766 <USB_DevInit+0x116>
 80066b2:	990c      	ldr	r1, [sp, #48]	; 0x30
 80066b4:	2900      	cmp	r1, #0
 80066b6:	d154      	bne.n	8006762 <USB_DevInit+0x112>
 80066b8:	4620      	mov	r0, r4
 80066ba:	f64f 387f 	movw	r8, #64383	; 0xfb7f
 80066be:	f7ff ffbf 	bl	8006640 <USB_SetDevSpeed>
 80066c2:	2110      	movs	r1, #16
 80066c4:	4620      	mov	r0, r4
 80066c6:	f7ff ff71 	bl	80065ac <USB_FlushTxFifo>
 80066ca:	4601      	mov	r1, r0
 80066cc:	4620      	mov	r0, r4
 80066ce:	f7ff ff93 	bl	80065f8 <USB_FlushRxFifo>
 80066d2:	4308      	orrs	r0, r1
 80066d4:	2300      	movs	r3, #0
 80066d6:	f504 6210 	add.w	r2, r4, #2304	; 0x900
 80066da:	b2c0      	uxtb	r0, r0
 80066dc:	f04f 4c90 	mov.w	ip, #1207959552	; 0x48000000
 80066e0:	4619      	mov	r1, r3
 80066e2:	f04f 6e00 	mov.w	lr, #134217728	; 0x8000000
 80066e6:	3800      	subs	r0, #0
 80066e8:	613b      	str	r3, [r7, #16]
 80066ea:	617b      	str	r3, [r7, #20]
 80066ec:	bf18      	it	ne
 80066ee:	2001      	movne	r0, #1
 80066f0:	61fb      	str	r3, [r7, #28]
 80066f2:	42b3      	cmp	r3, r6
 80066f4:	d139      	bne.n	800676a <USB_DevInit+0x11a>
 80066f6:	2200      	movs	r2, #0
 80066f8:	f504 6330 	add.w	r3, r4, #2816	; 0xb00
 80066fc:	f04f 4c90 	mov.w	ip, #1207959552	; 0x48000000
 8006700:	f04f 6e00 	mov.w	lr, #134217728	; 0x8000000
 8006704:	4611      	mov	r1, r2
 8006706:	f64f 387f 	movw	r8, #64383	; 0xfb7f
 800670a:	42b2      	cmp	r2, r6
 800670c:	d140      	bne.n	8006790 <USB_DevInit+0x140>
 800670e:	693b      	ldr	r3, [r7, #16]
 8006710:	f423 7380 	bic.w	r3, r3, #256	; 0x100
 8006714:	613b      	str	r3, [r7, #16]
 8006716:	2300      	movs	r3, #0
 8006718:	61a3      	str	r3, [r4, #24]
 800671a:	f06f 4380 	mvn.w	r3, #1073741824	; 0x40000000
 800671e:	6163      	str	r3, [r4, #20]
 8006720:	9b0b      	ldr	r3, [sp, #44]	; 0x2c
 8006722:	b91b      	cbnz	r3, 800672c <USB_DevInit+0xdc>
 8006724:	69a3      	ldr	r3, [r4, #24]
 8006726:	f043 0310 	orr.w	r3, r3, #16
 800672a:	61a3      	str	r3, [r4, #24]
 800672c:	69a2      	ldr	r2, [r4, #24]
 800672e:	4b22      	ldr	r3, [pc, #136]	; (80067b8 <USB_DevInit+0x168>)
 8006730:	4313      	orrs	r3, r2
 8006732:	61a3      	str	r3, [r4, #24]
 8006734:	9b0f      	ldr	r3, [sp, #60]	; 0x3c
 8006736:	b11b      	cbz	r3, 8006740 <USB_DevInit+0xf0>
 8006738:	69a3      	ldr	r3, [r4, #24]
 800673a:	f043 0308 	orr.w	r3, r3, #8
 800673e:	61a3      	str	r3, [r4, #24]
 8006740:	2d01      	cmp	r5, #1
 8006742:	d105      	bne.n	8006750 <USB_DevInit+0x100>
 8006744:	69a3      	ldr	r3, [r4, #24]
 8006746:	f043 4380 	orr.w	r3, r3, #1073741824	; 0x40000000
 800674a:	f043 0304 	orr.w	r3, r3, #4
 800674e:	61a3      	str	r3, [r4, #24]
 8006750:	e8bd 43f8 	ldmia.w	sp!, {r3, r4, r5, r6, r7, r8, r9, lr}
 8006754:	b004      	add	sp, #16
 8006756:	4770      	bx	lr
 8006758:	6ba3      	ldr	r3, [r4, #56]	; 0x38
 800675a:	f443 1300 	orr.w	r3, r3, #2097152	; 0x200000
 800675e:	63a3      	str	r3, [r4, #56]	; 0x38
 8006760:	e79d      	b.n	800669e <USB_DevInit+0x4e>
 8006762:	4619      	mov	r1, r3
 8006764:	e7a8      	b.n	80066b8 <USB_DevInit+0x68>
 8006766:	2103      	movs	r1, #3
 8006768:	e7a6      	b.n	80066b8 <USB_DevInit+0x68>
 800676a:	f8d2 9000 	ldr.w	r9, [r2]
 800676e:	f1b9 0f00 	cmp.w	r9, #0
 8006772:	da0b      	bge.n	800678c <USB_DevInit+0x13c>
 8006774:	b93b      	cbnz	r3, 8006786 <USB_DevInit+0x136>
 8006776:	f8c2 e000 	str.w	lr, [r2]
 800677a:	6111      	str	r1, [r2, #16]
 800677c:	3301      	adds	r3, #1
 800677e:	f8c2 8008 	str.w	r8, [r2, #8]
 8006782:	3220      	adds	r2, #32
 8006784:	e7b5      	b.n	80066f2 <USB_DevInit+0xa2>
 8006786:	f8c2 c000 	str.w	ip, [r2]
 800678a:	e7f6      	b.n	800677a <USB_DevInit+0x12a>
 800678c:	6011      	str	r1, [r2, #0]
 800678e:	e7f4      	b.n	800677a <USB_DevInit+0x12a>
 8006790:	f8d3 9000 	ldr.w	r9, [r3]
 8006794:	f1b9 0f00 	cmp.w	r9, #0
 8006798:	da0b      	bge.n	80067b2 <USB_DevInit+0x162>
 800679a:	b93a      	cbnz	r2, 80067ac <USB_DevInit+0x15c>
 800679c:	f8c3 e000 	str.w	lr, [r3]
 80067a0:	6119      	str	r1, [r3, #16]
 80067a2:	3201      	adds	r2, #1
 80067a4:	f8c3 8008 	str.w	r8, [r3, #8]
 80067a8:	3320      	adds	r3, #32
 80067aa:	e7ae      	b.n	800670a <USB_DevInit+0xba>
 80067ac:	f8c3 c000 	str.w	ip, [r3]
 80067b0:	e7f6      	b.n	80067a0 <USB_DevInit+0x150>
 80067b2:	6019      	str	r1, [r3, #0]
 80067b4:	e7f4      	b.n	80067a0 <USB_DevInit+0x150>
 80067b6:	bf00      	nop
 80067b8:	803c3800 	.word	0x803c3800

080067bc <USB_DevDisconnect>:
 80067bc:	f8d0 3e00 	ldr.w	r3, [r0, #3584]	; 0xe00
 80067c0:	f023 0303 	bic.w	r3, r3, #3
 80067c4:	f8c0 3e00 	str.w	r3, [r0, #3584]	; 0xe00
 80067c8:	f8d0 3804 	ldr.w	r3, [r0, #2052]	; 0x804
 80067cc:	f043 0302 	orr.w	r3, r3, #2
 80067d0:	f8c0 3804 	str.w	r3, [r0, #2052]	; 0x804
 80067d4:	2000      	movs	r0, #0
 80067d6:	4770      	bx	lr

080067d8 <memset>:
 80067d8:	4402      	add	r2, r0
 80067da:	4603      	mov	r3, r0
 80067dc:	4293      	cmp	r3, r2
 80067de:	d100      	bne.n	80067e2 <memset+0xa>
 80067e0:	4770      	bx	lr
 80067e2:	f803 1b01 	strb.w	r1, [r3], #1
 80067e6:	e7f9      	b.n	80067dc <memset+0x4>

080067e8 <__libc_init_array>:
 80067e8:	b570      	push	{r4, r5, r6, lr}
 80067ea:	4d0d      	ldr	r5, [pc, #52]	; (8006820 <__libc_init_array+0x38>)
 80067ec:	4c0d      	ldr	r4, [pc, #52]	; (8006824 <__libc_init_array+0x3c>)
 80067ee:	1b64      	subs	r4, r4, r5
 80067f0:	10a4      	asrs	r4, r4, #2
 80067f2:	2600      	movs	r6, #0
 80067f4:	42a6      	cmp	r6, r4
 80067f6:	d109      	bne.n	800680c <__libc_init_array+0x24>
 80067f8:	4d0b      	ldr	r5, [pc, #44]	; (8006828 <__libc_init_array+0x40>)
 80067fa:	4c0c      	ldr	r4, [pc, #48]	; (800682c <__libc_init_array+0x44>)
 80067fc:	f000 f82e 	bl	800685c <_init>
 8006800:	1b64      	subs	r4, r4, r5
 8006802:	10a4      	asrs	r4, r4, #2
 8006804:	2600      	movs	r6, #0
 8006806:	42a6      	cmp	r6, r4
 8006808:	d105      	bne.n	8006816 <__libc_init_array+0x2e>
 800680a:	bd70      	pop	{r4, r5, r6, pc}
 800680c:	f855 3b04 	ldr.w	r3, [r5], #4
 8006810:	4798      	blx	r3
 8006812:	3601      	adds	r6, #1
 8006814:	e7ee      	b.n	80067f4 <__libc_init_array+0xc>
 8006816:	f855 3b04 	ldr.w	r3, [r5], #4
 800681a:	4798      	blx	r3
 800681c:	3601      	adds	r6, #1
 800681e:	e7f2      	b.n	8006806 <__libc_init_array+0x1e>
 8006820:	08006960 	.word	0x08006960
 8006824:	08006960 	.word	0x08006960
 8006828:	08006960 	.word	0x08006960
 800682c:	08006964 	.word	0x08006964

08006830 <strcpy>:
 8006830:	4603      	mov	r3, r0
 8006832:	f811 2b01 	ldrb.w	r2, [r1], #1
 8006836:	f803 2b01 	strb.w	r2, [r3], #1
 800683a:	2a00      	cmp	r2, #0
 800683c:	d1f9      	bne.n	8006832 <strcpy+0x2>
 800683e:	4770      	bx	lr

08006840 <memcpy>:
 8006840:	440a      	add	r2, r1
 8006842:	4291      	cmp	r1, r2
 8006844:	f100 33ff 	add.w	r3, r0, #4294967295
 8006848:	d100      	bne.n	800684c <memcpy+0xc>
 800684a:	4770      	bx	lr
 800684c:	b510      	push	{r4, lr}
 800684e:	f811 4b01 	ldrb.w	r4, [r1], #1
 8006852:	f803 4f01 	strb.w	r4, [r3, #1]!
 8006856:	4291      	cmp	r1, r2
 8006858:	d1f9      	bne.n	800684e <memcpy+0xe>
 800685a:	bd10      	pop	{r4, pc}

0800685c <_init>:
 800685c:	b5f8      	push	{r3, r4, r5, r6, r7, lr}
 800685e:	bf00      	nop
 8006860:	bcf8      	pop	{r3, r4, r5, r6, r7}
 8006862:	bc08      	pop	{r3}
 8006864:	469e      	mov	lr, r3
 8006866:	4770      	bx	lr

08006868 <_fini>:
 8006868:	b5f8      	push	{r3, r4, r5, r6, r7, lr}
 800686a:	bf00      	nop
 800686c:	bcf8      	pop	{r3, r4, r5, r6, r7}
 800686e:	bc08      	pop	{r3}
 8006870:	469e      	mov	lr, r3
 8006872:	4770      	bx	lr
